
Memory Configuration

Name             Origin             Length             Attributes
*default*        0x0000000000000000 0xffffffffffffffff

Linker script and memory map


.bbsram_patch_ucbss
                0xffffffffa1987bd0      0x100
 hex/gps/SW_V2131_csdk.elf(.bbsram_patch_ucbss)
 .bbsram_patch_ucbss
                0xffffffffa1987bd0      0x100 hex/gps/SW_V2131_csdk.elf
                0xffffffffa1987bd0                g_spalProfileBuffer
                0xffffffffa1b00000                _bcpu_dualport_sram_uncached_data_start
                0xffffffffa1b00000                _bcpu_dualport_sram_uncached_data_end
                0xffffffff81b00000                _bcpu_dualport_sram_cached_data_start
                0xffffffff81b00000                _bcpu_dualport_sram_text_start
                0xffffffff81b00000                _bcpu_dualport_sram_cached_data_end
                0xffffffff81b00000                _bcpu_dualport_sram_text_end

.backup         0xffffffff82056d60       0xa0
 hex/gps/SW_V2131_csdk.elf(.backup)
 .backup        0xffffffff82056d60       0xa0 hex/gps/SW_V2131_csdk.elf
                0xffffffff82056d60                g_halWatchdogCtx

.internal_rom   0xffffffff81e00000     0x51f0
 hex/gps/SW_V2131_csdk.elf(.internal_rom)
 .internal_rom  0xffffffff81e00000     0x51f0 hex/gps/SW_V2131_csdk.elf
                0xffffffff81e00000                __xcpu_start
                0xffffffff81e00180                _boot_IrqHandler
                0xffffffff81e002d0                boot_HstMonitorX
                0xffffffff81e00330                boot_DbgExlTrigFunction0
                0xffffffff81e00358                monitor_entry
                0xffffffff81e0035c                initial_stack_top_var
                0xffffffff81e00360                boot_InvalidCache
                0xffffffff81e00378                boot_InvalidICache
                0xffffffff81e00398                boot_InvalidDCache
                0xffffffff81e003b8                boot_DisableInterrupt
                0xffffffff81e00401                boot_MonitorDoMonitoring
                0xffffffff81e00551                boot_Monitor
                0xffffffff81e00589                boot_UartMonitorGetBaudRate
                0xffffffff81e0059d                boot_UartMonitorSend
                0xffffffff81e00601                boot_UartMonitorGet
                0xffffffff81e00665                boot_UartMonitorOpen
                0xffffffff81e006cd                boot_UartMonitorClose
                0xffffffff81e006dd                boot_UartMonitorAck
                0xffffffff81e00769                boot_UartMonitorTimeOut
                0xffffffff81e00791                boot_UartMonitorWriteProcess
                0xffffffff81e008d9                boot_UartMonitorRpcProcess
                0xffffffff81e00a21                boot_UartMonitorReadProcess
                0xffffffff81e00be1                boot_UartMonitorExitProcess
                0xffffffff81e00c35                boot_UartMonitorProcess
                0xffffffff81e00cdd                boot_UartMonitor
                0xffffffff81e00ffc                g_BootHostUsbFixPtr
                0xffffffff81e01000                boot_FlushDCache
                0xffffffff81e01440                boot_IrqDispatch
                0xffffffff81e01484                boot_DcacheFlushAddrRange
                0xffffffff81e015f1                mon_Event
                0xffffffff81e01629                boot_HstCmdBasicHandler
                0xffffffff81e01699                boot_HstMonitor
                0xffffffff81e01705                boot_IspiGetRomedCfg
                0xffffffff81e01791                boot_IspiOpen
                0xffffffff81e01871                boot_IspiFlushFifos
                0xffffffff81e01881                boot_IspiClearRxDmaDone
                0xffffffff81e01891                boot_IspiClearTxDmaDone
                0xffffffff81e018a1                boot_IspiClose
                0xffffffff81e018e5                boot_IspiRxIfcChannelRelease
                0xffffffff81e018fd                boot_IspiTxIfcChannelRelease
                0xffffffff81e01915                boot_IspiSendData
                0xffffffff81e01971                boot_IspiSendDataBuffer
                0xffffffff81e019dd                boot_IspiTxFifoAvail
                0xffffffff81e019f9                boot_IspiTxDmaDone
                0xffffffff81e01a29                boot_IspiTxFinished
                0xffffffff81e01a55                boot_IspiGetData
                0xffffffff81e01a85                boot_IspiGetDataBuffer
                0xffffffff81e01af1                boot_IspiRxFifoLevel
                0xffffffff81e01b09                boot_IspiRxDmaDone
                0xffffffff81e01b39                boot_IspiForcePin
                0xffffffff81e01bcd                boot_IspiGetRxIfcTc
                0xffffffff81e01be4                g_bootIspiRomedCfg
                0xffffffff81e01c49                boot_UsbResetTransfert
                0xffffffff81e01c71                boot_UsbStartTransfert
                0xffffffff81e01d79                boot_UsbCancelTransfert
                0xffffffff81e01da1                boot_UsbContinueTransfert
                0xffffffff81e02311                boot_UsbInitVar
                0xffffffff81e02339                boot_UsbOpen
                0xffffffff81e02359                boot_UsbEpStall
                0xffffffff81e023e1                boot_UsbRecv
                0xffffffff81e02429                boot_UsbSend
                0xffffffff81e024a1                boot_UsbCompletedCommand
                0xffffffff81e024dd                boot_UsbEpEnableInterrupt
                0xffffffff81e0252d                boot_UsbEpRxTransferedSize
                0xffffffff81e02549                boot_UsbEpTransfertDone
                0xffffffff81e025f9                boot_UsbClose
                0xffffffff81e02635                boot_UsbReset
                0xffffffff81e02d9d                boot_UsbIrqHandler
                0xffffffff81e02fd1                boot_HostUsbDeviceCallback
                0xffffffff81e02fdd                boot_HostUsbUartDeviceCallback
                0xffffffff81e02fe9                boot_HostUsbClockEnable
                0xffffffff81e03021                boot_HostUsbClose
                0xffffffff81e03031                boot_HostUsbSend
                0xffffffff81e03169                boot_HostUsbEvent
                0xffffffff81e03621                boot_HostUsbRecv
                0xffffffff81e036b9                boot_HostUsbInit
                0xffffffff81e03719                boot_HostUsbOpen
                0xffffffff81e03788                boot_HostUsbInterface
                0xffffffff81e0385c                boot_romCsString
                0xffffffff81e03890                boot_romDT
                0xffffffff81e038a0                MutedFrame_AMR
                0xffffffff81e038a8                MutedFrame_HR
                0xffffffff81e038b8                MutedFrame_EFR
                0xffffffff81e038d8                MutedFrame_FR
                0xffffffff81e03901                atoi
                0xffffffff81e03941                bsearch
                0xffffffff81e039a0                _ctype
                0xffffffff81e03aa1                memchr
                0xffffffff81e03ae1                memcmp
                0xffffffff81e03b10                memcpy
                0xffffffff81e03e10                memcpyb
                0xffffffff81e03e41                memmove
                0xffffffff81e03f81                memscan
                0xffffffff81e03fa0                memset
                0xffffffff81e04341                qsort
                0xffffffff81e04371                strcat
                0xffffffff81e04391                strchr
                0xffffffff81e043c1                strrchr
                0xffffffff81e043e1                strcmp
                0xffffffff81e04421                strcpy
                0xffffffff81e04441                strcspn
                0xffffffff81e04481                strlen
                0xffffffff81e044a1                strnlen
                0xffffffff81e044c1                strncat
                0xffffffff81e04511                strncmp
                0xffffffff81e04551                strncpy
                0xffffffff81e04591                strnicmp
                0xffffffff81e04611                strsep
                0xffffffff81e04651                strspn
                0xffffffff81e04681                strstr
                0xffffffff81e046e1                strtok_r
                0xffffffff81e04761                strtok
                0xffffffff81e04781                strtol
                0xffffffff81e04941                strtoul

.ramtext        0xffffffff82001f00    0x15210 load address 0xffffffff8801cc40
 hex/gps/SW_V2131_csdk.elf(.ramtext)
 .ramtext       0xffffffff82001f00    0x15210 hex/gps/SW_V2131_csdk.elf
                0xffffffff82001f00                _ram_cached_txt_start
                0xffffffff82001f01                hal_AifSetSideTone
                0xffffffff82001f11                hal_AifStopPlay
                0xffffffff82001f59                hal_AifStopRecord
                0xffffffff82001fa1                hal_AifIrqHandler
                0xffffffff82002009                hal_AifPause
                0xffffffff8200202d                hal_AifTonePause
                0xffffffff82002051                hal_AifSideToneGainDb2Val
                0xffffffff82002071                hal_AifEnFMRecNewPath
                0xffffffff820022e9                clkInitAIF
                0xffffffff82002315                hal_AifTone
                0xffffffff820024ed                hal_AifRecordStream
                0xffffffff82002571                hal_AifPlayStream
                0xffffffff820025e5                hal_AifClose
                0xffffffff8200271d                hal_AifOpen
                0xffffffff820029b1                hal_AIFSetTxStb
                0xffffffff820029d9                hal_AnaGpadcSetCalibData
                0xffffffff82002a0d                hal_AnaGpadcSleep
                0xffffffff82002a99                hal_AnaGpadcGetRaw
                0xffffffff82002bd1                hal_AnaGpadcGpadc2Volt
                0xffffffff82002cc1                hal_AnaGpadcGet
                0xffffffff82002d29                hal_AnaGpadcWakeUp
                0xffffffff82002d39                hal_AnaGpadcClose
                0xffffffff82002d59                hal_AnaGpadcOpen
                0xffffffff82002da1                hal_ComregsSetSnapCfg
                0xffffffff82002db5                hal_ComregsIrqHandler
                0xffffffff82002e01                hal_ComregsXcpuIrqClearCause
                0xffffffff82002e39                hal_ComregsGetMask
                0xffffffff82002e9d                hal_ComregsSetIrqHandler
                0xffffffff82002ed5                hal_ConfigFmIo
                0xffffffff82002f89                hal_BoardSetupGeneral
                0xffffffff820031c9                hal_BoardSetup
                0xffffffff820031fd                hal_BoardConfigClk32k
                0xffffffff8200324d                hal_DbgSignalSpyCfg
                0xffffffff82003251                hal_DbgTriggerBcpuDebugIrq
                0xffffffff8200326d                hal_DbgFatalTrigger
                0xffffffff82003285                hal_DbgPalFillTrace
                0xffffffff82003301                hal_DbgPalFlushTrace
                0xffffffff820033c1                hal_DmaReadFcs
                0xffffffff820033e9                clkInitDMA
                0xffffffff82003415                hal_DmaIrqHandler
                0xffffffff82003451                hal_DmaStart
                0xffffffff82003511                hal_DmaFcsStart
                0xffffffff820035ed                hal_DmaGeaStart
                0xffffffff82003705                clkInitHOST_UART
                0xffffffff82003731                hal_HstRamClientIdle
                0xffffffff820038f5                clkInitPWM
                0xffffffff82003921                hal_PwmResourceMgmt
                0xffffffff82003989                hal_PwlSelLevel
                0xffffffff82003a31                hal_PwlGlow
                0xffffffff82003a85                hal_BuzzStop
                0xffffffff82003a9d                hal_BuzzStart
                0xffffffff82003b45                abb_SpiRegValueInit
                0xffffffff82003b61                abb_RegisterSpiRegCheckFunc
                0xffffffff82003b89                hal_AbbRegWrite
                0xffffffff82003bc1                hal_AbbRegRead
                0xffffffff82003c01                abb_SpiRegCheck
                0xffffffff82003cc1                hal_AbbIspiRead
                0xffffffff82003cd9                hal_SimGetRegConfig
                0xffffffff82003ce5                hal_SimGetRegClkDiv
                0xffffffff82003cf1                hal_SimGetRegTimes
                0xffffffff82003cfd                hal_SimGetRegChFilt
                0xffffffff82003d09                hal_SimGetRegIntMask
                0xffffffff82003d15                hal_SimGetRegIntCause
                0xffffffff82003d21                hal_SimGetRegRxCnt
                0xffffffff82003d2d                hal_SimGetRegStatus
                0xffffffff82003d39                hal_simParseReg
                0xffffffff82003d81                hal_SimUpdateDivider
                0xffffffff82003e65                hal_SimGetDataConvFormat
                0xffffffff82003e85                hal_SimSetDataConvFormat
                0xffffffff82003eb1                hal_SimRegReset
                0xffffffff82003ed1                hal_SimGetClkStatus
                0xffffffff82003ee5                hal_SimGetClkStopStatus
                0xffffffff82003f01                hal_SimEnableSci
                0xffffffff82003f25                hal_SimDisableSci
                0xffffffff82003f39                hal_SimPowerDown
                0xffffffff82003f55                hal_SimSetClockStopMode
                0xffffffff82003f8d                hal_SimSetWorkWaitingTime
                0xffffffff82003fb1                hal_SimSetEtuDuration
                0xffffffff82004045                hal_SimGetNumRxBytes
                0xffffffff82004051                hal_SimIrqSetHandler
                0xffffffff8200405d                hal_SimIrqSetMask
                0xffffffff82004091                clkInitSIM
                0xffffffff820040e1                hal_SimIrqHandler
                0xffffffff82004385                hal_SimDMAReleaseIFC
                0xffffffff820043ad                hal_SimDelayAfterEpps
                0xffffffff8200441d                hal_SimReset
                0xffffffff820044a5                hal_SimTxByteRxByte
                0xffffffff820045e5                hal_SimCheckClockStatus
                0xffffffff82004615                hal_SimOpen
                0xffffffff82004691                hal_SimDeactive
                0xffffffff820046f9                hal_hstTraceSetRxProc
                0xffffffff82004819                hal_HstTraceSetFnStamp
                0xffffffff82004819                hal_TraceDualSetFnStamp
                0xffffffff820048f9                hal_TraceDualDataFilled
                0xffffffff820048f9                hal_HstTraceDataFilled
                0xffffffff82004945                hal_TraceDualSetDdrEnabled
                0xffffffff82004945                hal_HstTraceSetDdrEnabled
                0xffffffff820049f1                hal_HstTraceIdleCheck
                0xffffffff820049f1                hal_TraceDualIdleCheck
                0xffffffff82004af9                hal_HstTraceSetTxEnabled
                0xffffffff82004af9                hal_TraceDualSetTxEnabled
                0xffffffff82004b4d                hal_TraceDualSetRxEnabled
                0xffffffff82004b4d                hal_HstTraceSetRxEnabled
                0xffffffff82004b59                hal_HstTraceTxFlush
                0xffffffff82004b59                hal_TraceDualTxFlush
                0xffffffff82004bcd                hal_TraceDualFetch
                0xffffffff82004bcd                hal_HstTraceFetch
                0xffffffff82004ca5                hal_TraceDualOpen
                0xffffffff82004ca5                hal_HstTraceOpen
                0xffffffff82004de9                hal_TraceDualRequestData
                0xffffffff82004de9                hal_HstTraceRequestData
                0xffffffff82004e61                hal_HstTraceOutput
                0xffffffff82004e61                hal_TraceDualOutput
                0xffffffff82004ec5                hal_TraceDualRequestDataTick
                0xffffffff82004ec5                hal_HstTraceRequestDataTick
                0xffffffff82004f4d                hal_SysStartBcpu
                0xffffffff82004f95                hal_SysDdrIsHighFreq
                0xffffffff82004fa1                hal_SysSetupSystemClock
                0xffffffff82004ffd                hal_SysGetThermal_cal
                0xffffffff8200501d                hal_SysClkInit
                0xffffffff82005041                hal_SysAuxClkOut
                0xffffffff82005081                hal_SysGetResetCause
                0xffffffff820050dd                hal_SysUsbHostEnable
                0xffffffff820050e9                hal_SysProcessHostMonitor
                0xffffffff8200511d                hal_Sys32kClkOut
                0xffffffff8200516d                hal_SysGetMetalId
                0xffffffff8200517d                hal_SysGetChipId
                0xffffffff8200518d                hal_SysInvalidateCache
                0xffffffff820051a9                hal_SysSetVocClock
                0xffffffff8200546d                hal_SysSetBBClock
                0xffffffff8200568d                hal_BootEnterMonitor
                0xffffffff820056c1                hal_SysShutdown
                0xffffffff82005709                hal_SysGetFreq
                0xffffffff8200575d                hal_SysRequestDdrHighFreq
                0xffffffff8200582d                hal_SysProcessIdle
                0xffffffff82005871                hal_SysSetActiveSimCount
                0xffffffff820058a1                hal_SysSetTcuWrapValue
                0xffffffff82005905                hal_CipherKcInit
                0xffffffff82005921                hal_DbgPxtsOpen
                0xffffffff820059d9                hal_DbgAssert
                0xffffffff82005a4d                hal_FintIrqSetHandler
                0xffffffff82005a59                hal_FintIrqSetMask
                0xffffffff82005a75                GPIO_GetConfig
                0xffffffff82005b01                GPIO_Close
                0xffffffff82005b29                GPIO_Get
                0xffffffff82005b59                GPIO_GetLevel
                0xffffffff82005b8d                GPIO_Set
                0xffffffff82005bc1                GPIO_SetLevel
                0xffffffff82005c05                GPIO_ChangeMode
                0xffffffff82005c45                GPIO_Init
                0xffffffff82005e79                hal_IspiUpdateDivider
                0xffffffff82005eb9                hal_IspiOpen
                0xffffffff82005f05                hal_LpsOpen
                0xffffffff82005f51                hal_LpsInvalidateCalib
                0xffffffff82005f61                hal_LpsForceOsTimAlignEnable
                0xffffffff82005f89                hal_LpsSetCallback
                0xffffffff82005f95                hal_LpsGetElapsedFrames
                0xffffffff82005fc5                hal_LpsFrameSkipping
                0xffffffff82005fe1                hal_LpsIrqHandler
                0xffffffff8200601d                hal_LpsReady
                0xffffffff82006091                hal_LpsSleep
                0xffffffff820061e1                hal_LpsSkipFrame
                0xffffffff820062f9                hal_LpsResumeFrame
                0xffffffff820063e9                hal_Open
                0xffffffff82006551                hal_RfspiClose
                0xffffffff8200656d                hal_RfspiGetStatus
                0xffffffff820065f9                hal_RfspiDigRfRead
                0xffffffff8200670d                hal_RfspiNewSingleCmd
                0xffffffff82006729                hal_RfspiImmReadWriteAvail
                0xffffffff82006769                hal_RfspiImmWrite
                0xffffffff82006a59                hal_RfspiIrqHandler
                0xffffffff82006a99                hal_RfspiUpdateDivider
                0xffffffff82006b25                hal_RfspiConfigure
                0xffffffff82006ca1                hal_RfspiSendCmd
                0xffffffff82006d25                hal_RfspiOpen
                0xffffffff82006d8d                hal_SpiClearRxDmaDone
                0xffffffff82006da1                hal_SpiClearTxDmaDone
                0xffffffff82006db5                hal_SpiClose
                0xffffffff820072e1                clkInitSPI2
                0xffffffff8200730d                clkInitSPI1
                0xffffffff82007339                hal_SpiIrqHandler
                0xffffffff820073c5                hal_SpiIrqSetMask
                0xffffffff82007461                hal_SpiIrqSetHandler
                0xffffffff820074c9                hal_SpiRxDmaDone
                0xffffffff82007571                hal_SpiTxFinished
                0xffffffff820075e9                hal_SpiTxDmaDone
                0xffffffff820076d5                hal_SpiUpdateDivider
                0xffffffff8200779d                hal_SpiUpdateAllDividers
                0xffffffff820077f1                hal_SpiOpen
                0xffffffff82007ccd                hal_SpiFlushFifos
                0xffffffff82007d05                hal_SpiGetData
                0xffffffff82007e0d                hal_SpiSendData
                0xffffffff82007f39                hal_SpiTxIfcChannelRelease
                0xffffffff82007f69                hal_SpiRxIfcChannelRelease
                0xffffffff82007f99                hal_SpiDeActivateCs
                0xffffffff820080d1                hal_SpiActivateCs
                0xffffffff82008361                SPI_FlushFIFOs
                0xffffffff82008389                SPI_ClearRxDmaDone
                0xffffffff820083b1                SPI_ClearTxDmaDone
                0xffffffff820083d9                SPI_IsRxDmaDone
                0xffffffff82008415                SPI_IsTxDmaDone
                0xffffffff82008451                SPI_IsTxDone
                0xffffffff8200848d                SPI_Read
                0xffffffff820084cd                SPI_Write
                0xffffffff8200850d                SPI_SetIrqMask
                0xffffffff82008581                SPI_SetIrqHandler
                0xffffffff820085e9                SPI_Close
                0xffffffff82008629                SPI_Init
                0xffffffff82008829                hal_SoftAbort
                0xffffffff82008848                sxr_TaskSetUp
                0xffffffff82008870                sxr_TaskFirst
                0xffffffff820088b4                sxr_JobSetUp
                0xffffffff820088e1                hal_IfcOpen
                0xffffffff820089e5                hal_IfcGetChannel
                0xffffffff82008a55                hal_IfcGetTc
                0xffffffff82008ab1                hal_IfcChannelIsFifoEmpty
                0xffffffff82008b11                hal_IfcChannelFlush
                0xffffffff82008b71                hal_IfcChannelRelease
                0xffffffff82008bcd                hal_IfcTransferStart
                0xffffffff82008d41                hal_TcuOpen
                0xffffffff82008d4d                hal_TcuStart
                0xffffffff82008d71                hal_TcuStop
                0xffffffff82008d89                hal_TcuGetCount
                0xffffffff82008d95                hal_TcuIrqSetHandler
                0xffffffff82008da9                hal_TcuIrqSetMask
                0xffffffff82008dd9                hal_TcuIrqHandler
                0xffffffff82008e5d                hal_TimWatchDogKeepAlive
                0xffffffff82008e79                hal_TimWatchDogClose
                0xffffffff82008e89                hal_TimTickIrqHandler
                0xffffffff82008ead                hal_TimTickGetVal
                0xffffffff82008eb9                hal_TimTickStart
                0xffffffff82008ed5                hal_TimTickIrqSetMask
                0xffffffff82008eed                hal_TimChangeExpirationTime
                0xffffffff82008f29                hal_TimGetElapsedTime
                0xffffffff82008f59                hal_TimSetExpirationTime
                0xffffffff82008fad                hal_TimTimersIrqHandler
                0xffffffff82008fbd                hal_TimeWdRecover
                0xffffffff82009011                hal_TimTickOpen
                0xffffffff82009055                hal_TickIrqHandler
                0xffffffff82009085                hal_TimWatchDogSetPeriod
                0xffffffff820090c1                hal_TimWatchDogOpen
                0xffffffff82009108                setjmp
                0xffffffff8200913c                longjmp
                0xffffffff82009194                pal_assert_string_0
                0xffffffff820091d0                pal_assert_string_1
                0xffffffff82009200                pal_assert_string_2
                0xffffffff82009220                pal_assert_string_3
                0xffffffff8200924c                pal_assert_string_4
                0xffffffff8200926c                pal_assert_string_5
                0xffffffff82009290                pal_assert_string_6
                0xffffffff820092ac                pal_assert_string_7
                0xffffffff820092cc                pal_assert_string_8
                0xffffffff820092e8                pal_assert_string_9
                0xffffffff82009314                pal_assert_string_13
                0xffffffff82009334                pal_assert_string_14
                0xffffffff82009354                pal_assert_string_15
                0xffffffff8200938c                pal_assert_string_16
                0xffffffff820093b0                pal_assert_string_17
                0xffffffff820093d8                pal_assert_string_18
                0xffffffff8200941c                palSizeFromCs
                0xffffffff82009420                palSizeFromCSD
                0xffffffff82009459                pal_RfWakeUp
                0xffffffff8200945d                palTimersSkippedUpdate
                0xffffffff820094d9                palWinInit
                0xffffffff82009509                palFrameInit
                0xffffffff82009561                pal_CalibGetDcOffset
                0xffffffff8200958d                pal_SetPcsFlag
                0xffffffff8200959d                pal_GetTriBandSearchSupport
                0xffffffff820095a9                pal_SetUSF
                0xffffffff820095ad                pal_EnableSaic
                0xffffffff820095d1                pal_LimitMaxTxPower
                0xffffffff820095e9                palHwInit
                0xffffffff82009711                palCommonInit
                0xffffffff820097d5                palSetRamps_calib
                0xffffffff82009b81                palStartBcpu
                0xffffffff82009c6d                pal_Sleep
                0xffffffff82009c81                pal_StopTch
                0xffffffff82009cc9                pal_SetTchLoop
                0xffffffff82009d15                pal_GetDtx
                0xffffffff82009d65                pal_SetDtx
                0xffffffff82009db1                pal_RetrieveCurrentAMRCfg
                0xffffffff82009e49                pal_ChangeTchMode
                0xffffffff82009f11                pal_StartTch
                0xffffffff82009fe5                pal_StopCiphering
                0xffffffff8200a025                pal_RxBufferCfg
                0xffffffff8200a0ed                pal_SetGsmCounters
                0xffffffff8200a159                pal_RfSleep
                0xffffffff8200a16d                pal_GetElapsedTime
                0xffffffff8200a1bd                pal_FintResume
                0xffffffff8200a221                pal_FintSuspend
                0xffffffff8200a2b1                pal_GprsCiphering
                0xffffffff8200a371                pal_StartCiphering
                0xffffffff8200a425                pal_CalibSetTxWin
                0xffffffff8200a569                pal_Initialisation
                0xffffffff8200a685                pal_SetUsrVectorMsk
                0xffffffff8200a6fd                pal_SetUsrVector
                0xffffffff8200a781                pal_Open
                0xffffffff8200ab4d                sxr_ReleaseMutex
                0xffffffff8200ac4d                sxr_TakeMutex
                0xffffffff8200acfd                sxr_InitQueue
                0xffffffff8200ad75                sxr_FreeQueueEnv
                0xffffffff8200ada1                sxr_QueueGetFirst
                0xffffffff8200adf1                sxr_QueueGetLast
                0xffffffff8200ae7d                sxr_QueueGetNext
                0xffffffff8200aefd                sxr_QueueGetCur
                0xffffffff8200af41                sxr_QueueGet
                0xffffffff8200afd5                sxr_QueueRmvFirst
                0xffffffff8200b04d                sxr_QueueGetCurPos
                0xffffffff8200b099                sxr_QueueSetCurPos
                0xffffffff8200b109                sxr_QueueGetLoad
                0xffffffff8200b121                sxr_QueueGetName
                0xffffffff8200b139                sxr_CheckQueue
                0xffffffff8200b261                sxr_CheckAllQueues
                0xffffffff8200b27d                sxr_QueueRmvCur
                0xffffffff8200b32d                sxr_QueuePurge
                0xffffffff8200b3c1                sxr_QueueRmv
                0xffffffff8200b42d                sxr_QueueRmvLast
                0xffffffff8200b4fd                sxr_FreeQueue
                0xffffffff8200b599                _sxr_NewQueue
                0xffffffff8200b6a1                _sxr_QueueSorted
                0xffffffff8200b779                _sxr_QueueNext
                0xffffffff8200b841                _sxr_QueueLast
                0xffffffff8200b889                _sxr_QueueFirst
                0xffffffff8200b90d                sxr_SbxHot
                0xffffffff8200b931                sxr_RmvTaskFromSbx
                0xffffffff8200b9a1                sxr_RmvMsgFromMbx
                0xffffffff8200bab5                sxr_RmvAllMsgFromMbx
                0xffffffff8200bb09                sxr_CheckMsgInMbx
                0xffffffff8200bba5                sxr_WakeupFirstTaskFromQueue
                0xffffffff8200bc09                sxr_TaskWaitToQueue
                0xffffffff8200bcf9                sxr_WaitEx
                0xffffffff8200c00d                sxr_Wait
                0xffffffff8200c025                sxr_TakeSemaphore
                0xffffffff8200c071                sxr_Send
                0xffffffff8200c2c9                sxr_ReleaseSemaphore
                0xffffffff8200c341                sxr_DeleteComplexTimer
                0xffffffff8200c4b1                sxr_DeleteTimer
                0xffffffff8200c4c9                _sxr_StopFunctionTimer
                0xffffffff8200c531                sxr_DeleteTimerEx
                0xffffffff8200c6a1                _sxr_StopFunctionTimer2
                0xffffffff8200c6d9                sxr_IsTimerSet
                0xffffffff8200c73d                sxr_NextTimerQuery
                0xffffffff8200c7dd                sxr_TimerQuery
                0xffffffff8200c881                sxs_ExistTimer
                0xffffffff8200c8a5                sxr_TimerExQuery
                0xffffffff8200c949                sxr_Tampax
                0xffffffff8200cb29                sxr_SetTimer
                0xffffffff8200cd51                sxr_StartMbxTimer
                0xffffffff8200cd75                _sxr_StartFunctionTimer
                0xffffffff8200cdd5                sxr_StopMbxTimer
                0xffffffff8200ce3d                sxs_StopAllTimer
                0xffffffff8200ce89                sxs_StopTimer
                0xffffffff8200ced5                sxs_StartTimer
                0xffffffff8200cf25                sxr_EnterScSchedule
                0xffffffff8200cf69                sxr_RmvFromSuspendedQueue
                0xffffffff8200cfe9                sxr_RunNextTask
                0xffffffff8200d141                sxr_SuspendTask
                0xffffffff8200d1e1                sxr_ScheduleIdle
                0xffffffff8200d2b5                sxr_ExitScSchedule
                0xffffffff8200d341                sxr_WakeUpTask
                0xffffffff8200d491                sxr_ResumeTask
                0xffffffff8200d4e1                sxr_StopTask
                0xffffffff8200d655                sxr_StartTask
                0xffffffff8200d70d                sxr_GenPrbs
                0xffffffff8200d749                _sxr_Random
                0xffffffff8200d7dd                sxr_ComputeFcsM
                0xffffffff8200d84d                sxr_ComputeMedian_u16
                0xffffffff8200d8cd                sxr_ComputeMedian_s16
                0xffffffff8200d955                sxr_Sleep
                0xffffffff8200d9f1                sxr_ComputeFcs
                0xffffffff8200da55                sxr_RandomInit
                0xffffffff8200da80                sxr_MsbToLsb
                0xffffffff8200db80                sxr_FcsTab
                0xffffffff8200df81                sxr_UsrMalloc
                0xffffffff8200e089                _sxr_UsrFree
                0xffffffff8200e159                sxs_SetTraceEnabled
                0xffffffff8200e165                sxs_Dump
                0xffffffff8200e381                sxs_vprintf
                0xffffffff8200e44d                sxs_fprintf
                0xffffffff8200e505                sxs_BackTrace
                0xffffffff8200e615                sxs_Raise
                0xffffffff8200e6d1                sxs_IoInit
                0xffffffff8200e6e8                sxs_Boot
                0xffffffff8200e6ed                sxr_GetActiveJob
                0xffffffff8200e6f9                sxr_GetJobState
                0xffffffff8200e715                sxr_NextFrameClear
                0xffffffff8200e7fd                JobSwap_SpyAfter
                0xffffffff8200e855                JobSwap_SpyBefore
                0xffffffff8200e8b1                sxr_ChkJob
                0xffffffff8200e9ed                sxs_CheckStkJb
                0xffffffff8200ea49                sxr_CheckJob
                0xffffffff8200ea8d                sxr_GetJobParam
                0xffffffff8200ead9                sxr_StartJob
                0xffffffff8200ec19                sxr_FreeJob
                0xffffffff8200ed2d                sxr_NewJob
                0xffffffff8200ee75                sxr_JbSdInit
                0xffffffff8200ef39                _sxr_NewHeap
                0xffffffff8200ef71                sxr_MemTrackAlloc
                0xffffffff8200efc5                sxr_MemTrackFree
                0xffffffff8200f01d                sxr_MemoryAlertDispatchRegistration
                0xffffffff8200f029                sxr_ChkHp
                0xffffffff8200f185                sxr_CheckCluster
                0xffffffff8200f235                sxr_GetRelativeRemainingSize
                0xffffffff8200f2d9                sxr_GetAbsoluteRemainingSize
                0xffffffff8200f365                sxr_NewCluster
                0xffffffff8200f451                sxr_MutexInit
                0xffffffff8200f485                sxr_ChkMutex
                0xffffffff8200f51d                sxr_CheckMutex
                0xffffffff8200f585                sxr_FreeMutex
                0xffffffff8200f609                sxr_NewMutex
                0xffffffff8200f671                sxs_RmcCtxInit
                0xffffffff8200f675                sxs_SetTraceLevel
                0xffffffff8200f695                sxs_InitRmc
                0xffffffff8200f6b9                sxs_PrcsRmtData
                0xffffffff8200f9d5                sxr_SbxInit
                0xffffffff8200fa5d                sxr_SetRmtMbx
                0xffffffff8200fa99                sxr_SetRxTxRmtMsg
                0xffffffff8200faad                sxr_SbxRxMsg
                0xffffffff8200fac9                sxr_GetSbxInfo
                0xffffffff8200fb55                sxr_ChkSbx
                0xffffffff8200fc15                sxr_CheckSbx
                0xffffffff8200fc31                sxr_FreeMailBox
                0xffffffff8200fc8d                sxr_FreeSemaphore
                0xffffffff8200fce5                sxr_NewMailBox
                0xffffffff8200fd49                sxr_NewSemaphore
                0xffffffff8200fda5                sxs_SpyEnable
                0xffffffff8200fdc1                sxs_UsrSpyEnable
                0xffffffff8200fdf5                sxs_SpyDispatchRegistration
                0xffffffff8200fe29                sxs_SpyData
                0xffffffff8201006d                sxr_CheckTimer
                0xffffffff82010121                sxr_InitTimer
                0xffffffff820101f9                sxr_TkSdInit
                0xffffffff82010255                sxr_GetCurrentTaskId
                0xffffffff82010275                sxr_GetCurrentTaskDesc
                0xffffffff82010295                sxr_SchedulingStarted
                0xffffffff820102e9                sxr_GetTaskName
                0xffffffff8201030d                sxr_GetTaskState
                0xffffffff82010325                sxr_GetStackMaxUsage
                0xffffffff82010361                sxr_GetTkPcInStack
                0xffffffff82010365                sxs_CheckPendingTk
                0xffffffff820103c9                sxr_ChkTask
                0xffffffff820104b5                sxs_CheckStkTk
                0xffffffff8201050d                sxr_CheckTask
                0xffffffff82010549                sxr_StartScheduling
                0xffffffff820105ad                sxr_FreeTask
                0xffffffff82010645                sxr_NewTask
                0xffffffff82010709                sxr_NewUsrCluster
                0xffffffff82010881                xcv_SetStableVolt
                0xffffffff82010885                rfd_XcvLimitMaxTxPower
                0xffffffff82010889                rfd_XcvGetAfcDacOffset
                0xffffffff820108a1                rfd_XcvGetCdacOffset
                0xffffffff820108ad                rfd_XcvSetAfcDacOffset
                0xffffffff820108bd                rfd_XcvSetCdacOffset
                0xffffffff820108c9                rfd_XcvFrameInit
                0xffffffff820108d9                rfd_XcvCalibGetDefault
                0xffffffff820108e5                rfd_XcvCalibUpdateValues
                0xffffffff820108e9                rfd_XcvCalibCalcAfcGain
                0xffffffff82010929                rfd_XcvCalibCalcAfcGainChangeDAC
                0xffffffff82010971                rfd_XcvCalibCalcAfcFreqChangeDAC
                0xffffffff82010991                rfd_XcvCalibSetILoss
                0xffffffff82010ab9                rfd_XcvCalibSetPaRamp
                0xffffffff82010add                rfd_XcvRegValueInit
                0xffffffff82010af9                rfd_RegisterXcvRegCheckFunc
                0xffffffff82010b25                rfd_XcvRegForceWriteSingle
                0xffffffff82010b61                rfd_XcvRegForceWrite
                0xffffffff82010b99                rfd_XcvGetParameters
                0xffffffff82010bfd                rfd_XcvRegForceRead
                0xffffffff82010c39                rfd_XcvRegCheckAll
                0xffffffff82010cd1                rfd_XcvRegCheck
                0xffffffff82010cf9                rfd_XcvCalibSetChangeDAC
                0xffffffff82010d35                rfd_XcvCalibSetAfcBoundChangeDAC
                0xffffffff82010dc9                rfd_XcvCalibSetAfcBound
                0xffffffff82010e65                rfd_XcvCalibXtalFreqOffset
                0xffffffff82010fd5                rfd_XcvCalibResetValues
                0xffffffff82011091                rfd_XcvOpen
                0xffffffff82011191                rfd_XcvReadChipId
                0xffffffff820111dd                rfd_XcvRfInit
                0xffffffff82011724                AgcTab_EGSM
                0xffffffff820118a4                AgcTab_DCS
                0xffffffff82011a24                xcv_calib_default
                0xffffffff82011bc1                rfd_PaGetParameters
                0xffffffff82011bcd                rfd_SwGetParameters
                0xffffffff82011bd9                rfd_SwOpen
                0xffffffff82011bdd                rfd_PaCalibGetDefault
                0xffffffff82011be9                rfd_PaCalibUpdateValues
                0xffffffff82011bed                rfd_PaCalibResetValues
                0xffffffff82011bf9                rfd_SwCalibGetDefault
                0xffffffff82011c05                rfd_SwCalibUpdateValues
                0xffffffff82011c09                rfd_SwCalibResetValues
                0xffffffff82012045                rfd_PaCalibPaProfile
                0xffffffff820122d9                rfd_PaCalibfastPaProfile
                0xffffffff82012501                rfd_PaCalibInit
                0xffffffff82012569                rfd_PaOpen
                0xffffffff82012580                pa_default_calib
                0xffffffff820137ac                sw_default_calib
                0xffffffff8201382d                pmd_TemperatureVolt2Degree
                0xffffffff8201384d                pmd_GetHighActivityVoltOffset
                0xffffffff820138cd                pmd_ChargerSmallCurrent
                0xffffffff820138f1                pmd_SetChargerVfb
                0xffffffff82013965                pmd_ChargerSetBgLpMode
                0xffffffff82013a4d                pmd_PmuChargerPlugout
                0xffffffff82013a69                pmd_PmuChargerPlugin
                0xffffffff82013a85                pmd_GetChargerHwStatus
                0xffffffff82013ab1                pmd_ForceChargerFinished
                0xffffffff82013afd                pmd_PmuSetChargeCurrent
                0xffffffff82013b9d                pmd_GetGpadcChargerLevel
                0xffffffff82013bd1                pmd_GetGpadcTemperatureLevel
                0xffffffff82013bed                pmd_GetGpadcTemperatureSW
                0xffffffff82013c61                pmd_PmuInitCharger
                0xffffffff82013e05                pmd_RestoreChargerAtPowerOff
                0xffffffff82013e38                gc_pmdChargerProcCfg
                0xffffffff82013e48                gc_pmdChargerProcOps
                0xffffffff82013e81                pmd_IsOpen
                0xffffffff82013e8d                pmd_SetPowerMode
                0xffffffff82013e91                pmd_EnableClk4mAvdd3InLpMode
                0xffffffff82013ee9                pmd_ConfigureRfLowPower
                0xffffffff82013f0d                pmd_GetCoreVoltageRequest
                0xffffffff82013f19                pmd_GetBatteryGpadcChannel
                0xffffffff82013f29                pmd_GetScreenAntiFlickerVolt
                0xffffffff82013f51                pmd_SpeakerPaCpLowOutput
                0xffffffff82013f5d                pmd_IsSpeakerDouble
                0xffffffff82013f61                pmd_TsdTscEnabled
                0xffffffff82013f71                pmd_SpiRegValueInit
                0xffffffff82013f8d                pmd_GetEarpieceGpadcChannel
                0xffffffff82013f9d                pmd_GpadcChannelEnabled
                0xffffffff82013fc5                pmd_SetAuxClockStatusHandler
                0xffffffff82013fd1                pmd_EarDetectDelay
                0xffffffff8201403d                pmd_EarDetectHandler
                0xffffffff820140cd                pmd_RegisterSpiRegCheckFunc
                0xffffffff82014111                pmd_RDAWrite
                0xffffffff8201412d                pmd_GpadcDisable
                0xffffffff82014165                pmd_GpadcEnableChannel
                0xffffffff820141b5                pmd_GpadcSetInterval
                0xffffffff820141f9                pmd_ResetTouch
                0xffffffff82014255                pmd_SpeakerPaRestoreMode
                0xffffffff820142b5                pmd_EnableScreenAntiFlicker
                0xffffffff8201431d                pmd_SetMmcVoltage
                0xffffffff82014365                pmd_TsdEnableTsc
                0xffffffff820143ad                pmd_SpeakerPaPostEnable
                0xffffffff820143d5                pmd_SpeakerPaPreEnable
                0xffffffff82014401                pmd_InitSpeakerPa
                0xffffffff8201443d                pmd_SetVa24Buck2Voltage
                0xffffffff8201446d                pmd_InitCoreVoltage
                0xffffffff8201447d                pmd_RegHpDetectSettingSet
                0xffffffff820144c5                pmd_RegIrqSettingClr
                0xffffffff82014501                pmd_IrqHandler
                0xffffffff82014531                pmd_SpiRegCheck
                0xffffffff820145b1                pmd_InitTouchScreen
                0xffffffff820146c5                pmd_SpeakerPaSelectChannel
                0xffffffff820147c1                pmd_EnableOpalLdo
                0xffffffff82014951                pmd_InitRdaPmu
                0xffffffff82014ad5                pmd_SetCoreVoltageDelayed
                0xffffffff82014af5                pmd_SetLevel
                0xffffffff82014e89                pmd_FourSimSetVoltageClass
                0xffffffff82015029                pmd_EnablePower
                0xffffffff820151cd                pmd_UsbDownloadByMicDetect
                0xffffffff820152a5                pmd_SelectSimCard
                0xffffffff8201533d                pmd_Open
                0xffffffff82015671                __pack_f
                0xffffffff82015735                __pack_d
                0xffffffff820158d9                __unpack_f
                0xffffffff82015955                __unpack_d
                0xffffffff82015b41                __subsf3
                0xffffffff82015b85                __addsf3
                0xffffffff82015bc1                __mulsf3
                0xffffffff82015cbd                __gtsf2
                0xffffffff82015d01                __gesf2
                0xffffffff82015d45                __ltsf2
                0xffffffff82015d89                __floatsisf
                0xffffffff82015de5                __extendsfdf2
                0xffffffff82015e10                __thenan_sf
                0xffffffff82016089                __subdf3
                0xffffffff820160d1                __adddf3
                0xffffffff82016111                __muldf3
                0xffffffff820162c9                __divdf3
                0xffffffff82016401                __eqdf2
                0xffffffff82016449                __nedf2
                0xffffffff82016491                __gtdf2
                0xffffffff820164d9                __gedf2
                0xffffffff82016521                __ltdf2
                0xffffffff82016569                __ledf2
                0xffffffff820165b1                __floatsidf
                0xffffffff82016629                __make_dp
                0xffffffff82016649                __truncdfsf2
                0xffffffff82016688                __thenan_df
                0xffffffff820166a1                __floatunsidf
                0xffffffff82016739                __fpcmp_parts_f
                0xffffffff8201679d                __make_fp
                0xffffffff820167b5                __fpcmp_parts_d
                0xffffffff8201682d                __unorddf2
                0xffffffff8201685d                __lshrdi3
                0xffffffff82016899                __ashldi3
                0xffffffff820168d9                __fixunsdfsi
                0xffffffff82016929                __divdi3
                0xffffffff82016cf1                __udivdi3
                0xffffffff8201706d                __fixdfsi
                0xffffffff820170d1                __clzsi2

.section_init   0xffffffff88240000       0x10
 hex/gps/gps.elf(.section_init)
 .section_init  0xffffffff88240000       0x10 hex/gps/gps.elf

.bbsram         0xffffffff81980000     0x1e00
 hex/gps/SW_V2131_csdk.elf(.bbsram)
 .bbsram        0xffffffff81980000     0x1e00 hex/gps/SW_V2131_csdk.elf
                0xffffffff81980000                g_spcItlvBufTabSaic
                0xffffffff81980000                _bb_sram_romed_cached_start
                0xffffffff81980a00                g_spcItlvBufTab
                0xffffffff81981920                _bb_sram_romed_itlv_buf_end
                0xffffffff81981920                g_spcCtxStruct

.sramdata       0xffffffff81c08600      0x4c0 load address 0xffffffff8801b0c0
 hex/gps/SW_V2131_csdk.elf(.sramdata)
 .sramdata      0xffffffff81c08600      0x4c0 hex/gps/SW_V2131_csdk.elf
                0xffffffff81c08600                _sys_sram_data_start
                0xffffffff81c088f8                g_SwTcuCfg
                0xffffffff81c088fc                g_paParams
                0xffffffff81c0890c                g_swParams
                0xffffffff81c0891c                g_TxRxSwTcuVal
                0xffffffff81c08934                SW
                0xffffffff81c08938                g_paCalibPtr
                0xffffffff81c0893c                XCV
                0xffffffff81c08940                g_xcvChipId
                0xffffffff81c08944                g_AfcOffset
                0xffffffff81c08948                g_dcoffsetflag
                0xffffffff81c0894c                g_afcDacVal
                0xffffffff81c0894e                rxTxTimeOffset
                0xffffffff81c08950                g_CdacDelta
                0xffffffff81c08954                g_lastSleepMode
                0xffffffff81c08958                g_xcvCalibPtr
                0xffffffff81c0895c                g_xcvCmdCtx
                0xffffffff81c08968                g_xcvCalibSetPaRamp
                0xffffffff81c08969                g_xcvCalibPaOffset
                0xffffffff81c0896c                g_tempgpadcvalue
                0xffffffff81c08978                g_RxPllFreqReg_05h
                0xffffffff81c0897c                g_bandwideVal
                0xffffffff81c08980                g_xcvParams
                0xffffffff81c089ac                g_CDAC
                0xffffffff81c089b0                g_xcvCalibPaRampValue
                0xffffffff81c089b8                magnitude
                0xffffffff81c089e0                pal_fch_sync_max_attempt
                0xffffffff81c089e4                g_palCtx
                0xffffffff81c08aa0                g_palDebug

.srambss        0xffffffff81c09670       0x70
 hex/gps/SW_V2131_csdk.elf(.srambss)
 .srambss       0xffffffff81c09670       0x70 hex/gps/SW_V2131_csdk.elf
                0xffffffff81c09670                g_halTraceDualCtx

.bss            0xffffffff8207af60    0x35ce0
 hex/gps/SW_V2131_csdk.elf(.bss)
 .bss           0xffffffff8207af60    0x35ce0 hex/gps/SW_V2131_csdk.elf
                0xffffffff8207af60                g_halLpsSleptBefore
                0xffffffff8207af61                g_halSysLpsLock
                0xffffffff8207af64                g_halCalibration
                0xffffffff8207afd4                g_halSpeechMutedCount
                0xffffffff8207afe8                g_halSpeechFifo
                0xffffffff8207b198                g_halModuleIfcChannelDebug
                0xffffffff8207b298                g_halModuleIfcChannelDebugPos
                0xffffffff8207b2a4                g_halTraceRxCtx
                0xffffffff8207b30c                g_palCalibration
                0xffffffff8207b310                g_palHandlers
                0xffffffff8207b31c                g_Calib_OnSite
                0xffffffff8207b31e                g_pmdMuteSpk
                0xffffffff8207b3c4                g_pmdConfig
                0xffffffff8207b3d2                g_usbCharging
                0xffffffff8207b450                sxs_usrInitTaskId
                0xffffffff8207b454                sxs_CmnTaskId
                0xffffffff8207b47c                pSimCtx
                0xffffffff8207b480                sim_Data
                0xffffffff8207b788                g_Semaphore
                0xffffffff8207b78c                Usim_ADNAddress
                0xffffffff8207b94c                Usim_ADNPath
                0xffffffff8207bbf0                WaitSwTimer
                0xffffffff8207bbf4                g_sim_present
                0xffffffff8207bbf8                Dummy_AD_BinaryData
                0xffffffff8207bc00                sm_Data
                0xffffffff8207bc98                psm_Data
                0xffffffff8207bc9c                sm_TabMobileOrgTI
                0xffffffff8207bcdc                sm_TabNetworkOrgTI
                0xffffffff8207bd1c                SMS_debug_buffer_index
                0xffffffff8207bde0                gp_smsCurData
                0xffffffff8207bde4                SMS_debug_buffer
                0xffffffff8207be34                snd_Data
                0xffffffff8207bf0c                pSndCtx
                0xffffffff8207bf38                gp_ssCurData
                0xffffffff8207bf40                sxr_QueueDesc
                0xffffffff8207d5c0                sxr_QueueEnv
                0xffffffff8207e560                sxr_QueueFreeDesc
                0xffffffff8207e562                sxr_QueueFreeEnv
                0xffffffff8207e564                sxr_SemaInfo
                0xffffffff8207e6bc                g_sxsFsIdleHookFuncPtr
                0xffffffff8207e6c0                g_sxsDebugIdleHookElem
                0xffffffff8207e6e8                g_sxRaiseTime
                0xffffffff8207e6f0                sxs_IoCtx
                0xffffffff8207e734                sxr_Job
                0xffffffff8207e738                sxr_Heap
                0xffffffff8207e850                sxr_Cluster
                0xffffffff8207e930                sxr_NbCluster
                0xffffffff8207e934                sxr_MemoryAlert
                0xffffffff8207e93c                sxr_MemTracker
                0xffffffff8207ef44                sxr_Mutex
                0xffffffff8207ef78                sxr_Sbx
                0xffffffff820824f0                sxs_Spy
                0xffffffff820825f8                sxr_TCtx
                0xffffffff82082620                sxr_TEnv
                0xffffffff820835c4                sxr_Task
                0xffffffff82083b70                g_uat_stran_callbck
                0xffffffff82083bb4                gpf_uflash_write_block
                0xffffffff82083bb8                gpf_uflash_read_block
                0xffffffff82083bd0                g_umss_flash_handler
                0xffffffff82083c98                g_vppMicNoiseSuppressRAMX
                0xffffffff82085bd8                g_vppReceiverNoiseSuppressRAMX
                0xffffffff82087b18                g_vppAecRAMX
                0xffffffff82089648                g_vppMicAgcRAMX
                0xffffffff82089a30                g_vppReceiverAgcRAMX
                0xffffffff82089e18                g_vppSpeechCode
                0xffffffff8208c398                g_vppSpeechRAMX
                0xffffffff8208f278                g_api_rr_task_started
                0xffffffff8208f280                apiData
                0xffffffff8208f2d8                pAPIData
                0xffffffff8208f2dc                watchdogDoNotFeedInIdle
                0xffffffff8208f2e0                g_audCodecGalliteAifCfg
                0xffffffff8208f2f4                g_audSetHeadMaxDigitalGain
                0xffffffff8208f2f5                g_audSetMicMaxGain
                0xffffffff8208f318                g_BalFlashInitProgramDone
                0xffffffff8208f31c                g_BalTasks
                0xffffffff8208f32c                g_PreKeyCode
                0xffffffff8208f3d8                g_calibUsedOpInfo
                0xffffffff8208f3e0                g_calibUsedXcv
                0xffffffff8208f488                g_calibUsedPa
                0xffffffff820906b4                g_calibUsedBb
                0xffffffff82091040                g_calibUsedIIR
                0xffffffff82091130                g_calibUsed_audio_voc
                0xffffffff82092790                g_calibUsed_audio_music
                0xffffffff82092fa8                gp_cb_Data
                0xffffffff8209300c                gp_ccCurData
                0xffffffff82093184                g_CfwNVInfo
                0xffffffff82093188                g_CfwNv
                0xffffffff82093b28                nQueueid
                0xffffffff82093b2c                g_CosBaseAdd
                0xffffffff82093b30                g_CswBaseAdd
                0xffffffff82093b34                g_CosHeapSize
                0xffffffff82093b38                g_CswHeapSize
                0xffffffff82093b3c                g_CswMallocNum
                0xffffffff82093b40                g_CosMallocNum
                0xffffffff82093b4c                g_hCosMmiTask
                0xffffffff82093b50                g_hCosATTask
                0xffffffff82093b54                Playstate
                0xffffffff82093b58                PlayLenTemp
                0xffffffff82093b5c                BzPlayState
                0xffffffff82093b60                g_VIBRATING_state
                0xffffffff82093b64                g_FLASH_state
                0xffffffff82093b68                gmycallback
                0xffffffff82093b6c                PlayLen
                0xffffffff82093b70                BzDuration
                0xffffffff82093b74                BzBuffer
                0xffffffff82093b78                g_KeyBoard_Init_Status
                0xffffffff82093b79                Play_music
                0xffffffff82093b7a                audioBusy
                0xffffffff82093b7c                g_playToneAudioTempTime
                0xffffffff82093b80                isSPKMute
                0xffffffff82093b84                term_num
                0xffffffff82093b88                audioItf
                0xffffffff82093b8c                audioItfBackup
                0xffffffff82093b90                g_audioRecBufStart
                0xffffffff82093b94                g_audioRecBufLen
                0xffffffff82093b98                g_audioRecBufOffset
                0xffffffff82093b9c                gSpeakerOpen_stasus
                0xffffffff82093b9d                gMicOpen_stasus
                0xffffffff82093b9e                Speeching
                0xffffffff82093ba0                DTMF_duration
                0xffffffff82093ba2                short_time_keytone
                0xffffffff82093bbc                g_spk_gain
                0xffffffff82093bc0                cii_currentDTMF
                0xffffffff82093bcc                g_powerdown_cause
                0xffffffff82093bd0                g_gpioDirection
                0xffffffff82093cd0                g_padac_state
                0xffffffff82093df8                g_xcvRfIniting
                0xffffffff82093df9                gbw
                0xffffffff82093dfa                xtal_state
                0xffffffff82093dfc                g_rfdXcvRegForceWriteError
                0xffffffff82093e00                g_rfdXcvRegForceReadError
                0xffffffff82093e14                g_pDevDescrip
                0xffffffff82093e18                g_iDevDescripCount
                0xffffffff82093e1c                g_pDsmDevInfo
                0xffffffff82093e20                g_iDsmDevCount
                0xffffffff82093e24                g_hDevSem
                0xffffffff82093e28                dtmf_frame_count
                0xffffffff82094d44                DecoderBuffer
                0xffffffff82095704                g_fs_current
                0xffffffff82095998                g_fs_super_block_table
                0xffffffff8209599c                g_fs_file_list
                0xffffffff820959a0                g_pFsDevInfo
                0xffffffff820959a4                g_tstFsLocalErrCode
                0xffffffff820959b1                g_GpdacBusy
                0xffffffff820959e0                g_clk_sw
                0xffffffff820959ec                g_halCfg
                0xffffffff820959f0                g_halDbgPalTrc
                0xffffffff820960f8                g_halDmaUserId
                0xffffffff820960fc                g_halDmaMode
                0xffffffff82096100                g_halDmaRegistry
                0xffffffff820963cc                l1_Sapi0FacchQueue
                0xffffffff820963cd                l1_Sapi3Queue
                0xffffffff820963d0                l1_Sapi0SacchPtr
                0xffffffff820963d4                l1_PCtrlQueue
                0xffffffff820963d5                l1_PDataQueue
                0xffffffff820963d8                l1_PacketMeasurementReportPtr
                0xffffffff820963dc                l1_Ctx
                0xffffffff82096e50                SlicedCell
                0xffffffff82096e54                g_StoredAfcOffset
                0xffffffff82096e56                SpeedupNearList
                0xffffffff82096e58                DlPollingRsp
                0xffffffff82096e5c                g_NBurstRxWin
                0xffffffff82096e6c                lap_Data
                0xffffffff82096f9c                pLapCtx
                0xffffffff82096fa0                lap_SapiIdx
                0xffffffff82097394                llc_Data
                0xffffffff82097434                pLLCCtx
                0xffffffff820974a0                g_flash_cache
                0xffffffff820994bc                g_Flag
                0xffffffff820994c0                g_Character
                0xffffffff820994e8                mmCtx
                0xffffffff820996d8                pMMCtx
                0xffffffff820996dc                mmDulCtx
                0xffffffff820996e1                g_fcch_detect_mode
                0xffffffff820996e4                g_palDC
                0xffffffff8209976c                g_palFrame
                0xffffffff82099874                FcchWin
                0xffffffff820998bc                g_SimIndex
                0xffffffff820998c0                g_palEtuParaF
                0xffffffff820998c8                g_palEtuParaD
                0xffffffff820998cc                g_palSimClkStopMode
                0xffffffff82099978                rld_Data
                0xffffffff820999e0                pRLDCtx
                0xffffffff820999e4                rlu_Data
                0xffffffff82099b04                pRLUCtx
                0xffffffff82099b08                rr_Data
                0xffffffff8209c1b0                pRRCtx
                0xffffffff8209c1b4                psap_StackCfg
                0xffffffff8209c1b8                ZhiBoXing
                0xffffffff8209c1b9                UsfGran
                0xffffffff8209c1bc                sap_StackCfg
                0xffffffff8209c26c                sap_StackDynCfg
                0xffffffff8209c270                g_sms_dm_nv
                0xffffffff820a0b1c                g_SMS_DM_InitFlag
                0xffffffff820a0b20                g_SMS_DM_Sem
                0xffffffff820a0b28                sxr_UsrCluster
                0xffffffff820a0ca8                sxr_NbUsrCluster
                0xffffffff820a0cac                g_timer_list
                0xffffffff820a0cb0                errno
                0xffffffff820a0cbc                gCSWPowerOnTime
                0xffffffff820a0cc0                G_TM_Parameters
                0xffffffff820a0ccc                TIM_Glo_Infor_Buf
                0xffffffff820a0f88                TIM_LastErrorCode
                0xffffffff820a1090                g_UctlsStatus
                0xffffffff820a10a0                g_cachenode
                0xffffffff820a12c0                g_tst_erase_suspend_count
                0xffffffff820a12c4                g_pGcBuff
                0xffffffff820a22c4                g_VDS_partition_table
                0xffffffff820a2594                g_vds_partition_count
                0xffffffff820a2598                g_psSectRef
                0xffffffff820a259c                g_psRemainRef
                0xffffffff820a25a0                g_sFlashInfo
                0xffffffff820a25b0                g_tstVdsErrCode
                0xffffffff820a25b4                g_iFlushAllowed
                0xffffffff820a25b8                g_iVdsCacheHasInited
                0xffffffff820a2638                g_msdfReload
                0xffffffff820a263c                g_MIXVOICE_TYPE
                0xffffffff820a2640                g_MIXVOICE_Handler
                0xffffffff820a2644                g_AGCEnbleFlag
                0xffffffff820a2648                g_SpkLevel
                0xffffffff820a264c                g_AudInterface
                0xffffffff820a2650                g_VoCRunFlag
                0xffffffff820a2710                g_RxBuf
                0xffffffff820a2990                g_TxBuf
                0xffffffff820a2c10                g_curSeqPos
                0xffffffff820a2c14                sinvalue_1
                0xffffffff820a2c1c                sinvalue_2
                0xffffffff820a2c24                g_DtmfGenState
                0xffffffff820a2c28                g_DtmfgenHandler
                0xffffffff820a2c2c                sinparam_1
                0xffffffff820a2c34                sinparam_2
                0xffffffff820a2ca4                api_MsNwkCap
                0xffffffff820a2cb8                api_MsRACap
                0xffffffff820a2d20                api_LenMsRACap
                0xffffffff820a2d24                g_htstVdsTask
                0xffffffff820a2d28                handleApiTask
                0xffffffff820a2d2c                handleMainTask
                0xffffffff820a2d30                isCfwInitComplete
                0xffffffff820a2d34                apiPlatformInitStatus
                0xffffffff820a2d38                aaaaaaaaaaaaaaaaaaaaaaaaaaaaaa
                0xffffffff820a2d3c                isCfwInitCompleteBefore
                0xffffffff820a2d4c                semDeleteMessage
                0xffffffff820a2d50                isDeleteSuccess
                0xffffffff820a2e54                socketIsUdpOrTcp
                0xffffffff820a2e68                socketDestPort
                0xffffffff820a2eb8                socketDestIp
                0xffffffff820a3090                g_arsPcmBuf
                0xffffffff820a3338                g_trace_Data
                0xffffffff820a333c                g_tracefileHandle
                0xffffffff820a3344                g_calibStubLocalCtx
                0xffffffff820a38d4                CSN1Action_cc_852952723_Actions
                0xffffffff820a38d8                g_aom_sem
                0xffffffff820a38dc                CFW_Sys_Default_Proc
                0xffffffff820a3924                AO_GoOnStatus
                0xffffffff820a392c                AO_ControlBlock
                0xffffffff820a3fa8                SIMOCStatus
                0xffffffff820a3fb0                g_CFWStartStopStackFlag
                0xffffffff820a3fc0                IndEventInfo
                0xffffffff820a3fc8                gprs_sum
                0xffffffff820a3fd8                g_SmsFormat_Sim0
                0xffffffff820a3fd9                g_SmsFormat_Sim1
                0xffffffff820a3fda                g_SmsFormat_Sim2
                0xffffffff820a3fdb                g_SmsFormat_Sim3
                0xffffffff820a3fdc                g_SmsShowTextMode_Sim0
                0xffffffff820a3fdd                g_SmsShowTextMode_Sim1
                0xffffffff820a3fde                g_SmsShowTextMode_Sim2
                0xffffffff820a3fdf                g_SmsShowTextMode_Sim3
                0xffffffff820a4020                PdpContList
                0xffffffff820a4058                DnsServerIP
                0xffffffff820a40c8                store_packet_head
                0xffffffff820a40cc                store_packet_end
                0xffffffff820a40d0                store_packet_cnt
                0xffffffff820a40d4                start_gprsDetach_timer
                0xffffffff820a4118                gprs_flow_ctrl
                0xffffffff820a4128                pQosList
                0xffffffff820a4198                CurAppCng
                0xffffffff820a41a8                GprsCidSavedInApp
                0xffffffff820a41ac                IPAddress
                0xffffffff820a41b0                gCOMMMode
                0xffffffff820a41b8                gbLockBCCH
                0xffffffff820a41c4                gCSDelayInfo
                0xffffffff820a41ec                g_NW_IND
                0xffffffff820a41f0                g_IMSI_INIT
                0xffffffff820a41f4                g_CFW_PowerOn
                0xffffffff820a41f8                g_SAT_IND
                0xffffffff820a41fc                g_SAT_INIT_COMPLETE
                0xffffffff820a4200                g_TestMode_AutoResponse
                0xffffffff820a4208                g_TestMode_AutoEMCDial
                0xffffffff820a4210                g_TestMode_AutoEMCDialNum
                0xffffffff820a4218                g_SMSPInfo
                0xffffffff820a424c                g_SimInit1Status
                0xffffffff820a4254                g_SimInit2Status
                0xffffffff820a425c                g_SimInit3Status
                0xffffffff820a4264                g_SimInit3Status_p2
                0xffffffff820a426c                bSatSimInit
                0xffffffff820a428c                gSimStage3Finish
                0xffffffff820a4290                g_cfw_sim_status
                0xffffffff820a4294                g_cfw_sim_adn_status
                0xffffffff820a4298                gSPNInfo
                0xffffffff820a42c0                nICCID
                0xffffffff820a42d4                gTestSim
                0xffffffff820a42dc                ADNInfo
                0xffffffff820a42ec                gUsimAid
                0xffffffff820a4310                gUsimLabel
                0xffffffff820a4358                gUsimEfStatus
                0xffffffff820a4368                gUsimPin
                0xffffffff820a44a8                DIR_RECORD_NUM
                0xffffffff820a44ac                DIR_CURRENT_NUM
                0xffffffff820a44b0                Sim_Lp
                0xffffffff820a44b8                gSimDropInd
                0xffffffff820a44bc                nECC_Code
                0xffffffff820a44cc                nUsimECC_Code
                0xffffffff820a44e0                g_GETIMSI
                0xffffffff820a44e4                nCommondNum
                0xffffffff820a456c                gSatFreshComm
                0xffffffff820a4570                gSATTimerValue
                0xffffffff820a45b8                cbCtx
                0xffffffff820a468c                gCbReadFile
                0xffffffff820a46a0                gpLongerMsgPara
                0xffffffff820a46a4                gpLongerMsgParaIndex
                0xffffffff820a46a8                gPendingNewSms
                0xffffffff820a46ac                gNewSMSInd
                0xffffffff820a46b4                g_SMSConcat
                0xffffffff820a476c                g_consumers
                0xffffffff820a486c                DataCSN1Context
                0xffffffff820a699c                g_sd_sleepIn
                0xffffffff820a73c8                g_FatCache
                0xffffffff820a73cc                g_FatCahcheNum
                0xffffffff820a73d0                g_TstFsErrCode
                0xffffffff820a73d4                gAifClk
                0xffffffff820a73f4                ip_data
                0xffffffff820a7494                l1_SavedPsDataReqMsg
                0xffffffff820a74e0                audio_mode
                0xffffffff820a74e8                CSN1Action_mm_852952723_Actions
                0xffffffff820a74ec                gnMmcMode
                0xffffffff820a74f0                gAudio
                0xffffffff820a750c                gRecord
                0xffffffff820a7524                ev
                0xffffffff820a7534                ev_play
                0xffffffff820a7544                g_AMRConsumedLength
                0xffffffff820a7548                g_AMRFILESIZE
                0xffffffff820a7560                amr_pcmbuf_overlay
                0xffffffff820a8960                AmrPlayer
                0xffffffff820a89a8                g_ConsumedLength
                0xffffffff820a89ac                g_AudioMode
                0xffffffff820a89b0                g_AudioSeekFlag
                0xffffffff820a89b4                g_MPEGFILESIZE
                0xffffffff820a89b8                G_VppSBCConstY
                0xffffffff820a89d8                MpegPlayer
                0xffffffff820a8a70                g_WAVConsumedLength
                0xffffffff820a8a74                data_size
                0xffffffff820a8a78                G_WavSBCConstY
                0xffffffff820a8acc                WavPlayer
                0xffffffff820a8b78                a2dp_sbc_strm
                0xffffffff820a8b84                g_calibEquRdyFlag
                0xffffffff820a8b85                FINT_counter
                0xffffffff820a8c58                neighbor_cache
                0xffffffff820a8e10                destination_cache
                0xffffffff820a8ff0                prefix_list
                0xffffffff820a907c                default_router_list
                0xffffffff820a91dc                h_errno
                0xffffffff820a91e4                netif_list
                0xffffffff820a91e8                netif_default
                0xffffffff820a91ec                isPppActived
                0xffffffff820a91f0                g_ppp_ctx
                0xffffffff820a9210                pbuf_free_ooseq_pending
                0xffffffff820a9220                IsPUlAss
                0xffffffff820a9224                ED_RR_P
                0xffffffff820a9244                ED_RR_Q
                0xffffffff820a9264                CSN1Action_rrd_852952723_Actions
                0xffffffff820a92f0                g_MallocedCount
                0xffffffff820a92f4                g_Malloced_p
                0xffffffff820a9ac8                tcp_ticks
                0xffffffff820a9acc                tcp_active_pcbs_changed
                0xffffffff820a9ad0                tcp_bound_pcbs
                0xffffffff820a9ad4                tcp_listen_pcbs
                0xffffffff820a9ad8                tcp_active_pcbs
                0xffffffff820a9adc                tcp_tw_pcbs
                0xffffffff820a9b18                tcp_input_pcb
                0xffffffff820a9b1c                udp_pcbs
                0xffffffff820a9b20                G_Mp3DRCHistoryBuf
                0xffffffff820aae40                vpp_AudioJpegDecVocOpen_status
                0xffffffff820aae48                sndRecBuffer
                0xffffffff820aae4c                sndRecRingBuffer
                0xffffffff820aae50                sndRecBufferLength
                0xffffffff820aae54                rec_audioItf
                0xffffffff820ab12c                pNetworkCallback
                0xffffffff820ab130                pdpContextId
                0xffffffff820ab1fc                g_location
                0xffffffff820ab26c                isAutoUpdateRtcTime
                0xffffffff820ab3e0                g_hAsynFsTask
                0xffffffff820ab428                irqParamArray
                0xffffffff820ab4b4                spi1IrqHandler
                0xffffffff820ab4b8                spi2IrqHandler
                0xffffffff820ab50c                uart1_rxbuf
                0xffffffff820ab90c                uart2_rxbuf
                0xffffffff820abd0c                connectionCallbackParam
                0xffffffff820abdb8                gps_uartWriteBuf
                0xffffffff820acdcc                gps_uartReadBuf
                0xffffffff820adde0                gps_uartHwBuf
                0xffffffff820ae3e0                DL_process_handler
                0xffffffff820ae3f8                signgam
                0xffffffff820b09b0                certProfile
                0xffffffff820b09f4                ca_pem
                0xffffffff820b09f8                cert_pem
                0xffffffff820b09fc                key_pem
                0xffffffff820b0c38                _log

.rom_entries_cached
                0xffffffff81c00194       0x54
 hex/gps/SW_V2131_csdk.elf(.rom_entries_cached)
 .rom_entries_cached
                0xffffffff81c00194       0x54 hex/gps/SW_V2131_csdk.elf
                0xffffffff81c00194                xcpu_error_code
                0xffffffff81c00198                xcpu_error_status
                0xffffffff81c0019c                xcpu_sp_context
                0xffffffff81c001a0                sxr_IrqStack_pointer
                0xffffffff81c001a4                g_bootResetCause
                0xffffffff81c001a8                g_bootBootMode
                0xffffffff81c001ac                g_bootUartMonitorBrDetected
                0xffffffff81c001b0                g_bootUartMonitorBaudRate

.cust_data      0xffffffff82300000       0x10 load address 0xffffffff88242820
 hex/gps/gps.elf(.cust_data)
 .cust_data     0xffffffff82300000       0x10 hex/gps/gps.elf
                0xffffffff82300000                isGpsOn
                0xffffffff82300000                __user_rw_start

.sys_sram_overlay_3
                0xffffffff81c096e0       0x10 load address 0xffffffff8801b810
 hex/gps/SW_V2131_csdk.elf(.sys_sram_overlay_3)
 .sys_sram_overlay_3
                0xffffffff81c096e0       0x10 hex/gps/SW_V2131_csdk.elf

.cust_bss       0xffffffff82300010     0x1420
 hex/gps/gps.elf(.cust_bss)
 .cust_bss      0xffffffff82300010     0x1420 hex/gps/gps.elf
                0xffffffff82300010                temp000___
                0xffffffff82300014                g_InterfaceVtbl
                0xffffffff82300018                flag
                0xffffffff82300c48                g_gps_info

.sramtext       0xffffffff81c02000     0x6600 load address 0xffffffff88014ac0
 hex/gps/SW_V2131_csdk.elf(.sramtext)
 .sramtext      0xffffffff81c02000     0x6600 hex/gps/SW_V2131_csdk.elf
                0xffffffff81c02000                _sys_sram_txt_start
                0xffffffff81c02001                hal_LpsAllowSkipFrame
                0xffffffff81c0200d                hal_LpsLightSleep
                0xffffffff81c02028                hal_lpsPuFsmRun
                0xffffffff81c022d5                hal_LpsDeepSleep
                0xffffffff81c02339                hal_LpsCalibrate
                0xffffffff81c02471                hal_RfspiRemWinCmd
                0xffffffff81c024a9                hal_RfspiInitQueue
                0xffffffff81c024c1                hal_RfspiFlushFifo
                0xffffffff81c024e5                hal_RfspiPushData
                0xffffffff81c02561                hal_RfspiFillFifo
                0xffffffff81c026c9                hal_RfspiSetupFifo
                0xffffffff81c0276d                hal_RfspiNewCmd
                0xffffffff81c02845                hal_SpeechPushRxPopTx
                0xffffffff81c02935                hal_TcuSetTco
                0xffffffff81c02945                hal_TcuClrTco
                0xffffffff81c02955                hal_TcuClrEvtRange
                0xffffffff81c02981                hal_TcuClrAllEvents
                0xffffffff81c02995                hal_TcuSetEvtPtr
                0xffffffff81c029a1                hal_TcuGetEvtPtr
                0xffffffff81c029ad                hal_TcuSetEvent
                0xffffffff81c02a21                hal_TcuSetWrap
                0xffffffff81c02af4                pmd_EnterDeepSleepStep2
                0xffffffff81c02b30                pmd_ExitDeepSleepStep1
                0xffffffff81c02ba9                pmd_ExitDeepSleepStep2
                0xffffffff81c02bf1                pmd_EnterDeepSleepStep1
                0xffffffff81c0305d                PowerOffset
                0xffffffff81c031a5                Pcl2dBm
                0xffffffff81c0331d                xcvSetArfcn
                0xffffffff81c0347d                xcvGetDigGain
                0xffffffff81c034b9                rfd_XcvGetAgcGain
                0xffffffff81c0350d                rfd_XcvGetAfcOffset
                0xffffffff81c03511                rfd_XcvSetRxTxTimeOffset
                0xffffffff81c03539                rfd_XcvFrameStart
                0xffffffff81c0353d                rfd_XcvFrequencyTuning
                0xffffffff81c0368d                rfd_XcvRxOff
                0xffffffff81c036e1                xcvReadReg
                0xffffffff81c03719                xcvBuildSpiCmd
                0xffffffff81c03755                rfd_XcvSleep
                0xffffffff81c03841                rfd_XcvWakeUp
                0xffffffff81c038a5                rfd_XcvTxOff
                0xffffffff81c038f5                rfd_XcvTxOn
                0xffffffff81c04355                rfd_XcvRxOn
                0xffffffff81c04b1d                dtmf_calc_magnitude
                0xffffffff81c04bf9                hal_ComregsGetSnap
                0xffffffff81c04c05                hal_ComregsClrMask
                0xffffffff81c04c3d                hal_ComregsSetMask
                0xffffffff81c04c75                hal_FintIrqGetStatus
                0xffffffff81c04c85                hal_FintUserHandler
                0xffffffff81c04c9d                hal_FintIrqHandler
                0xffffffff81c04cb9                hal_GoudaGetTiming
                0xffffffff81c04cc5                hal_GoudaSetTiming
                0xffffffff81c04cd5                hal_GpioClr
                0xffffffff81c04d2d                hal_GpioSet
                0xffffffff81c04d85                hal_IrqDispatch
                0xffffffff81c04f60                sxr_TaskSwap
                0xffffffff81c05030                sxr_JobSwap
                0xffffffff81c05131                palSetUpperBound
                0xffffffff81c0514d                palGetBand
                0xffffffff81c05181                palCalcMonPower
                0xffffffff81c051c1                pal_EnableAuxClkCtrl
                0xffffffff81c051cd                pal_SimIrqHandler
                0xffffffff81c05271                pal_SetDummyPchDetection
                0xffffffff81c052a5                pal_GetDummyPchDetection
                0xffffffff81c052b9                pal_SetCalibProcess
                0xffffffff81c052c5                pal_SetFchDetectMode
                0xffffffff81c052f5                pal_GetNBurstResultMultslot
                0xffffffff81c05361                pal_UpdateCdacValue
                0xffffffff81c05379                pal_UpdateAfcDacValue
                0xffffffff81c05391                pal_GetCdacOffset
                0xffffffff81c053a1                pal_GetAfcDacOffset
                0xffffffff81c053b1                pal_DspIrqHandler
                0xffffffff81c05429                pal_FintIrqHandler
                0xffffffff81c05449                pal_GetUsf
                0xffffffff81c054a5                pal_GetFchResult
                0xffffffff81c05545                pal_ABurstEncoding
                0xffffffff81c055e9                pal_GetSchResult
                0xffffffff81c05731                pal_GetMonResult
                0xffffffff81c05795                palReorderWin
                0xffffffff81c05859                pal_NblockEncoding
                0xffffffff81c05951                pal_GetNBlockResult
                0xffffffff81c05acd                pal_GetNBurstResult
                0xffffffff81c05d09                pal_TimeTuningSuspend
                0xffffffff81c05d6d                pal_FrequencyTuning
                0xffffffff81c05dcd                pal_TimeTuning
                0xffffffff81c05e3d                pal_TimeTuningSuspendCheck
                0xffffffff81c05e75                pal_SynchronizationChange
                0xffffffff81c05f2d                pal_AuxClkOff
                0xffffffff81c05f51                pal_FrameEnd
                0xffffffff81c06209                pal_FrameStart
                0xffffffff81c064f9                palProgramTxWin
                0xffffffff81c06645                pal_SetTxWin
                0xffffffff81c06869                palRxBstOff
                0xffffffff81c068d1                pal_CloseFchRxWin
                0xffffffff81c06961                palRxBstOn
                0xffffffff81c069d1                palSetBcpuTcuIrqAfterWinEndDate
                0xffffffff81c06a2d                palProgramRxWin
                0xffffffff81c06da9                pal_SetNBurstRxWin
                0xffffffff81c06fad                pal_SetSchRxWin
                0xffffffff81c070ad                pal_SetFchRxWin
                0xffffffff81c071e5                pal_SetMonRxWin
                0xffffffff81c072c1                _sxr_UpMemCallerAdd
                0xffffffff81c072d9                sxr_GetLink
                0xffffffff81c072e1                sxr_GetMemSize
                0xffffffff81c072f5                sxr_Link
                0xffffffff81c07361                _sxr_HFree
                0xffffffff81c075e1                _sxr_HMalloc
                0xffffffff81c078cd                sxr_TimerDelivery
                0xffffffff81c07909                sxr_ClearJEvent
                0xffffffff81c07939                sxr_SkipFrameEndEvt
                0xffffffff81c0794d                sxr_IsJobInitializing
                0xffffffff81c07959                sxr_InitJobEventStatus
                0xffffffff81c079a9                sxr_AutoStop
                0xffffffff81c07a39                sxr_WaitJEvent
                0xffffffff81c07c09                sxr_RaiseJEvent
                0xffffffff81c07ced                sxr_RaiseFrameJEvent
                0xffffffff81c07d19                sxr_RaiseLongLivedJEvent
                0xffffffff81c07d45                sxr_FrameBoundary
                0xffffffff81c07da9                sxr_GetJobWaitingPeriod
                0xffffffff81c07dd9                sxr_WaitJDuration
                0xffffffff81c07ef1                sxr_FrameJobScheduling
                0xffffffff81c07ffd                sxr_StopJob
                0xffffffff81c0844d                sxr_ResumeJob
                0xffffffff81c08559                sxr_ResetJob

.bootsrambss    0xffffffff81c08d20       0x10
 hex/gps/SW_V2131_csdk.elf(.bootsrambss)
 .bootsrambss   0xffffffff81c08d20       0x10 hex/gps/SW_V2131_csdk.elf

.rom_entries_uncached
                0xffffffffa1c000a0       0xf4
 hex/gps/SW_V2131_csdk.elf(.rom_entries_uncached)
 .rom_entries_uncached
                0xffffffffa1c000a0       0xf4 hex/gps/SW_V2131_csdk.elf
                0xffffffffa1c000a0                _hstMonitorXCtx_start
                0xffffffffa1c000a0                boot_HstMonitorXCtx
                0xffffffffa1c000b4                boot_HstMonitorExtendedHandler
                0xffffffffa1c00138                g_BootUsbVar

.mailbox        0xffffffffa1b00580      0x280
 hex/gps/SW_V2131_csdk.elf(.mailbox)
 .mailbox       0xffffffffa1b00580      0x280 hex/gps/SW_V2131_csdk.elf
                0xffffffffa1b00580                _dualport_sram_romed_mbx_start
                0xffffffffa1b00580                g_mailbox

.bcpu_sramucdata
                0xffffffffa1c01b10       0x40 load address 0xffffffff88013e80
 hex/gps/SW_V2131_csdk.elf(.bcpu_sramucdata)
 .bcpu_sramucdata
                0xffffffffa1c01b10       0x40 hex/gps/SW_V2131_csdk.elf
                0xffffffffa1c01b10                g_mailbox_pal2spc_RxBufInd
                0xffffffffa1c01b10                _bcpu_sys_sram_uncached_start
                0xffffffffa1c01b12                UsfDistanceNormal
                0xffffffffa1c01b14                DistanceMaxNormal
                0xffffffffa1c01b16                UsfDistanceSaic
                0xffffffffa1c01b18                DistanceMaxSaic
                0xffffffffa1c01b1c                g_mailbox_pal2spc_rxBandInd
                0xffffffffa2000a00                _bcpu_ram_uncached_start
                0xffffffff81c01b10                _bcpu_sys_sram_cached_start
                0xffffffff82000a00                _bcpu_ram_cached_start
                0xffffffff82000a00                _bcpu_ram_txt_start

.sys_sram_overlay_2
                0xffffffff81c096e0       0x10 load address 0xffffffff8801b800
 hex/gps/SW_V2131_csdk.elf(.sys_sram_overlay_2)
 .sys_sram_overlay_2
                0xffffffff81c096e0       0x10 hex/gps/SW_V2131_csdk.elf
                0xffffffff81c096e0                pcmbuf_overlay

.fixptr         0xffffffff81c0027c        0x4
 hex/gps/SW_V2131_csdk.elf(.fixptr)
 .fixptr        0xffffffff81c0027c        0x4 hex/gps/SW_V2131_csdk.elf
                0xffffffff81c0027c                g_halFixedPointer

.sys_sram_overlay_0
                0xffffffff81c096e0       0x10 load address 0xffffffff8801b7e0
 hex/gps/SW_V2131_csdk.elf(.sys_sram_overlay_0)
 .sys_sram_overlay_0
                0xffffffff81c096e0       0x10 hex/gps/SW_V2131_csdk.elf

.boot_code      0xffffffff88010000     0x10b0
 hex/gps/SW_V2131_csdk.elf(.boot_code)
 .boot_code     0xffffffff88010000     0x10b0 hex/gps/SW_V2131_csdk.elf
                0xffffffff88010010                _boot_sector
                0xffffffff88010010                boot_Sector
                0xffffffff880103e5                pmd_GetVoreVoltageDDRIndex
                0xffffffff88010409                pmd_OpalSpiWrite
                0xffffffff88010425                pmd_OpalSpiRead
                0xffffffff8801043d                pmd_SetVcoreToDefaultVolt
                0xffffffff88010595                tgt_GetDDRConfig
                0xffffffff880105b1                boot_XcvClose
                0xffffffff880105c5                boot_XcvRead
                0xffffffff88010651                boot_XcvWrite
                0xffffffff880106b9                boot_XcvOpen
                0xffffffff880106fd                boot_XcvConfigure
                0xffffffff880107ad                memd_GetRamClk
                0xffffffff880107b9                DDR_Init_Config
                0xffffffff880107e1                DDR_Get_Config
                0xffffffff880108cd                memd_RamOpen
                0xffffffff88010955                hal_EbcCsOpen
                0xffffffff88010965                hal_EbcSramOpen
                0xffffffff88010975                hal_EbcFlashOpen
                0xffffffff880109a1                hal_IspiRegRead
                0xffffffff88010a15                hal_AbbIspiWrite
                0xffffffff88010a31                boot_SectorFixRom
                0xffffffff88010a35                boot_SectorEnterBootMonitor
                0xffffffff88010a51                boot_SysGetMetalId
                0xffffffff88010a69                boot_SysGetFreq
                0xffffffff88010b59                boot_SysWaitMicrosecond
                0xffffffff88010b8d                boot_UpdateIspiDivider
                0xffffffff88010bdd                boot_EbcSramOpen
                0xffffffff88010c0d                boot_EbcCsOpen
                0xffffffff88010c21                boot_EbcCsSetup
                0xffffffff88010cf9                boot_MemInit
                0xffffffff88010df1                boot_IspiRead
                0xffffffff88010e3d                boot_MonitorKeyPressed
                0xffffffff88010edd                boot_ForceUsbMonitorKeyCheck
                0xffffffff88010f25                boot_ForceMonitorKeyCheck
                0xffffffff88010f89                boot_BootSectorSetCommand
                0xffffffff88010fa1                boot_BootSectorSetEbcFreq
                0xffffffff88010fb5                boot_BootSectorGetEbcRamId
                0xffffffff88010fc1                tgt_GetMemdFlashConfig
                0xffffffff88010fcd                tgt_GetKeyMapIndex
                0xffffffff88010ff1                tgt_GetBootDownloadKeyList
                0xffffffff88011001                tgt_GetBootUsbDownloadKeyList
                0xffffffff88011011                tgt_GetUsbDownloadByMicDet
                0xffffffff88011015                tgt_GetMemdRamConfig
                0xffffffff88011030                g_tgtMemdFlashCfg
                0xffffffff88011038                g_tgtMemdRamCfg
                0xffffffff88011060                g_tgtKeyMap
                0xffffffff880110a0                g_tgtKeyBootDownload

.cust_rotext    0xffffffff88240010     0x22f0
 hex/gps/gps.elf(.cust_rotext)
 .cust_rotext   0xffffffff88240010     0x22f0 hex/gps/gps.elf
                0xffffffff882407dd                user_Main
                0xffffffff882407f9                user_Init
                0xffffffff88240841                gps_Main
                0xffffffff88240889                gps_testTask
                0xffffffff88240b59                EventDispatch
                0xffffffff88240c85                gps_MainTask
                0xffffffff88240d41                GPS_Send
                0xffffffff88240d65                GPS_CheckParityBinary
                0xffffffff88240d95                GPS_IsCMDValid
                0xffffffff88240dfd                GPS_IsCMDACKValid
                0xffffffff88240e09                OnCmdAckFail
                0xffffffff88240e31                SaveToTFCard
                0xffffffff88240e95                GPS_CheckParity
                0xffffffff88240ee9                GPS_AckCheck
                0xffffffff88240fa1                GPS_GetAckCmdBinary
                0xffffffff88240fe9                GPS_GetAckCmd
                0xffffffff88241049                GPS_CMDSend
                0xffffffff882410f1                GPS_SendCMDWaitAck
                0xffffffff88241269                GPS_SetOutputInterval
                0xffffffff882412b5                GPS_GetVersion
                0xffffffff8824136d                GPS_Update
                0xffffffff88241599                GPS_Init
                0xffffffff882415b9                Gps_GetInfo
                0xffffffff882415c5                ParseOneNmea
                0xffffffff882416c1                GPS_Parse
                0xffffffff88241761                minmea_scan
                0xffffffff88241b95                minmea_parse_zda
                0xffffffff88241c05                minmea_parse_vtg
                0xffffffff88241c95                minmea_parse_gsv
                0xffffffff88241d35                minmea_parse_gst
                0xffffffff88241d95                minmea_parse_gll
                0xffffffff88241e05                minmea_parse_gsa
                0xffffffff88241e99                minmea_parse_gga
                0xffffffff88241f2d                minmea_parse_rmc
                0xffffffff88241fc9                minmea_check
                0xffffffff88242079                minmea_sentence_id
                0xffffffff88242131                Assert
                0xffffffff88242151                Buffer_Query
                0xffffffff882421dd                Buffer_Size
                0xffffffff882421f5                Buffer_Gets
                0xffffffff88242249                Buffer_Puts
                0xffffffff882422a1                Buffer_Size2
                0xffffffff882422b5                Buffer_Clear
                0xffffffff882422bd                Buffer_StartPostion
                0xffffffff882422d1                Buffer_Init

.bcpu_rom_rodata
                0xffffffff81e937b0     0x46f0
 hex/gps/SW_V2131_csdk.elf(.bcpu_rom_rodata)
 .bcpu_rom_rodata
                0xffffffff81e937b0     0x46f0 hex/gps/SW_V2131_csdk.elf
                0xffffffff81e937b0                bcpu_romCsString
                0xffffffff81e937dc                bcpu_romDT
                0xffffffff81e9381c                g_sppCsCrcParam
                0xffffffff81e9398c                g_sppCsConvParam
                0xffffffff81e93afc                g_sppCsSrcParam
                0xffffffff81e93b8c                g_sppVitacDecParam
                0xffffffff81e93c44                g_sppVitacPolyres
                0xffffffff81e93c64                g_sppInputLengthBitAfs
                0xffffffff81e93c6c                g_sppAfsReorderTables
                0xffffffff81e93c8c                g_sppInputLengthBitAhs
                0xffffffff81e93c94                g_sppAhsReorderTables
                0xffffffff81e93cac                g_sppMatrixHr
                0xffffffff81e93d8c                g_sppMatrixFrInv
                0xffffffff81e93f94                g_sppMatrixEfr1
                0xffffffff81e93fd8                g_sppMatrixEfr1Inv
                0xffffffff81e9401c                g_sppMatrixEfr2Inv
                0xffffffff81e94214                g_sppNbFwequStartSt
                0xffffffff81e94234                g_sppNbBwequStartSt
                0xffffffff81e94254                g_sppGsmTscSch
                0xffffffff81e9425c                g_sppGsmTscAburst
                0xffffffff81e94264                g_sppGsmTscAburst_1
                0xffffffff81e9426c                g_sppGsmTscAburst_2
                0xffffffff81e94274                g_sppGsmTscNburst
                0xffffffff81e942f4                g_sppSaicTable
                0xffffffff81e9433c                g_sppSaicPMatrixTable
                0xffffffff81e94354                g_sppUsfCs2Cs3
                0xffffffff81e9435c                g_spp_UsfCs4
                0xffffffff81e9436c                g_sppIcSidRatscch
                0xffffffff81e94374                g_sppIcAfsSpeech
                0xffffffff81e9437c                g_sppIcAhsSpeech
                0xffffffff81e94384                g_sppImAfsSid
                0xffffffff81e943a0                g_sppImAhsSid
                0xffffffff81e943c0                g_sppImRatscch
                0xffffffff81e943e0                g_sppAfsSidMarker
                0xffffffff81e943fc                g_sppAhsSidMarker
                0xffffffff81e94418                g_sppRatscchMarker
                0xffffffff81e94434                g_sppConvOutLengthBitAhs
                0xffffffff81e9443c                g_sppConvOutMaskAhs
                0xffffffff81e94454                g_spp_8TapChestTab
                0xffffffff81e94dd4                g_sppChestTab
                0xffffffff81e96a30                g_sppCsPuncturingTable
                0xffffffff81e97684                g_sppPCH_vector_a
                0xffffffff81e977dc                g_sppPCH_vector_b1
                0xffffffff81e97830                g_sppPCH_vector_b2
                0xffffffff81e97884                g_sppPCH_vector_b3
                0xffffffff81e978d8                g_sppPCH_vector_b4
                0xffffffff81e9792c                g_sppPCH_b_pos
                0xffffffff81e97980                g_sppPCH_size_vector_b
                0xffffffff81e979bc                g_sppMapVersion
                0xffffffff81e97a10                g_spalMapAccess
                0xffffffff81e97a14                g_spalMapVersion
                0xffffffff81e97a5c                LUT_8PSK
                0xffffffff81e97a7c                PSK8_ROTATE
                0xffffffff81e97abc                GMSK_ROTATE
                0xffffffff81e97afc                spal_GdbGBreak
                0xffffffff81e97ba4                AFSfilterCI
                0xffffffff81e97c70                AHSfilterCI
                0xffffffff81e97d34                spcSizeFromMCS
                0xffffffff81e97d84                g_spcMapVersion

.sramucbss      0xffffffffa1c08d30      0x940
 hex/gps/SW_V2131_csdk.elf(.sramucbss)
 .sramucbss     0xffffffffa1c08d30      0x940 hex/gps/SW_V2131_csdk.elf
                0xffffffffa1c08d30                g_halMapTable
                0xffffffffa1c09518                g_sim_data_buffer

.bcpu_flash_end
                0xffffffff88013ec0       0x10
 hex/gps/SW_V2131_csdk.elf(.bcpu_flash_end)
 .bcpu_flash_end
                0xffffffff88013ec0       0x10 hex/gps/SW_V2131_csdk.elf

.sys_sram_overlay_1
                0xffffffff81c096e0       0x10 load address 0xffffffff8801b7f0
 hex/gps/SW_V2131_csdk.elf(.sys_sram_overlay_1)
 .sys_sram_overlay_1
                0xffffffff81c096e0       0x10 hex/gps/SW_V2131_csdk.elf

.sys_sram_overlay_4
                0xffffffff81c096e0       0x10 load address 0xffffffff8801b820
 hex/gps/SW_V2131_csdk.elf(.sys_sram_overlay_4)
 .sys_sram_overlay_4
                0xffffffff81c096e0       0x10 hex/gps/SW_V2131_csdk.elf

.bcpu_rodata    0xffffffff88011610       0x10
 hex/gps/SW_V2131_csdk.elf(.bcpu_rodata)
 .bcpu_rodata   0xffffffff88011610       0x10 hex/gps/SW_V2131_csdk.elf
                0xffffffff88011610                g_spcMapAccess

.ram            0xffffffff82001e20       0xe0 load address 0xffffffff8801cb60
 hex/gps/SW_V2131_csdk.elf(.ram)
 .ram           0xffffffff82001e20       0xe0 hex/gps/SW_V2131_csdk.elf
                0xffffffff82001e20                _ram_txt_start
                0xffffffff82001e20                _ram_special_cached_start
                0xffffffff82001e21                hal_SysSoftResetNoFlash
                0xffffffff82001e45                hal_SysSoftReset
                0xffffffff82001e81                hal_SysRestart
                0xffffffff82001eb9                hal_GetVocDma
                0xffffffff82001ebd                hal_VocStateActive
                0xffffffff82001ed1                hal_DmaDone

.rotext         0xffffffff88071aa0   0x155fc0
 hex/gps/SW_V2131_csdk.elf(.rotext)
 .rotext        0xffffffff88071aa0   0x155fc0 hex/gps/SW_V2131_csdk.elf
                0xffffffff88071aa1                hal_DbgPxtsSetEnabled
                0xffffffff88071b25                hal_DbgPxtsProfileJobExit
                0xffffffff88071b55                hal_DbgPxtsProfileJobEnter
                0xffffffff88071b7d                hal_DbgPxtsProfilePulse
                0xffffffff88071b91                hal_DbgPxtsProfileTask
                0xffffffff88071bb9                hal_DbgPxtsProfileWindowExit
                0xffffffff88071bdd                hal_DbgPxtsProfileWindowEnter
                0xffffffff88071bf1                hal_DbgPxtsProfileFunctionExit
                0xffffffff88071c15                hal_DbgPxtsProfileFunctionEnter
                0xffffffff88071c29                hal_DbgPxtsSendTrigger
                0xffffffff88071c88                pmd_Deactive
                0xffffffff88071cd1                pmd_SetPadVoltage
                0xffffffff88071d25                pmd_SetPadVoltageModeLP
                0xffffffff88071d69                pmd_SetPadVoltageMode
                0xffffffff88071dad                pmd_RegIrqSettingSet
                0xffffffff88071df5                pmd_Close
                0xffffffff88071e8d                hal_DbgTrace
                0xffffffff88071eb4                hal_LpsDeepSleepWrapper
                0xffffffff88071f10                hal_LpsLightSleepWrapper
                0xffffffff88071f70                hal_GdbInvalidCache
                0xffffffff88071f88                hal_GdbInvalidICache
                0xffffffff88071fa8                hal_GdbInvalidCacheData
                0xffffffff88071fd0                hal_GdbDisableDebugIrq
                0xffffffff88071ff1                __ucmpdi2
                0xffffffff88072019                __ffssi2
                0xffffffff88072059                calib_SxsInit
                0xffffffff88072111                calib_StubMain
                0xffffffff88072149                calib_SxsTaskIdle
                0xffffffff88072179                calib_SxsTimerDelivery
                0xffffffff88072191                hal_MapEngineOpen
                0xffffffff880721bd                hal_MapEngineRegisterModule
                0xffffffff880721d9                hal_MapEnginePrintModuleVersion
                0xffffffff880721f5                hal_MapEnginePrintAllModulesVersion
                0xffffffff88072211                hal_DbgPageProtectSetup
                0xffffffff88072245                hal_DbgPageProtectEnable
                0xffffffff88072271                hal_AudEnableRecvMode
                0xffffffff8807227d                hal_AudVMicValid
                0xffffffff88072289                hal_AudOutputMuted
                0xffffffff88072295                hal_AudDeepPowerDown
                0xffffffff880722c5                hal_GetAudForceReceiverMicSelectionFlag
                0xffffffff880722d1                hal_AudSetMicCfg
                0xffffffff880722dd                hal_AudSetSpkCfg
                0xffffffff880722e9                hal_AudSetRcvGain
                0xffffffff880722f9                hal_AudSetHeadGain
                0xffffffff8807232d                hal_AudForcePowerDown
                0xffffffff8807234d                hal_AudGetPowerStatus
                0xffffffff8807237d                hal_AudGetSelCfg
                0xffffffff8807238d                hal_AudRcvGainDb2Val
                0xffffffff880723ad                hal_AudHeadGainDb2Val
                0xffffffff880723cd                hal_AudSpkGainDb2Val
                0xffffffff880723fd                hal_AudMicGainDb2Val
                0xffffffff8807241d                clkInitAUDIO
                0xffffffff88072449                hal_AudGetDacVolumn
                0xffffffff88072465                hal_AudEnRcv
                0xffffffff88072515                hal_AudSetSelCfg
                0xffffffff88072619                hal_AudForceReceiverMicSelection
                0xffffffff88072639                hal_AudPowerDown
                0xffffffff88072695                hal_AudPowerOn
                0xffffffff880726c5                hal_AudClose
                0xffffffff88072779                hal_AudOpen
                0xffffffff880728e9                hal_AudMuteOutput
                0xffffffff8807290d                hal_AudEarpieceDetectInit
                0xffffffff88072999                hal_SpeechPopRxPushTx
                0xffffffff88072a71                hal_SpeechFifoReset
                0xffffffff88072af1                hal_SpeechMuteVoiceFrame
                0xffffffff88073359                hal_UsbReset
                0xffffffff880733dd                hal_UsbEpRxTransferedSize
                0xffffffff88073415                hal_UsbEpEnableInterrupt
                0xffffffff88073565                hal_UsbSend
                0xffffffff88073639                hal_UsbRecv
                0xffffffff88073705                hal_UsbEpStall
                0xffffffff88073919                hal_UsbClose
                0xffffffff880739ad                hal_UsbEpTransfertDone
                0xffffffff88073aad                hal_UsbOpen
                0xffffffff880741a1                hal_UsbIrqHandler
                0xffffffff88074555                hal_HostUsbSend
                0xffffffff880746bd                hal_HostUsbClose
                0xffffffff88074735                hal_HostUsbOpen
                0xffffffff88074771                hal_HostUsbCallback
                0xffffffff880747a5                hal_HostUsbEvent
                0xffffffff88074cfd                hal_HostUsbRecv
                0xffffffff88074d91                hal_VocGetPointer
                0xffffffff88074d9d                hal_VocIrqHandler
                0xffffffff88074e05                clkInitVOC
                0xffffffff88074e31                hal_VocGetDmaiPointer
                0xffffffff88074e8d                hal_VocWakeup
                0xffffffff88074ef5                hal_VocClose
                0xffffffff88074ff9                hal_VocOpen
                0xffffffff88075179                hal_VocInit
                0xffffffff880751d5                pmd_SetHighActivity
                0xffffffff880751e5                pmd_GetHighActivity
                0xffffffff880751f5                pmd_GetChargerVoltageValidity
                0xffffffff88075205                pmd_GetChargerStatus
                0xffffffff88075211                pmd_GetChargingStage
                0xffffffff8807521d                pmd_UpdateChargeCurrentInternal
                0xffffffff8807526d                pmd_ReduceChargingCurrentDynamic
                0xffffffff880752a5                pmd_SetChargeCurrent
                0xffffffff880752bd                pmd_InitMaxChargeCurrent
                0xffffffff880752f9                pmd_ChargerEnterPulseStage
                0xffffffff88075319                pmd_GetVfbWindowOffset
                0xffffffff88075349                pmd_StopCharging
                0xffffffff88075385                pmd_CutOffCharger
                0xffffffff880753a1                pmd_BatteryLevelToPercent
                0xffffffff88075461                pmd_GetPowerDownVoltPercent
                0xffffffff8807547d                pmd_GetPowerOnVoltPercent
                0xffffffff88075499                pmd_ChargerPlugout
                0xffffffff8807552d                pmd_CalculateMeanBatteryLevel
                0xffffffff88075559                pmd_CalculateMeanChargerLevel
                0xffffffff88075585                pmd_ChargerMonChargerVolt
                0xffffffff88075691                pmd_GetGpadcBatteryLevel
                0xffffffff880756c5                pmd_ChargerChargingState
                0xffffffff88075a81                pmd_ChargerPlugin
                0xffffffff88075b95                pmd_DcOnHandler
                0xffffffff88075bc9                pmd_SetChargerStatusHandler
                0xffffffff88075c05                pmd_GetAverageGpadcBatteryLevel
                0xffffffff88075c49                pmd_InitCharger
                0xffffffff88075f35                pmd_GetRealTimeBatteryLevel
                0xffffffff88076061                pmd_GetBatteryLevel
                0xffffffff88076095                pmd_CalculateMeanTemperature
                0xffffffff880760c1                pmd_ChargerMonBattTemperature
                0xffffffff880761b9                pmd_ChargerManager
                0xffffffff880762e9                pmd_RegisterYourself
                0xffffffff88076305                PM_ProLPMDisable
                0xffffffff88076309                sxs_StartAll
                0xffffffff880763f1                main
                0xffffffff88076485                sxs_TimerDelivery
                0xffffffff880764a5                sxs_Task
                0xffffffff88076505                sxs_FreeUsrInitTasks
                0xffffffff88076545                sxs_TaskIdle
                0xffffffff88076595                sxs_UsrInitTask
                0xffffffff880765b1                sap_InitUsr
                0xffffffff880765dd                sim_ProcessEvt
                0xffffffff880765f9                sim_Parse
                0xffffffff88076689                sim_ParseEvt
                0xffffffff880767dd                sim_ParseMsg
                0xffffffff8807696d                sim_MultiSim_Init
                0xffffffff88076aa1                sim_Init
                0xffffffff88076ac5                sim_GiveEvtdx
                0xffffffff88076add                sim_PollOffReq
                0xffffffff88076b1d                sim_PollReq
                0xffffffff88076b65                sim_RetryReq
                0xffffffff88076bb5                sim_PowerOffReq
                0xffffffff88076c01                sim_SetUsimPbkReq
                0xffffffff88076c4d                sim_CheckResetState
                0xffffffff88076d61                sim_ManageChannelReq
                0xffffffff88076dd9                sim_SendCmdReq
                0xffffffff88076ee9                sim_SelectApplicationReq
                0xffffffff88076f8d                sim_StatusTimer
                0xffffffff88076fed                sim_DedicFileStatusReq
                0xffffffff88077081                sim_EnableCHVReq
                0xffffffff880770ed                sim_DisableCHVReq
                0xffffffff88077159                sim_ChangeCHVReq
                0xffffffff880771e1                sim_VerifyCHVReq
                0xffffffff88077285                sim_StopReq
                0xffffffff8807731d                sim_ElemFileStatusReq
                0xffffffff880773a9                sim_TerminalResponseReq
                0xffffffff88077431                sim_EnvelopeReq
                0xffffffff880774b9                sim_TerminalProfileReq
                0xffffffff88077541                sim_IncreaseReq
                0xffffffff880775d1                sim_SeekAllReq
                0xffffffff88077689                sim_SeekReq
                0xffffffff88077731                sim_RehabilitateReq
                0xffffffff880777f9                sim_InvalidateReq
                0xffffffff880778c1                sim_UnblockCHVReq
                0xffffffff88077989                sim_UpdateRecordReq
                0xffffffff88077a29                sim_ReadRecordReq
                0xffffffff88077ac1                sim_UpdateBinaryReq
                0xffffffff88077b65                sim_ReadBinaryReq
                0xffffffff88077c01                sim_RunUmtsAlgoReq
                0xffffffff88077ca1                sim_RunGsmAlgoReq
                0xffffffff88077d5d                sim_ResetReq
                0xffffffff88077e11                sim_getDefaultContent
                0xffffffff88077e51                sim_TestSW1SW2
                0xffffffff880784e5                sim_CheckVoltageFault
                0xffffffff8807854d                sim_ReleaseResource
                0xffffffff88078595                sim_InitVar
                0xffffffff88078679                sim_SendOneByteOfData
                0xffffffff88078715                sim_SendInstruction
                0xffffffff88078839                sim_StartEnhancedPPSProcedure
                0xffffffff880788b9                sim_StartPPSProcedure
                0xffffffff88078905                sim_SendDataOfInstructionWithInput
                0xffffffff880789a5                sim_BuildAnswerMessage
                0xffffffff88078be9                sim_AnalyzeATR
                0xffffffff8807908d                sim_SetNextVoltage
                0xffffffff880791d5                sim_Reset
                0xffffffff88079649                sim_ProcessInstruction
                0xffffffff8807a8b5                sim_TimerWaitSw2
                0xffffffff8807a931                sim_AnalyzeReceivedBytes
                0xffffffff8807acc1                sim_Interrupt
                0xffffffff8807ae49                sim_SW1TimeOut
                0xffffffff8807ae95                sm_ProcessEvt
                0xffffffff8807aef1                sm_Parse
                0xffffffff8807af65                sm_ParseSignal
                0xffffffff8807b05d                sm_ParseMsg
                0xffffffff8807b0d5                sm_Init
                0xffffffff8807b12d                sm_GiveDsc
                0xffffffff8807b155                sm_SaveMsg
                0xffffffff8807b191                sm_RouteAbortInd
                0xffffffff8807b1e1                sm_RouteRauAccPdpStatuInd
                0xffffffff8807b231                sm_RouteModifyRsp
                0xffffffff8807b281                sm_RouteDeactivateRsp
                0xffffffff8807b2d1                sm_RouteActivateRsp
                0xffffffff8807b321                sm_RoutePdpCtxActivateReq
                0xffffffff8807b3c9                sm_RouteStatusReq
                0xffffffff8807b419                sm_RoutePdpCtxModifyReq
                0xffffffff8807b495                sm_RoutePdpCtxModifyRej
                0xffffffff8807b4ed                sm_RoutePdpCtxModifyAcc
                0xffffffff8807b545                sm_RoutePdpCtxDeactivateReq
                0xffffffff8807b5b9                sm_RoutePdpCtxActivateRej
                0xffffffff8807b5ed                sm_RouteDataInd
                0xffffffff8807b851                sm_DoNothing
                0xffffffff8807b855                sm_StopTimer
                0xffffffff8807b885                sm_StartTimer
                0xffffffff8807b8c5                sm_WaitApiCtxModifyAcc_MmpCtxDeactivateReqEvt
                0xffffffff8807b951                sm_WaitApiCtxModifyAcc_ApiCtxDeactivateReqEvt
                0xffffffff8807b9a1                sm_PdpActive_ApiCtxActivateReq
                0xffffffff8807ba19                sm_PdpActive_MmpCtxDeactivateReq
                0xffffffff8807baa5                sm_PdpActive_ApiCtxDeactivateReq
                0xffffffff8807baf5                sm_PdpInactive_ApiCtxDeactivateReq
                0xffffffff8807bb39                sm_Allstate_MmpRauAccPdpStateInd
                0xffffffff8807bbe5                sm_WaitApiCtxModifyAcc_ApiCtxModifyRej
                0xffffffff8807bc45                sm_WaitApiCtxModifyAcc_ApiCtxModifyAcc
                0xffffffff8807bcd9                sm_WaitSmModifyRsp_SmModifyRsp
                0xffffffff8807bd71                sm_WaitSmActivateRsp_SmActivateRsp
                0xffffffff8807be69                sm_NotifyMMPReleaseSavedL3Msg
                0xffffffff8807bed1                sm_WaitMmpCtxDeactivateAcc_MmpCtxDeactivateReq
                0xffffffff8807bfad                sm_WaitMmpCtxDeactivateAcc_MmpCtxDeactivateAcc
                0xffffffff8807c145                sm_WaitMmpCtxModifyAcc_MmpCtxDeactivateReq
                0xffffffff8807c21d                sm_WaitMmpCtxModifyAcc_ApiCtxDeactivateReq
                0xffffffff8807c2b9                sm_WaitMmpCtxActivateAcc_MmpCtxDeactivateReq
                0xffffffff8807c3a9                sm_WaitMmpCtxActivateAcc_ApiCtxDeactivateReq
                0xffffffff8807c4cd                sm_Allstate_SmStatusReq
                0xffffffff8807c669                sm_Allstate_MmpAbortInd
                0xffffffff8807c7a9                sm_WaitMmpCtxDeactivateAcc_T3390
                0xffffffff8807c869                sm_WaitMmpCtxModifyAcc_T3381
                0xffffffff8807c961                sm_WaitMmpCtxModifyAcc_MmpCtxModifyReq
                0xffffffff8807ca49                sm_WaitMmpCtxModifyAcc_MmpCtxModifyRej
                0xffffffff8807cb25                sm_PdpActive_MmpCtxModifyReq
                0xffffffff8807cbdd                sm_WaitMmpCtxModifyAcc_MmpCtxModifyAcc
                0xffffffff8807cda5                sm_PdpActive_ApiCtxModifyReq
                0xffffffff8807ce55                sm_WaitMmpCtxActivateAcc_MmpCtxActivateRej
                0xffffffff8807cf61                sm_WaitMmpCtxActivateAcc_T3380
                0xffffffff8807d0a1                sm_WaitMmpCtxActivateAcc_MmpCtxActivateAcc
                0xffffffff8807d309                sm_PdpInactive_ApiCtxActivateReq
                0xffffffff8807d425                sm_WaitSmDeactivateRsp_SmDeactivateRsp
                0xffffffff8807d5a5                sm_Allstate_SmStatusInd
                0xffffffff8807d5f5                sm_SelectSapi
                0xffffffff8807d611                sm_ConvertR97R98QoSIntoR99QoS
                0xffffffff8807d705                sm_GetNSapiIdxFromSmIndex
                0xffffffff8807d761                sm_GetNSapiIdx
                0xffffffff8807d7b9                sm_StoreNetworkOriginatedTI
                0xffffffff8807d805                sm_FreeAllTi
                0xffffffff8807d841                sm_QoSCheck
                0xffffffff8807da45                sm_RetransMsg
                0xffffffff8807dacd                sm_FreeTi
                0xffffffff8807db9d                sm_AllocTi
                0xffffffff8807dc25                sm_GetPdpCtx
                0xffffffff8807dc55                sms_Init
                0xffffffff8807dccd                sms_ProcessEvt
                0xffffffff8807ddbd                sms_Parse
                0xffffffff8807de35                sms_ParseSignal
                0xffffffff8807de7d                sms_ParseMsg
                0xffffffff8807def5                sms_GiveEvtdx
                0xffffffff8807df0d                sms_RouteAbortInd
                0xffffffff8807df65                sms_RouteReleaseInd
                0xffffffff8807dfe1                smr_DataInd
                0xffffffff8807e141                sms_DataInd
                0xffffffff8807e2b5                sms_RouteMmpDataInd
                0xffffffff8807e2d5                sms_RouteMmDataInd
                0xffffffff8807e2f5                snd_ProcessEvt
                0xffffffff8807e331                snd_Parse
                0xffffffff8807e3bd                snd_ParseSignal
                0xffffffff8807e459                snd_ParseMsg
                0xffffffff8807e4d1                snd_Init
                0xffffffff8807e5b9                snd_GiveEvtdx
                0xffffffff8807e5d1                snd_SendPduToAPI
                0xffffffff8807e625                snd_SendMsg
                0xffffffff8807e689                snd_PrepMsg
                0xffffffff8807e6cd                snd_RouteResetInd
                0xffffffff8807e739                snd_RouteXidCnf
                0xffffffff8807e875                snd_RouteSequenceInd
                0xffffffff8807e931                snd_RouteReleaseInd
                0xffffffff8807e9c5                snd_RouteReleaseCnf
                0xffffffff8807ea59                snd_RouteDataCnf
                0xffffffff8807eab9                snd_RouteEstabInd
                0xffffffff8807ec31                snd_RouteEstabCnf
                0xffffffff8807ed71                snd_RouteUnitDataInd
                0xffffffff8807edf5                snd_RouteDataInd
                0xffffffff8807ee79                snd_RouteXidInd
                0xffffffff8807efe5                snd_RouteModifyInd
                0xffffffff8807f055                snd_RouteDeactivateInd
                0xffffffff8807f10d                snd_RouteActivateInd
                0xffffffff8807f199                snd_RouteQueueDataReq
                0xffffffff8807f29d                snd_DoNothing
                0xffffffff8807f2a1                snd_AllState_QueueCreateInd
                0xffffffff8807f2c5                snd_Idle_EstabInd
                0xffffffff8807f2f1                snd_WaitReleaseCnf_ModifyInd
                0xffffffff8807f2f5                snd_RoutingAreaUpdInter_DataReq
                0xffffffff8807f351                snd_RoutingAreaUpdInter_EstabInd
                0xffffffff8807f3e5                snd_RoutingAreaUpdInter_SequenceInd
                0xffffffff8807f4ad                snd_WaitReleaseInd_ReleaseCnf
                0xffffffff8807f4fd                snd_WaitReleaseInd_ReleaseInd
                0xffffffff8807f54d                snd_WaitEstabInd_DeactivateInd
                0xffffffff8807f58d                snd_WaitReleaseCnf_ReleaseInd
                0xffffffff8807f5e9                snd_WaitEstabCnf_DeactivateInd
                0xffffffff8807f6c1                snd_WaitEstabCnf_ReleaseInd
                0xffffffff8807f709                snd_Idle_DeactivateInd
                0xffffffff8807f765                snd_WaitReleaseInd_ResetInd
                0xffffffff8807f791                snd_WaitEstabInd_ResetInd
                0xffffffff8807f7bd                snd_WaitReleaseCnf_ResetInd
                0xffffffff8807f7e9                snd_Connected_ResetInd
                0xffffffff8807f85d                snd_WaitEstabCnf_ResetInd
                0xffffffff8807f889                snd_Idle_ResetInd
                0xffffffff8807f8b5                snd_WaitEstabInd_EstabInd
                0xffffffff8807f9b5                snd_Connected_EstabCnf
                0xffffffff8807fa05                snd_Connected_EstabInd
                0xffffffff8807fa55                snd_WaitReleaseCnf_ReleaseCnf
                0xffffffff8807fbc9                snd_Connected_DeactivateInd
                0xffffffff8807fcad                snd_RoutingAreaUpdInter_DeactivateInd
                0xffffffff8807fccd                snd_Connected_ModifyInd
                0xffffffff88080531                snd_Connected_ReleaseInd
                0xffffffff880805a9                snd_Connected_DataInd
                0xffffffff88080919                snd_Connected_DataCnf
                0xffffffff8808097d                snd_Connected_DataReq
                0xffffffff880809ed                snd_WaitEstabCnf_EstabInd
                0xffffffff88080a51                snd_WaitEstabCnf_EstabCnf
                0xffffffff88080b2d                snd_Idle_EstabCnf
                0xffffffff88080b65                snd_Idle_ModifyInd
                0xffffffff88080e41                snd_WaitEstabCnf_ModifyInd
                0xffffffff88080e51                snd_Idle_ActivateInd
                0xffffffff88081089                snd_findUnackBuffer
                0xffffffff880811a5                snd_AllState_UnitDataInd
                0xffffffff88081411                snd_AllState_UnitDataReq
                0xffffffff88081481                snd_BuildUnitDataReqSpecific
                0xffffffff880814f1                snd_TestSndDataCnf
                0xffffffff88081505                snd_ResetXidParameter
                0xffffffff88081509                snd_DecodeXidCnf
                0xffffffff880815bd                snd_Purge
                0xffffffff880815d5                snd_ReleaseAllAckSeg
                0xffffffff88081635                snd_ReleaseUnackSeg
                0xffffffff880816f9                snd_ReleaseAllUnackSeg
                0xffffffff8808171d                snd_SendUnitDataReq
                0xffffffff88081ae9                snd_ResumeUnackTransmission
                0xffffffff88081b5d                snd_Reassemble
                0xffffffff88081d19                snd_ReestabReq
                0xffffffff88081e0d                snd_SendDataReq
                0xffffffff880820f9                snd_RetransmitBufNPDU
                0xffffffff880821a5                snd_RAUInterRetransmission
                0xffffffff8808228d                snd_ReleaseNSapiCtx
                0xffffffff8808231d                snd_GetNSapiCtx
                0xffffffff880824ad                snd_CheckAndsndReassemble
                0xffffffff880826ad                ss_EvtParse
                0xffffffff88082739                ss_MsgParse
                0xffffffff880827a1                ss_Init
                0xffffffff880827f9                ss_ParseMessage
                0xffffffff88082db1                ss_RunFSM
                0xffffffff88082e01                ss_mmReleaseInd_Gene
                0xffffffff88082e5d                ss_TICmp
                0xffffffff88082e69                ss_SendMsg
                0xffffffff88082efd                ss_SendNetworkNoFacilityIEMsg
                0xffffffff88082f71                ss_SendNetworkRejectMsg
                0xffffffff880830a9                ss_SendNetworkReturnErrorMsg
                0xffffffff880831d5                ss_SendNetworkReturnResultMsg
                0xffffffff8808349d                ss_PrepMsg
                0xffffffff88083509                ss_getCtxtPtr
                0xffffffff88083555                ss_AllocTI
                0xffffffff880837b9                ss_StartTimer
                0xffffffff880837f9                ss_StopAllTimers
                0xffffffff88083835                ss_StartMSInitiatedTransaction
                0xffffffff88084019                ss_apiActionReq_U0
                0xffffffff88084089                ss_Init_U0
                0xffffffff88084101                ss_ussdMSReleaseComplete_U01
                0xffffffff88084135                ss_mmReleaseInd_U01
                0xffffffff8808418d                ss_Timer0Exp_U01
                0xffffffff88084221                ss_mmEstabErr_U01
                0xffffffff88084285                ss_mmEstabCnf_U01
                0xffffffff880842fd                ss_mmServReq_U01
                0xffffffff8808432d                ss_ussdMSReleaseComplete_U1
                0xffffffff88084361                ss_mmReleaseInd_U1
                0xffffffff8808442d                ss_Timer0Exp_U1
                0xffffffff88084531                ss_componentReceived_U1
                0xffffffff88084885                sxs_FsIdleHook
                0xffffffff8808489d                sxs_RegisterDebugIdleHookElem
                0xffffffff880848e9                sxs_RegisterDebugIdleHookFunc
                0xffffffff880848f9                sxs_DebugIdleHook
                0xffffffff88084935                sxs_RmtIdleHook
                0xffffffff88084939                sxs_SaveRmtBuffer
                0xffffffff8808496d                sxs_GetRmtBuffer
                0xffffffff880849a5                _sxs_SetFnStamp
                0xffffffff880849b5                sxs_RmtInit
                0xffffffff880849e9                tgt_GetHalConfig
                0xffffffff880849f5                tgt_GetAudConfig
                0xffffffff88084a01                tgt_GetPmdConfig
                0xffffffff88084a0d                tgt_GetPmdBattCapCurve
                0xffffffff88084a15                tgt_GetMcdConfig
                0xffffffff88084a21                tgt_GetUctlsConfig
                0xffffffff88084a2d                tgt_GetKeyCode
                0xffffffff88084a4d                tgt_GetXcvConfig
                0xffffffff88084a59                tgt_GetPaConfig
                0xffffffff88084a65                tgt_GetSwConfig
                0xffffffff88084a71                tgt_GetDsmCfg
                0xffffffff88084a7d                mmi_RegisterYourself
                0xffffffff88084a81                GetIsEarphonePlugIn
                0xffffffff88084a85                tgt_RegisterMonitorModules
                0xffffffff88084aa1                tgt_RegisterAllModules
                0xffffffff88084b01                tgt_GetImeiSv
                0xffffffff88084b41                tgt_SyncSetStationPassed
                0xffffffff88084b75                tgt_SyncSetStationPerformed
                0xffffffff88084ba9                tgt_SyncGetStationPassed
                0xffffffff88084bdd                tgt_SyncSetStationPassedByID
                0xffffffff88084c31                tgt_SyncGetStationPerformed
                0xffffffff88084c65                tgt_SyncSetStationPerformedByID
                0xffffffff88084cb9                tgt_SyncGetStationName
                0xffffffff88084cfd                tgt_SyncGetStationIDByName
                0xffffffff88084d4d                tgt_SyncSetStationPerformedAndPassedByName
                0xffffffff88085095                uat_transportTask
                0xffffffff880852b9                uctls_ChangeDeviceDescriptor
                0xffffffff880852c9                uctls_ChangeDeviceDescriptorSerialNmber
                0xffffffff880852cd                uctls_NewDeviceDescriptor
                0xffffffff88085331                uctls_NewConfigDescriptor
                0xffffffff88085369                uctls_NewInterfaceDescriptor
                0xffffffff880853ad                uctls_NewInterruptEpDescriptor
                0xffffffff880853f1                uctls_NewBulkEpDescriptor
                0xffffffff8808542d                uctls_CleanInterfaceListDescriptor
                0xffffffff88085489                init_uFlash_Func
                0xffffffff8808555d                init_uFlash_Param
                0xffffffff88085819                scsiSend
                0xffffffff88085a59                boSendCsw
                0xffffffff88085b35                scsiRecv
                0xffffffff88085c5d                umss_TransportBoScsiTask
                0xffffffff880863d9                Usim_DecodeDataLength
                0xffffffff880863e1                Usim_DecUiccCharacteristics
                0xffffffff88086475                Usim_DecAppPowerConsumption
                0xffffffff880864ad                Usim_DecMinClockFrequency
                0xffffffff880864c5                Usim_DecMemAvailable
                0xffffffff880864d5                Usim_DecProprietaryInfo
                0xffffffff88086579                Usim_DecDirSecurityAttributes
                0xffffffff88086589                Usim_DecUsageQualifier
                0xffffffff880865b1                Usim_SetPinStatus
                0xffffffff8808666d                Usim_DecKeyReference
                0xffffffff880866ad                Usim_DecPinStatusTemplateDO
                0xffffffff880867a9                Usim_DecTotalDirFileSize
                0xffffffff880867b9                Usim_DecLifeCycleStatus
                0xffffffff88086825                Usim_DecodePbrRecord
                0xffffffff880870d1                Usim_DecDirId
                0xffffffff88087131                Usim_DecDirFileDescriptor
                0xffffffff88087161                Usim_DecDfName
                0xffffffff880871b9                Usim_DecodeDFFcp
                0xffffffff8808731d                vfs_async_task_handle
                0xffffffff88087329                vfs_async_init
                0xffffffff88087389                vois_RegisterYourself
                0xffffffff880873a5                vpp_RegisterYourself
                0xffffffff880873c1                api_SetGsmstackStarted
                0xffffffff880873cd                api_get_mm_T3302_default_value
                0xffffffff880873d9                api_get_sm_t3380_value
                0xffffffff880873e5                api_get_sm_t3390_value
                0xffffffff880873f1                api_get_sm_t3380_maxcount
                0xffffffff880873fd                api_get_sm_t3390_maxcount
                0xffffffff88087409                api_CheckTestSim
                0xffffffff88087419                api_DoNothing
                0xffffffff88087449                api_ParseMsg
                0xffffffff880875e9                api_Parse
                0xffffffff88087671                api_ParseSignal
                0xffffffff880876c9                api_Init
                0xffffffff88087775                api_GiveDsc
                0xffffffff88088635                api_PsDetachReq
                0xffffffff8808869d                api_PsAttachReq
                0xffffffff880886f9                api_TrsSimCloseInd
                0xffffffff88088729                api_TrsStopCnf
                0xffffffff880887b9                api_TrsMemoryAlert
                0xffffffff88088831                api_TrsMemAlertExp
                0xffffffff88088855                api_TrsUlCongInd
                0xffffffff880888d9                api_SetDebugMode
                0xffffffff88088951                api_TrsDbgInfoCmd
                0xffffffff8808896d                api_DebugNotification
                0xffffffff880889ad                smspp_TrsReceiveInd
                0xffffffff88088a5d                smspp_TrsErrorInd
                0xffffffff88088b05                smspp_TrsAckInd
                0xffffffff88088b89                api_TrsStopReq
                0xffffffff88088bd9                api_TrsSmsPPErrorReq
                0xffffffff88088c99                api_TrsSmsPPAckReq
                0xffffffff88088d39                api_TrsSmsPPSendReq
                0xffffffff88088df5                api_TrsSimOpenInd
                0xffffffff88088e75                api_TrsSimCloseCnf
                0xffffffff88088f61                api_TrsImeiReq
                0xffffffff88088fd1                api_TrsStartReq
                0xffffffff880890e5                WatchDog_Close
                0xffffffff880890f5                WatchDog_KeepAlive
                0xffffffff88089105                WatchDogSetPeriod
                0xffffffff88089115                WatchDog_Open
                0xffffffff8808912d                api_SendMsg
                0xffffffff8808916d                api_PrepSmsMsg
                0xffffffff880891b1                api_PrepMsg
                0xffffffff880891f9                api_UlFlowCtrl
                0xffffffff880892bd                api_CheckCurrentSimTestSim
                0xffffffff880892d5                ars_RegisterYourself
                0xffffffff880892f1                __assert
                0xffffffff88089319                aud_CodecGalliteCalibUpdateValues
                0xffffffff88089329                aud_CodecGalliteTonePause
                0xffffffff8808933d                aud_CodecGalliteTone
                0xffffffff88089351                aud_CodecGalliteStreamRecord
                0xffffffff88089395                aud_CodecGalliteStreamPause
                0xffffffff880893a9                aud_CodecGalliteStreamStop
                0xffffffff880893b9                aud_CodecGalliteStreamStart
                0xffffffff880893fd                aud_CodecGalliteSetup
                0xffffffff8808940d                aud_SetCurOutputDevice
                0xffffffff88089421                aud_GetCurOutputDevice
                0xffffffff8808942d                aud_LoudspeakerWithEarpiece
                0xffffffff88089439                aud_TestModeRegisterMallocFreeFunc
                0xffffffff88089459                aud_GetMicMuteFlag
                0xffffffff88089465                aud_EnFMRecNewPath
                0xffffffff88089479                aud_GetBtNRECFlag
                0xffffffff88089489                aud_GetOutAlgGainDb2Val
                0xffffffff88089499                aud_InitEarpieceSetting
                0xffffffff880894a9                aud_GetForceReceiverMicSelectionFlag
                0xffffffff880894b9                aud_ToneSetup
                0xffffffff880894e5                aud_MutexRelease
                0xffffffff88089501                aud_MutexTake
                0xffffffff88089541                aud_MuteOutputDevice
                0xffffffff88089569                aud_EnableEarpieceSetting
                0xffffffff880895ad                aud_ForceReceiverMicSelection
                0xffffffff880895d5                aud_TonePause
                0xffffffff88089641                aud_ToneStop
                0xffffffff880896bd                aud_ToneStart
                0xffffffff88089785                aud_StreamRecord
                0xffffffff88089859                aud_StreamPause
                0xffffffff88089905                aud_StreamStop
                0xffffffff880899e1                aud_StreamStart
                0xffffffff88089ae1                aud_Setup
                0xffffffff88089bf5                aud_FmEnRecNewPath
                0xffffffff88089c09                aud_FmCalibUpdateValues
                0xffffffff88089c19                aud_FmTonePause
                0xffffffff88089c2d                aud_FmTone
                0xffffffff88089c41                aud_FmStreamRecord
                0xffffffff88089c9d                aud_FmStreamPause
                0xffffffff88089cb1                aud_FmStreamStop
                0xffffffff88089cc1                aud_FmStreamStart
                0xffffffff88089d09                aud_FmSetup
                0xffffffff88089d19                aud_RegisterYourself
                0xffffffff88089d35                BAL_TH
                0xffffffff88089d55                BAL_DecompressCode
                0xffffffff88089d71                BAL_TaskInit
                0xffffffff8808a1c9                BAL_DevHandlerInit
                0xffffffff8808a1ed                BAL_BackgroundTask
                0xffffffff8808a241                CFW_bal_GetTaskHandle
                0xffffffff8808a255                DM_SendArlarmMessage
                0xffffffff8808a28d                DM_SendPowerOnMessage
                0xffffffff8808a2c5                DM_SendPMMessage
                0xffffffff8808a311                BAL_DevMonitorTask
                0xffffffff8808a589                BAL_SysTask
                0xffffffff8808a6f1                DM_SendKeyMessage
                0xffffffff8808a771                bcpu_RegisterYourself
                0xffffffff8808a7b1                calib_GetPointers
                0xffffffff8808a7bd                calib_DaemonTracePrint
                0xffffffff8808a7c1                calib_CheckCalibVersion
                0xffffffff8808a7c5                calib_DaemonSetContext
                0xffffffff8808a7d1                calib_DaemonSetNsftContext
                0xffffffff8808a7dd                calib_SetStationFlag
                0xffffffff8808a849                calib_GetStationPassFlag
                0xffffffff8808aaed                calib_CheckRfCrc
                0xffffffff8808ab71                calib_DaemonInit
                0xffffffff8808adfd                calib_DaemonProcess
                0xffffffff8808b2c5                calib_DaemonUsrDataProcess
                0xffffffff8808b32d                calib_RegisterYourself
                0xffffffff8808b349                calib_SapInitUsr
                0xffffffff8808b3e5                calib_StubTaskInit
                0xffffffff8808b4ad                cb_ParseSignal
                0xffffffff8808b4b1                cb_ParseMsg
                0xffffffff8808b5d1                cb_Init
                0xffffffff8808b619                cb_TrsDoNothing
                0xffffffff8808b61d                cbRxBlk_DataInd
                0xffffffff8808b7a1                cb_InitIdle
                0xffffffff8808b7dd                cbIdle_DataInd
                0xffffffff8808b9a5                cb_InitNull
                0xffffffff8808b9cd                cbNull_ActivateReq
                0xffffffff8808ba35                cbNull_CellInd
                0xffffffff8808ba5d                cbGene_CellInd
                0xffffffff8808bb7d                cbGene_DeactivateReq
                0xffffffff8808bbc1                cbGene_ActivateReq
                0xffffffff8808bc6d                cb_FindSmsCbCtx
                0xffffffff8808bcb5                cb_7To8bitsData
                0xffffffff8808bd0d                cb_SchedMIdOk
                0xffffffff8808bd45                cb_IsWantedDCS
                0xffffffff8808bd95                cb_IsWantedMId
                0xffffffff8808bde5                cb_HdleMsgDsc
                0xffffffff8808beb1                cb_StopRcvSchedMsg
                0xffffffff8808bf19                cb_GetRelSlot
                0xffffffff8808bf81                cb_UpdtSchedCtx
                0xffffffff8808c01d                cb_FreeSchedCtx
                0xffffffff8808c059                cb_CheckSchedValidity
                0xffffffff8808c0b5                cb_ReleaseCfgLists
                0xffffffff8808c0dd                cb_SndSkipReq
                0xffffffff8808c1a1                cb_SndCbchReq
                0xffffffff8808c1e5                cb_UpdCellPar
                0xffffffff8808c251                cb_DelHistory
                0xffffffff8808c2e1                cb_AddInHistory
                0xffffffff8808c369                cb_DelSmsCbCtx
                0xffffffff8808c43d                cb_ClearSmsCbCtx
                0xffffffff8808c4c9                cb_ProcessCbMsg
                0xffffffff8808ca59                cb_SaveCfgLists
                0xffffffff8808cac9                cb_StopRcvSmsCbMsg
                0xffffffff8808cc05                cc_Parse
                0xffffffff8808ce45                cc_EvtParse
                0xffffffff8808ceb1                cc_MsgParse
                0xffffffff8808cf91                cc_Init
                0xffffffff8808d01d                cc_GiveDsc
                0xffffffff8808d469                cc_EndProcDtmf_Gene
                0xffffffff8808d4e5                cc_AckProcDtmf_Gene
                0xffffffff8808d561                cc_apiStopDtmfReq_Gene
                0xffffffff8808d57d                cc_apiStartDtmfReq_Gene
                0xffffffff8808d59d                cc_Status_Gene
                0xffffffff8808d705                cc_TrsnApiRelCmpt
                0xffffffff8808d755                cc_UserInfo_Gene
                0xffffffff8808d7c1                cc_apiUserInfoReq_Gene
                0xffffffff8808d8d9                cc_Facility_Gene
                0xffffffff8808d97d                cc_ReleaseCmpl_Gene
                0xffffffff8808da59                cc_Release_Gene
                0xffffffff8808db45                cc_Disconnect_Gene
                0xffffffff8808dc91                cc_Progress_Gene
                0xffffffff8808dd09                cc_mmEstabErr_Gene
                0xffffffff8808dd45                cc_mmReleaseInd_Gene
                0xffffffff8808dd65                cc_rrChanMode_Gene
                0xffffffff8808de8d                cc_StatusEnquiry_Gene
                0xffffffff8808dea1                cc_apiDiscReq_Gene
                0xffffffff8808dec5                cc_SendMsg
                0xffffffff8808df4d                cc_PrepMsg
                0xffffffff8808dfa9                cc_TS10Exp_REEST
                0xffffffff8808dfcd                cc_mmReestabErr_REEST
                0xffffffff8808e00d                cc_mmReestabCnf_REEST
                0xffffffff8808e051                cc_apiDiscReq_REEST
                0xffffffff8808e0a5                cc_GiveDataIndDsc
                0xffffffff8808e47d                cc_EncCause
                0xffffffff8808e495                cc_DoNothing
                0xffffffff8808e499                cc_TICmp
                0xffffffff8808e4a5                cc_AllocTI
                0xffffffff8808e515                cc_EncSdConnect
                0xffffffff8808e641                cc_HdleAudioOn
                0xffffffff8808e685                cc_HdleProgressInd
                0xffffffff8808e6b9                cc_SdApiErrorInd
                0xffffffff8808e715                cc_EncSdSimpleMsg
                0xffffffff8808e761                cc_ReadSimSST
                0xffffffff8808e8b5                cc_EncSdAlert
                0xffffffff8808e9b9                cc_StopAllTimers
                0xffffffff8808eb15                cc_RelCon
                0xffffffff8808eb85                cc_EncSdRelCmplt
                0xffffffff8808ec5d                cc_EncSdStatus
                0xffffffff8808eda9                cc_InconState
                0xffffffff8808edcd                cc_EncSdRelMO
                0xffffffff8808ef79                cc_CreateCtx
                0xffffffff8808f051                cc_CallClearing
                0xffffffff8808f2e9                cc_TimerCallClear
                0xffffffff8808f339                cc_mmReleaseInd_U0
                0xffffffff8808f34d                cc_rrChanMode_U0
                0xffffffff8808f39d                cc_Setup_U0
                0xffffffff8808f5c1                cc_apiSetupReq_U0
                0xffffffff8808f665                cc_InitU0
                0xffffffff8808f7d9                cc_mmPageBegin_U01
                0xffffffff8808f851                cc_TWaitLuExp_U01
                0xffffffff8808f871                cc_mmLocUp_U01
                0xffffffff8808f941                cc_TRetryExp_U01
                0xffffffff8808f98d                cc_T303Exp_U01
                0xffffffff8808f9b9                cc_mmServReq_U01
                0xffffffff8808f9fd                cc_mmEstabErr_U01
                0xffffffff8808fb6d                cc_apiDiscReq_U01
                0xffffffff8808fc31                cc_mmEstabCnf_U01
                0xffffffff8808ff1d                cc_apiDiscReq_U1
                0xffffffff88090001                cc_Connect_U1
                0xffffffff880901a1                cc_Alerting_U1
                0xffffffff8809028d                cc_CallProceeding_U1
                0xffffffff88090471                cc_InitU10
                0xffffffff88090475                cc_CongCtrl_U10
                0xffffffff880904f1                cc_Notify_U10
                0xffffffff88090529                cc_apiNotifyReq_U10
                0xffffffff8809057d                cc_apiModifyRejReq_U10
                0xffffffff88090699                cc_RtrvRej_U10
                0xffffffff88090729                cc_RtrvAck_U10
                0xffffffff88090799                cc_HoldRej_U10
                0xffffffff88090825                cc_HoldAck_U10
                0xffffffff88090899                cc_apiModifyCmpltReq_U10
                0xffffffff880909bd                cc_Modify_U10
                0xffffffff88090bf9                cc_ModifyRej_U10
                0xffffffff88090ca5                cc_ModifyCmplt_U10
                0xffffffff88090d45                cc_apiModifyReq_U10
                0xffffffff88090e7d                cc_TECTExp_U10
                0xffffffff88090ea1                cc_mmReleaseInd_U10
                0xffffffff88090f5d                cc_TMPTYExp_U10
                0xffffffff88090fc1                cc_apiFacilityReq_U10
                0xffffffff880913cd                cc_apiCallRtrvReq_U10
                0xffffffff88091459                cc_apiCallHoldReq_U10
                0xffffffff88091501                cc_T305Exp_U11
                0xffffffff880915dd                cc_apiRelReq_U12
                0xffffffff880915f5                cc_T308Exp_U19
                0xffffffff88091695                cc_Release_U19
                0xffffffff880916e5                cc_apiCallConfReq_U6
                0xffffffff880918b5                cc_ConnectAck_U8
                0xffffffff8809196d                cc_apiConnectReq_U9
                0xffffffff880919fd                cc_apiAlertReq_U9
                0xffffffff88091a6d                CFW_CfgInit
                0xffffffff88091ae1                CFW_CfgSimGetChvParam
                0xffffffff88091af1                CFW_CfgSimGetMicParam
                0xffffffff88091b05                CFW_CfgSimGetSatParam
                0xffffffff88091b49                CFW_CfgSimGetPbkParam
                0xffffffff88091b91                CFW_CfgSimParamsInit
                0xffffffff88091cb9                NV_SetSmsSimOptStor
                0xffffffff88091d01                NV_GetSmsSimOptStor
                0xffffffff88091d41                NV_SetSmsSimOption
                0xffffffff88091d89                NV_GetSmsSimOption
                0xffffffff88091dc9                NV_SetSmsSimParaml
                0xffffffff88091e3d                NV_GetSmsSimParaml
                0xffffffff88091ead                NV_SetSmsDefParamInd
                0xffffffff88091ef5                NV_GetSmsDefParamInd
                0xffffffff88091f35                NV_SetSmsFullForNew
                0xffffffff88091f7d                NV_GetSmsFullForNew
                0xffffffff88091fbd                NV_SetSmsOverInd
                0xffffffff88092005                NV_GetSmsOverInd
                0xffffffff88092045                NV_GetSmsStorage
                0xffffffff8809208d                NV_SetSimSoftReset
                0xffffffff880920c9                NV_SetGprsDwnSumSim
                0xffffffff88092111                NV_GetGprsDwnSumSim
                0xffffffff88092155                NV_SetGprsUpSumSim
                0xffffffff8809219d                NV_GetGprsUpSumSim
                0xffffffff880921e1                NV_GetNwDetectMBS
                0xffffffff88092215                NV_SetNwSimStoreLast
                0xffffffff88092261                NV_GetNwSimStoreLast
                0xffffffff880922a5                NV_SetNwSimArfceList
                0xffffffff8809230d                NV_GetNwSimArfceList
                0xffffffff88092375                NV_SetNwSimBaCount
                0xffffffff880923bd                NV_GetNwSimBaCount
                0xffffffff880923fd                NV_SetNwSimPlmn
                0xffffffff88092461                NV_GetNwSimPlmn
                0xffffffff880924bd                NV_SetNwSimFregBand
                0xffffffff88092505                NV_GetNwSimFregBand
                0xffffffff88092545                NV_GetNwSimLockFreq
                0xffffffff88092585                NV_GetNwSimGpclass
                0xffffffff880925c5                NV_SetNwSimFlightMode
                0xffffffff88092609                NV_GetNwSimFlightMode
                0xffffffff88092649                NV_SetNwSimWorkMode
                0xffffffff88092691                NV_GetNwSimWorkMode
                0xffffffff880926d1                NV_SetGenImsiSim
                0xffffffff88092735                NV_GetGenImsiSim
                0xffffffff88092791                NV_GetGenIndEvent
                0xffffffff880927c5                NV_GetGenMemInfo
                0xffffffff8809281d                NV_GetCmColpSim
                0xffffffff8809285d                NV_GetCmClirSim
                0xffffffff8809289d                NV_GetCmCcwaSim
                0xffffffff880928dd                NV_SetCmPublic
                0xffffffff88092919                NV_GetCmPublic
                0xffffffff8809294d                NV_SetTmAlarml
                0xffffffff880929b9                NV_GetTmAlarml
                0xffffffff88092a21                NV_SetTmTime
                0xffffffff88092a79                NV_GetTmBase
                0xffffffff88092acd                NV_GetTmAlarm
                0xffffffff88092b21                NV_SetTmZone
                0xffffffff88092b79                NV_GetTmZone
                0xffffffff88092bcd                NV_GetTmFormat
                0xffffffff88092c21                NV_Init
                0xffffffff88092e25                COS_GetHeapUsageStatus
                0xffffffff88092e69                csw_MemIint
                0xffffffff88092fa9                COS_Free
                0xffffffff88093029                free
                0xffffffff88093039                Stack_MsgFree
                0xffffffff8809304d                CSW_Free
                0xffffffff880930b9                COS_UpdateMemCallAdd
                0xffffffff880930c9                COS_Malloc
                0xffffffff88093149                calloc
                0xffffffff88093179                malloc
                0xffffffff88093189                COS_Realloc
                0xffffffff880931dd                CSW_Malloc
                0xffffffff8809323d                Stack_MsgMalloc
                0xffffffff88093281                COS_Msec2Tick
                0xffffffff88093291                COS_Tick2Msec
                0xffffffff880932a1                COS_SemaInited
                0xffffffff880932b1                COS_MutexDestroy
                0xffffffff880932d9                COS_SemaDestroy
                0xffffffff88093301                COS_MutexUnlock
                0xffffffff88093341                COS_SemaRelease
                0xffffffff88093379                COS_MutexLock
                0xffffffff880933d1                COS_SemaTake
                0xffffffff88093415                COS_MutexInit
                0xffffffff88093439                COS_SemaInit
                0xffffffff8809345d                COS_GetTickCount
                0xffffffff8809346d                COS_UnlockMutex
                0xffffffff8809348d                COS_LockMutex
                0xffffffff880934a1                COS_DeleteMutex
                0xffffffff880934b5                COS_CreateMutex
                0xffffffff880934c5                COS_ReleaseSemaphore
                0xffffffff880934dd                COS_WaitForSemaphore
                0xffffffff880934f5                COS_DeleteSemaphore
                0xffffffff8809350d                COS_CreateSemaphore
                0xffffffff88093521                COS_Sleep
                0xffffffff88093545                COS_QueryCallbackTimer
                0xffffffff88093575                COS_StopCallbackTimer
                0xffffffff8809359d                COS_StartCallbackTimer
                0xffffffff88093601                COS_TaskCallbackNotif
                0xffffffff8809365d                COS_TaskCallback
                0xffffffff8809368d                COS_SendEvent
                0xffffffff880936c1                COS_KillTimerEX
                0xffffffff880936f1                COS_SetTimerEX
                0xffffffff88093739                COS_IsEventAvailable
                0xffffffff88093755                COS_ResetEventQueue
                0xffffffff8809376d                COS_SendSysEvent
                0xffffffff8809379d                COS_TaskEventCount
                0xffffffff880937bd                COS_WaitEvent
                0xffffffff88093855                COS_Assert
                0xffffffff880938ad                COS_GetDefaultMmiTaskHandle
                0xffffffff880938d5                COS_ResumeTask
                0xffffffff880938e9                COS_SuspendTask
                0xffffffff880938fd                COS_DeleteTask
                0xffffffff8809391d                COS_GetCurrentTaskHandle
                0xffffffff8809392d                COS_SetLastError
                0xffffffff88093945                COS_TaskCallbackSync
                0xffffffff880939b1                COS_TaskWaitEventHandled
                0xffffffff880939c5                COS_CreateTask_Prv
                0xffffffff88093a41                COS_StartTask
                0xffffffff88093a51                COS_CreateTask
                0xffffffff88093acd                COS_StopTask
                0xffffffff88093adc                memd_ChangeDdr
                0xffffffff88093df0                memd_ChangeVcore
                0xffffffff88093e1d                DM_BuzzerOpen
                0xffffffff88093e31                DM_BuzzerVibratingOff
                0xffffffff88093e79                DM_BuzzerVibratingOn
                0xffffffff88093ec1                DM_BuzzerStop
                0xffffffff88093eed                DM_BuzzerPlay
                0xffffffff8809401d                DM_BuzzerDelayNmS
                0xffffffff8809402d                DM_BuzzerSongMsg
                0xffffffff88094221                DM_GetStdKey
                0xffffffff8809423d                DM_KeyInit
                0xffffffff88094265                DM_KeyHandler
                0xffffffff88094315                csw_SetResourceActivity
                0xffffffff8809437d                DM_KeyboardInit
                0xffffffff8809439d                DM_Init
                0xffffffff880943c9                Delay_for_audio
                0xffffffff880943ed                DM_SetSPKMuteFlag
                0xffffffff880943f9                DM_GetSPKMuteFlag
                0xffffffff88094405                DM_ArsStopEx
                0xffffffff88094419                DM_ArsPauseEx
                0xffffffff88094435                DM_ArsRecordEx
                0xffffffff88094459                DM_ArsSetupEx
                0xffffffff88094475                DM_VoisRecordStopEx
                0xffffffff88094489                DM_VoisRecordStartEx
                0xffffffff880944a5                DM_AudLoudspeakerWithEarpieceEx
                0xffffffff880944b9                DM_AudMuteOutputDeviceEx
                0xffffffff880944cd                DM_AudSetCurOutputDeviceEx
                0xffffffff880944e1                DM_AudForceReceiverMicSelectionEx
                0xffffffff880944f5                DM_AudTestModeSetupEx
                0xffffffff88094519                DM_AudStreamRecordEx
                0xffffffff88094539                DM_AudStreamPauseEx
                0xffffffff88094561                DM_AudStreamStopEx
                0xffffffff8809457d                DM_AudStreamStartEx
                0xffffffff8809459d                DM_AudSetupEx
                0xffffffff880945b9                DM_StartAudio
                0xffffffff880945fd                DM_StopAudio
                0xffffffff8809463d                Mic_open
                0xffffffff88094685                DM_MicOpen
                0xffffffff8809469d                Mic_close
                0xffffffff880946e9                DM_MicClose
                0xffffffff880946fd                Speaker_Open
                0xffffffff88094745                DM_SpeakerOpen
                0xffffffff88094759                Speaker_Close
                0xffffffff880947a5                DM_SpeakerClose
                0xffffffff880947b9                DM_StopAudioEX
                0xffffffff88094831                DM_ResumMic
                0xffffffff880948b1                DM_MuteMic
                0xffffffff8809492d                DM_SetAudioModeEX
                0xffffffff88094a09                DM_ResumSpeaker
                0xffffffff88094a6d                DM_MuteSpeaker
                0xffffffff88094bf9                DM_sysMSleep
                0xffffffff88094c09                DM_StartAudioEX
                0xffffffff88094cc9                DM_SetAudioVolumeEX
                0xffffffff88094da9                DM_SetMicGainEX
                0xffffffff88094f01                DM_ToneTimerHandlerEx
                0xffffffff880950dd                DM_SendAudOperResult
                0xffffffff88095175                DM_ToneMsgHandlerEx
                0xffffffff880953b9                DM_GetAudSyncSlot
                0xffffffff88095425                DM_WaitAudOperResult
                0xffffffff880954d1                DM_StopTone
                0xffffffff88095521                DM_StartRingTone
                0xffffffff88095585                DM_PlayTone
                0xffffffff88095665                DM_SetAudioVolume
                0xffffffff880956b5                DM_SetAudioMode
                0xffffffff88095709                DM_SetMicGain
                0xffffffff88095759                DM_AudInit
                0xffffffff88095819                DM_DeviceSwithOff
                0xffffffff88095849                DM_CheckPowerOnCause
                0xffffffff880958c9                DM_PowerOnCheck
                0xffffffff88095911                DRV_FlashInit
                0xffffffff88095915                DRV_FlashPowerUp
                0xffffffff88095919                DRV_CacheGetNodeCount
                0xffffffff88095929                DRV_SuspendIsEnable
                0xffffffff88095939                DRV_CacheFlush
                0xffffffff88095949                DRV_SuspendDisable
                0xffffffff88095959                DRV_SuspendEnable
                0xffffffff88095969                DRV_FlashRegionMap
                0xffffffff880959a1                DRV_EraseFlashSectorResume
                0xffffffff88095a0d                DRV_WriteFlash
                0xffffffff88095acd                DRV_ReadFlash
                0xffffffff88095b91                DRV_EraseFlashSectorFirst
                0xffffffff88095c3d                DRV_EraseFlashSector
                0xffffffff88095cb9                DRV_EraseAllUserDataSector
                0xffffffff88095d25                DRV_GpioSetMode
                0xffffffff88095d29                DRV_GpioSetLevel
                0xffffffff88095d65                DRV_GpioSetDirection
                0xffffffff88095db9                DSM_GetDevType
                0xffffffff88095de5                DSM_GetDevModuleId
                0xffffffff88095e11                DSM_GetDeviceInfo
                0xffffffff88095e45                DSM_SemInit
                0xffffffff88095e5d                DSM_GetFsRootDevName
                0xffffffff88095ea5                DSM_DevName2DevNo
                0xffffffff88095ef1                DSM_DevInit
                0xffffffff88096255                reportDTMFChar
                0xffffffff88096259                DTMF_DetectStop
                0xffffffff8809627d                DTMF_DetectFinish
                0xffffffff88096299                DTMF_DetectRun
                0xffffffff880962e1                DTMF_DetectStart
                0xffffffff88096361                DTMF_DetectPushVoiceData
                0xffffffff8809642d                checkDtmfChar
                0xffffffff88096575                DTMF_Detect_Process
                0xffffffff88096669                dtmf_init_coeff
                0xffffffff8809666d                dtmf_validframe_check
                0xffffffff880966a5                tone_check_character
                0xffffffff88096a19                dtmf_check_character
                0xffffffff88096d69                FREE_TCcch_Data
                0xffffffff88096d95                SETPRESENT_TCcch_Data
                0xffffffff88096de1                FREE_TccDl_Data
                0xffffffff88096e0d                SETPRESENT_TccDl_Data
                0xffffffff88096e59                FREE_TmmDl_Data
                0xffffffff88096e85                SETPRESENT_TmmDl_Data
                0xffffffff88096ed1                FREE_TDchD_Data
                0xffffffff88096efd                SETPRESENT_TDchD_Data
                0xffffffff88096f79                FACTORY_ReadField
                0xffffffff88096fbd                FACTORY_SyncReadField
                0xffffffff88097049                factory_FlushEraseBegin
                0xffffffff88097271                FACTORY_WriteField
                0xffffffff880972bd                FACTORY_SyncWriteField
                0xffffffff880972ed                FACTORY_Init
                0xffffffff88097461                FS_GetDeviceInfo
                0xffffffff88097489                FS_GetCurDir
                0xffffffff880974ed                FS_PowerOn
                0xffffffff88097549                FS_GetFileSize
                0xffffffff88097601                FS_IsEndOfFile
                0xffffffff88097689                FS_Seek
                0xffffffff880977e9                FS_GetFileName
                0xffffffff880978c9                FS_Flush
                0xffffffff88097949                FS_ChangeSize
                0xffffffff88097aa9                FS_Truncate
                0xffffffff88097ab9                FS_RemoveDir
                0xffffffff88097c7d                FS_Delete
                0xffffffff88097dfd                FS_FindNextFile
                0xffffffff88097f7d                FS_MakeDir
                0xffffffff880980f1                FS_Write
                0xffffffff8809820d                FS_Read
                0xffffffff88098365                FS_Close
                0xffffffff8809842d                FS_Open
                0xffffffff880986d5                FS_Create
                0xffffffff880986ed                FS_FindFirstFile
                0xffffffff88098901                FS_ChangeDir
                0xffffffff88098a71                FS_FindClose
                0xffffffff88098b21                FS_GetDirSize
                0xffffffff88098f39                FS_Mount
                0xffffffff88099141                FS_MountRoot
                0xffffffff88099305                FS_Rename
                0xffffffff88099555                FS_GetFSInfo
                0xffffffff8809967d                FS_Format
                0xffffffff88099769                FS_HasFormatted
                0xffffffff88099821                fs_set_error_code
                0xffffffff8809999d                fs_get_free_sb
                0xffffffff880999d5                fs_find_sb
                0xffffffff88099a11                fs_get_inode_super
                0xffffffff88099a3d                fs_fd_list_add
                0xffffffff88099a51                fs_is_file_opened
                0xffffffff88099a69                fs_is_opened
                0xffffffff88099a89                fs_get_partition_offset
                0xffffffff88099ac5                fs_get_file_name
                0xffffffff88099ae5                fs_write_inode
                0xffffffff88099b05                fs_file_truncate
                0xffffffff88099b2d                fs_file_extend
                0xffffffff88099b51                fs_file_write
                0xffffffff88099b75                fs_file_read
                0xffffffff88099b99                fs_trunc_file
                0xffffffff88099bbd                fs_create_file
                0xffffffff88099be1                fs_do_unlink
                0xffffffff88099c05                fs_do_link
                0xffffffff88099c25                fs_fd_list_del
                0xffffffff88099c59                fs_read_mbr
                0xffffffff88099d01                fs_read_super
                0xffffffff88099df5                fs_set_mbr_type
                0xffffffff88099e6d                fs_write_mbr
                0xffffffff88099fcd                fs_format
                0xffffffff8809a155                fs_alloc_fd
                0xffffffff8809a189                fs_delete_sb
                0xffffffff8809a1e5                fs_scan_disk
                0xffffffff8809a281                fs_has_formated
                0xffffffff8809a2e9                fs_set_work_dir
                0xffffffff8809a4d5                fs_global_var_init
                0xffffffff8809a759                inode_list_add
                0xffffffff8809a76d                inode_list_del
                0xffffffff8809a7a1                get_empty_inode
                0xffffffff8809a7d5                iput
                0xffffffff8809a811                iget
                0xffffffff8809a8c9                is_file_name_valid
                0xffffffff8809a9ed                fs_findclose
                0xffffffff8809aa9d                fs_close
                0xffffffff8809ab3d                do_find_entry
                0xffffffff8809ac1d                fs_find_entry
                0xffffffff8809ac45                dir_namei
                0xffffffff8809ad75                namei
                0xffffffff8809ade1                pattern_match_oem
                0xffffffff8809af49                pattern_match
                0xffffffff8809b101                format_dir_name
                0xffffffff8809b185                fsm_IdxEvt
                0xffffffff8809b1b1                fsm_FindEvt
                0xffffffff8809b1e5                fsm_Save
                0xffffffff8809b2ad                fsm_Retrieve
                0xffffffff8809b315                fsm_Run
                0xffffffff8809b47d                hal_AudDacGainDb2Val
                0xffffffff8809b495                hal_AudAdcGainDb2Val
                0xffffffff8809b4b1                hal_AudSetAdcVolume
                0xffffffff8809b4d1                hal_AudSetDacVolume
                0xffffffff8809b4f5                hal_AudEnableAuxpll
                0xffffffff8809b561                hal_AudEnableDSSI
                0xffffffff8809b5ad                hal_AudSetFmMode
                0xffffffff8809b665                hal_AbbEnableSim
                0xffffffff8809b6ad                hal_AbbEnableUsbPhy
                0xffffffff8809b6cd                hal_AudSetCodecMode
                0xffffffff8809b7a9                hal_AudSetAdcSampleRate
                0xffffffff8809b909                hal_AudSetSampleRate
                0xffffffff8809ba0d                hal_AudSetHPMode
                0xffffffff8809ba35                hal_AudEnableCodecDsp
                0xffffffff8809ba95                hal_AudEnableDac
                0xffffffff8809bad1                hal_AudSetVoiceMode
                0xffffffff8809bb11                hal_AbbIspiReadOutputSelect
                0xffffffff8809bb41                hal_AbbOpen
                0xffffffff8809bc99                hal_DcacheFlushAll
                0xffffffff8809bccd                hal_DcacheFlushAddrRange
                0xffffffff8809bd15                hal_TimRtcSetTime
                0xffffffff8809bd99                hal_TimRtcNotProgrammed
                0xffffffff8809bda9                hal_TimRtcIrqSetMask
                0xffffffff8809bdc9                hal_TimRtcSetAlarm
                0xffffffff8809be3d                hal_TimRtcAlarmEnable
                0xffffffff8809be55                hal_TimRtcAlarmIrqSetHandler
                0xffffffff8809be61                hal_TimRtcIrqHandler
                0xffffffff8809bed1                hal_TimRtcGetTime
                0xffffffff8809bf95                hal_CameraSetVsyncInvert
                0xffffffff8809bfcd                hal_CameraControllerEnable
                0xffffffff8809bffd                hal_CameraIrqHandler
                0xffffffff8809c039                hal_CameraSetupClockDivider
                0xffffffff8809c06d                clkInitCAM
                0xffffffff8809c099                hal_CameraPowerDown
                0xffffffff8809c1f5                hal_CameraReset
                0xffffffff8809c255                hal_CameraClose
                0xffffffff8809c2b5                hal_CameraOpen
                0xffffffff8809c605                hal_SwUserIsActive
                0xffffffff8809c619                hal_SwReleaseClk
                0xffffffff8809c62d                hal_SwRequestClk
                0xffffffff8809c69d                hal_ClkGetRate
                0xffffffff8809c6ad                hal_ClkSetRate
                0xffffffff8809c6c1                hal_ClkIsEnabled
                0xffffffff8809c6d9                hal_ClkDisable
                0xffffffff8809c6e9                hal_ClkEnable
                0xffffffff8809c6fd                hal_ClkGet
                0xffffffff8809c70d                hal_ClkInit
                0xffffffff8809c7e9                hal_GoudaUpdateSerialTiming
                0xffffffff8809c855                hal_GoudaIsActive
                0xffffffff8809c879                hal_GoudaSetBlock
                0xffffffff8809c885                hal_GoudaSetBgColor
                0xffffffff8809c895                hal_GoudaGetBgColor
                0xffffffff8809c8a5                hal_GoudaIrqHandler
                0xffffffff8809c8c9                clkInitLCD
                0xffffffff8809c8f5                hal_GoudaOvlLayerClose
                0xffffffff8809c929                hal_GoudaOvlLayerOpen
                0xffffffff8809ca25                hal_GoudaWriteData
                0xffffffff8809ca91                hal_GoudaWriteCmd
                0xffffffff8809cafd                hal_GoudaReadData
                0xffffffff8809cc7d                hal_GoudaReadReg
                0xffffffff8809cced                hal_GoudaWriteReg
                0xffffffff8809cd79                hal_GoudaInitResetPin
                0xffffffff8809cdc5                hal_GoudaBlitRoi2Ram
                0xffffffff8809ceb9                hal_GoudaBlitRoi
                0xffffffff8809cfe1                hal_GoudaClose
                0xffffffff8809d0d5                hal_GoudaSerialOpen
                0xffffffff8809d16d                hal_GpioGetCfg
                0xffffffff8809d171                hal_GpioIrqHandler
                0xffffffff8809d1e5                hal_GpioIrqSetHandler
                0xffffffff8809d22d                hal_GpioResetIrq
                0xffffffff8809d275                hal_GpioIrqSetMask
                0xffffffff8809d385                hal_GpioGet
                0xffffffff8809d3d1                hal_GpioSetIn
                0xffffffff8809d419                hal_GpioSetOut
                0xffffffff8809d461                hal_GpioClose
                0xffffffff8809d4e5                hal_GpioOpen
                0xffffffff8809d58d                hal_I2cUpdateDivider
                0xffffffff8809d639                hal_I2C_ReadRawByte
                0xffffffff8809d7a9                hal_I2C_SendRawByte
                0xffffffff8809d8e9                hal_I2C_ReadMem
                0xffffffff8809dc59                hal_I2C_WriteMem
                0xffffffff8809dfb1                hal_I2C_Receive
                0xffffffff8809e249                hal_I2C_Transmit
                0xffffffff8809e4e1                clkInitI2C
                0xffffffff8809e50d                hal_I2cClose
                0xffffffff8809e53d                hal_I2cOpen
                0xffffffff8809e7d5                hal_KeyClose
                0xffffffff8809e7e9                hal_KeyOnOffStateGet
                0xffffffff8809e7f9                hal_KeyOnOffStateAtPowerOn
                0xffffffff8809e821                hal_KeyIrqSetHandler
                0xffffffff8809e83d                hal_KeyIrqSetMask
                0xffffffff8809e8e5                hal_KeyIrqHandler
                0xffffffff8809ea6d                hal_KeyRemoteHandler
                0xffffffff8809ead5                hal_KeyOpen
                0xffffffff8809ebf1                hal_RegisterYourself
                0xffffffff8809ec0d                hal_SdioUpdateDivider
                0xffffffff8809ec49                hal_SdioIrqHandler
                0xffffffff8809ec61                clkInitSDIO
                0xffffffff8809ec8d                hal_SdmmcSetClkMode
                0xffffffff8809ecc9                hal_SdmmcSendCmd
                0xffffffff8809edb1                hal_SdmmcCmdDone
                0xffffffff8809edc5                hal_SdmmcUpdateDivider
                0xffffffff8809ee01                hal_SdmmcGetOpStatus
                0xffffffff8809ee11                hal_SdmmcEnterDataTransferMode
                0xffffffff8809ee29                hal_SdmmcIsBusy
                0xffffffff8809ee5d                clkInitSDMMC
                0xffffffff8809ee89                hal_SdmmcSetDataWidth
                0xffffffff8809eeb9                hal_SdmmcGetResp
                0xffffffff8809ef71                hal_SdmmcNeedResponse
                0xffffffff8809effd                hal_SdmmcStopTransfer
                0xffffffff8809f06d                hal_SdmmcTransferDone
                0xffffffff8809f0f1                hal_SdmmcTransfer
                0xffffffff8809f185                hal_SdmmcSetClk
                0xffffffff8809f1b9                hal_SdmmcSleep
                0xffffffff8809f1d1                hal_SdmmcClose
                0xffffffff8809f209                hal_SdmmcWakeUp
                0xffffffff8809f23d                hal_SdmmcOpen
                0xffffffff8809f2b5                hal_SdmmcUpdateDivider_2
                0xffffffff8809f2f1                clkInitSDMMC2
                0xffffffff8809f31d                hal_UartEnable
                0xffffffff8809f401                hal_UartDisable
                0xffffffff8809f509                hal_UartIrqHandler
                0xffffffff8809f581                clkInitUART2
                0xffffffff8809f5ad                clkInitUART1
                0xffffffff8809f5d9                hal_UartFifoFlush
                0xffffffff8809f61d                hal_UartTxFifoAvailable
                0xffffffff8809f671                hal_UartIrqSetMask
                0xffffffff8809f6c1                hal_UartIrqSetHandler
                0xffffffff8809f701                hal_UartSetRts
                0xffffffff8809f751                hal_UartClearErrorStatus
                0xffffffff8809f789                hal_UartRxDmaDone
                0xffffffff8809f821                hal_UartRxFifoLevel
                0xffffffff8809f871                hal_UartTxFinished
                0xffffffff8809f8d5                hal_UartTxDmaDone
                0xffffffff8809f97d                hal_UartOpen
                0xffffffff8809fcc1                hal_UartRxDmaPurgeFifo
                0xffffffff8809fd3d                hal_UartRxDmaFifoEmpty
                0xffffffff8809fdb9                hal_UartRxDmaLevel
                0xffffffff8809fe35                hal_UartRxDmaStop
                0xffffffff8809feed                hal_UartClose
                0xffffffff8809ffe5                hal_UartGetData
                0xffffffff880a0171                hal_UartSendData
                0xffffffff880a02b1                hal_UsbDescriptorNewCSInterfaceDescriptor
                0xffffffff880a02e1                hal_UsbDescriptorCopyInterfaceDescriptor
                0xffffffff880a0371                l1a_HighBandChangeReq
                0xffffffff880a03d1                itf_ConvTxRmtMsg
                0xffffffff880a03d5                itf_ConvRxRmtMsg
                0xffffffff880a03d9                l1a_TimerParse
                0xffffffff880a03f5                l1a_InitReq
                0xffffffff880a0b4d                l1a_MsgParse
                0xffffffff880a0fd5                l1a_Init
                0xffffffff880a11f1                l1s_CellListPurge
                0xffffffff880a11f5                l1s_Fn
                0xffffffff880a1231                l1s_CounterUpdate
                0xffffffff880a1409                l1s_ResetChannelQuality
                0xffffffff880a1465                l1s_PacketPwrCtrlCfg
                0xffffffff880a14bd                l1s_InitialBox
                0xffffffff880a14f1                l1s_ReleaseBox
                0xffffffff880a1515                l1s_UpdateAimFn
                0xffffffff880a1571                l1s_HoppingArfcn
                0xffffffff880a1641                l1s_HoppingArfcnSlave
                0xffffffff880a1731                l1s_TxPower
                0xffffffff880a1799                l1s_IlData
                0xffffffff880a17a9                l1s_RxQual
                0xffffffff880a17e9                l1s_GetPCchCellGain
                0xffffffff880a1841                l1s_GetPdchGain
                0xffffffff880a18ad                l1s_StartingTime
                0xffffffff880a1915                l1s_ResetCValue
                0xffffffff880a1969                l1s_MeasReport
                0xffffffff880a1991                l1s_SendPSDataInd
                0xffffffff880a19d1                l1s_SynchRsp
                0xffffffff880a1a09                l1s_NearTimer
                0xffffffff880a1c55                l1s_ProceedHo
                0xffffffff880a1e19                l1s_TxPwrCtrlTimer
                0xffffffff880a1ed5                l1s_TOfCtrlTimer
                0xffffffff880a1f6d                l1s_SendTxInd
                0xffffffff880a1fed                l1s_ChangePMeasCtrl
                0xffffffff880a21e9                l1s_FreeCell
                0xffffffff880a22f5                l1s_SetTchChannel
                0xffffffff880a24d9                l1s_TxDiscardQueuePurge
                0xffffffff880a2521                l1s_PDataQueuePurge
                0xffffffff880a2545                l1s_QueuePurge
                0xffffffff880a2559                l1s_SetNewFrequencyParam
                0xffffffff880a25fd                l1s_GetNBlockResult_Fast
                0xffffffff880a285d                l1s_PacketTxPowerUpdate
                0xffffffff880a2a65                l1s_CValueUpdate
                0xffffffff880a2b69                l1s_GetNBlockResult
                0xffffffff880a3a69                l1s_GetNBurstResult
                0xffffffff880a4341                l1s_GetComBox
                0xffffffff880a45dd                l1s_SynchroUpdate
                0xffffffff880a47d9                l1s_QueueRmv
                0xffffffff880a482d                l1s_CellBecomesOld
                0xffffffff880a4881                l1s_UpdtNearRLCnt
                0xffffffff880a4901                l1s_GetSchResult
                0xffffffff880a4bb9                l1s_CheckCell
                0xffffffff880a4c35                l1s_FindCell
                0xffffffff880a4cd1                l1s_RmvCellFromList
                0xffffffff880a4d55                l1s_NewCell
                0xffffffff880a4de9                l1s_ExitHoAccess
                0xffffffff880a4e31                l1s_ExitCchControl
                0xffffffff880a4e69                l1s_HoAccessJob
                0xffffffff880a4fb9                l1s_ExitRach
                0xffffffff880a5015                l1s_ExitCnx
                0xffffffff880a516d                l1s_ExitTch
                0xffffffff880a51d5                l1s_ExitSdcch
                0xffffffff880a5215                l1s_StartBlindHo
                0xffffffff880a52cd                l1s_StartCnx
                0xffffffff880a573d                l1s_TchJob
                0xffffffff880a6069                l1s_SdcchJob
                0xffffffff880a6675                l1s_RachJob
                0xffffffff880a6bf5                l1s_ExitRxBcch
                0xffffffff880a6c65                l1s_ExitRxCbch
                0xffffffff880a6cf1                l1s_ExitRxCch
                0xffffffff880a6db1                l1s_ExitRxCchB
                0xffffffff880a6dc9                l1s_ExitRxCchA
                0xffffffff880a6de1                l1s_RxBcchJob
                0xffffffff880a73e1                l1s_RxCbchJob
                0xffffffff880a79bd                l1s_CchControlJob
                0xffffffff880a7b75                l1s_RxCchCOMJob
                0xffffffff880a8a35                l1s_ExitMonitoring
                0xffffffff880a8b1d                l1s_ExitMonitoringB
                0xffffffff880a8b35                l1s_ExitMonitoringA
                0xffffffff880a8b4d                l1s_MonitoringJob
                0xffffffff880a91c1                l1s_ExitPowerJob
                0xffffffff880a9245                l1s_NearCellBcch
                0xffffffff880a9959                l1s_CheckMinBcchDistance
                0xffffffff880a9a21                l1s_NearCellSch
                0xffffffff880a9b8d                l1s_ExitNearJob
                0xffffffff880a9bc9                l1s_CellSlicedSynch
                0xffffffff880a9ed5                l1s_CellSynch
                0xffffffff880aa799                l1s_NearJob
                0xffffffff880aab71                l1s_PowerJob
                0xffffffff880aaddd                l1s_FrameBoundary
                0xffffffff880aaf15                l1s_FrameInterrupt
                0xffffffff880aaf95                l1s_DspIrq
                0xffffffff880aafe1                l1s_TBFReleaseExit
                0xffffffff880ab009                l1s_PSJob
                0xffffffff880ab00d                l1s_ExitPS
                0xffffffff880ab011                l1s_Allocation
                0xffffffff880ab1b1                l1s_PTCchJob
                0xffffffff880ab661                l1s_PSEncodeTimer
                0xffffffff880aba5d                l1s_TBFSetUpExit
                0xffffffff880abaad                l1s_TBFSetUpJob
                0xffffffff880ac42d                l1s_GetTxBitMap
                0xffffffff880ac665                l1s_PDataQueuePurgeReq
                0xffffffff880ac78d                l1s_ExitPdch
                0xffffffff880ac981                l1s_PdchJob
                0xffffffff880ad6c5                l1s_TBFReleaseJob
                0xffffffff880ad9d5                lap_ProcessEvt
                0xffffffff880ada11                lap_Parse
                0xffffffff880ada6d                lap_ParseEvt
                0xffffffff880adb11                lap_ParseMsg
                0xffffffff880adbb5                lap_Init
                0xffffffff880adca9                lap_GiveEvtdx
                0xffffffff880adcc1                lap_DoNothing
                0xffffffff880adcc5                lap_MFE_RxUa
                0xffffffff880adce1                lap_AllState_RxUi
                0xffffffff880add99                lap_SendRRDelayedMsg
                0xffffffff880addfd                lap_AllState_L1TxInd
                0xffffffff880adfbd                lap_SabmOrDiscSent_T200
                0xffffffff880adfd1                lap_TimerRecovery_T200
                0xffffffff880adfe5                lap_MFE_T200
                0xffffffff880ae009                lap_AllState_LocalReleaseReq
                0xffffffff880ae041                lap_AllState_UnitDataReq
                0xffffffff880ae069                lap_ReleaseDiscSent_RxDisc
                0xffffffff880ae0b5                lap_MFE_NormalReleaseReq
                0xffffffff880ae105                lap_Idle_RxDisc
                0xffffffff880ae141                lap_ReleaseDiscSent_LastT200
                0xffffffff880ae1b1                lap_ReleaseDiscSent_RxDm
                0xffffffff880ae22d                lap_ReleaseDiscSent_RxUa
                0xffffffff880ae2a9                lap_TimerRecovery_LastT200
                0xffffffff880ae2f9                lap_ReconnectSabmSent_LastT200
                0xffffffff880ae351                lap_ReconnectSabmSent_RxDm
                0xffffffff880ae3c9                lap_MFE_RxSabm
                0xffffffff880ae46d                lap_MFE_RxDisc
                0xffffffff880ae501                lap_MFE_RxDm
                0xffffffff880ae585                lap_EstabSabmSent_LastT200
                0xffffffff880ae5e9                lap_EstabSabmSent_RxDisc
                0xffffffff880ae67d                lap_EstabSabmSent_RxDm
                0xffffffff880ae6fd                lap_EstabSabmSent_RxUa
                0xffffffff880ae7f9                lap_Idle_RxSabm
                0xffffffff880ae895                lap_TimerRecovery_DataReq
                0xffffffff880ae8c9                lap_Suspended_DataReq
                0xffffffff880ae901                lap_ResumeSabmSent_LastT200
                0xffffffff880ae981                lap_ResumeSabmSent_SuspendReq
                0xffffffff880ae9d9                lap_ResumeSabmSent_RxDm
                0xffffffff880aea75                lap_ReconnectSabmSent_RxUa
                0xffffffff880aeb19                lap_ResumeSabmSent_RxUa
                0xffffffff880aebb9                lap_MFE_DataReq
                0xffffffff880aec21                lap_TimerRecovery_RxI
                0xffffffff880aedfd                lap_TimerRecovery_RxRrOrRej
                0xffffffff880aef41                lap_MFE_RxRr
                0xffffffff880af0ad                lap_MFE_RxI
                0xffffffff880af291                lap_ResumeSabmSent_ReconnectReq
                0xffffffff880af319                lap_Suspended_ReconnectReq
                0xffffffff880af36d                lap_Suspended_ResumeReq
                0xffffffff880af3c1                lap_MFE_ReconnectReq
                0xffffffff880af445                lap_MFE_SuspendReq
                0xffffffff880af5e9                lap_MFE_RxRej
                0xffffffff880af789                lap_Idle_EstablishReq
                0xffffffff880af839                lap_TestDISCFrame
                0xffffffff880af899                lap_TestDMFrame
                0xffffffff880af8f9                lap_TestSABMFrame
                0xffffffff880af959                lap_TestUAFrame
                0xffffffff880af9b9                lap_TestREJFrame
                0xffffffff880afa15                lap_TestRRFrame
                0xffffffff880afa71                lap_TestUIFrame
                0xffffffff880afad1                lap_TestIFrame
                0xffffffff880afb59                lap_L1DataInd
                0xffffffff880afdcd                llc_ProcessEvt
                0xffffffff880afe79                llc_Parse
                0xffffffff880affe5                llc_ParseSignal
                0xffffffff880b00b9                llc_ParseMsg
                0xffffffff880b013d                llc_Init
                0xffffffff880b02f9                llc_GiveDsc
                0xffffffff880b0321                llc_SndUFrm
                0xffffffff880b03cd                llc_SndUIFrmInDataReq
                0xffffffff880b0441                llc_SendMsg
                0xffffffff880b0495                llc_SndXidCnfOrInd
                0xffffffff880b0539                llc_SndEstabCnfOrInd
                0xffffffff880b0599                llc_SndDataInd
                0xffffffff880b0615                llc_PrepMsg
                0xffffffff880b065d                llc_RluPurgeReq
                0xffffffff880b0685                llc_SndDataCnf
                0xffffffff880b06e9                llc_SndResetInd
                0xffffffff880b071d                llc_SndReleaseCnf
                0xffffffff880b0751                llc_SndReleaseInd
                0xffffffff880b0791                llc_SndStatusInd
                0xffffffff880b07d9                llc_SndNewTlliInd
                0xffffffff880b0829                llc_RluQueueCreateInd
                0xffffffff880b083d                llc_MmpTriggerReq
                0xffffffff880b090d                llc_MmpResumeReq
                0xffffffff880b09a1                llc_MmpSuspendReq
                0xffffffff880b0a31                llc_RldDataInd
                0xffffffff880b0b2d                llc_MmpCiphParamInd
                0xffffffff880b0bf1                llc_MmpTlliInd
                0xffffffff880b0d75                llcGene_TrsT201Exp
                0xffffffff880b0d89                llcGene_RxFRMR
                0xffffffff880b0d8d                llc_TrsDoNothing
                0xffffffff880b0d91                llcGene_TrsXidReq
                0xffffffff880b0dad                llcLocRel_TrsRxDISC
                0xffffffff880b0df5                llcAdm_TrsRxDISC
                0xffffffff880b0e2d                llcAbm_TrsSuspendReq
                0xffffffff880b0e6d                llcAdm_TrsRelReq
                0xffffffff880b0e81                llcLocRel_TrsRxUA_DM
                0xffffffff880b0ed1                llcLocRel_TrsRxSABM
                0xffffffff880b0ef5                llcGene_TrsRxUUndefFrame
                0xffffffff880b0f35                llcAbm_TrsRxUUndefFrame
                0xffffffff880b0f69                llcAbm_TrsChangLlcParReq
                0xffffffff880b0f7d                llcAbm_TrsTriggerReq
                0xffffffff880b0fa1                llcGene_TrsResumeReq
                0xffffffff880b0fb5                llcAbm_TrsResumeReq
                0xffffffff880b1055                llcAbm_TrsRxSFrm
                0xffffffff880b1131                llcAbm_TrsRxIFrm
                0xffffffff880b1329                llcAbm_TrsT201Exp
                0xffffffff880b148d                llcAbm_TrsRxDISC
                0xffffffff880b14d5                llcLocEst_TrsRxDISC
                0xffffffff880b14f9                llcLocEst_TrsRxDM
                0xffffffff880b153d                llcAbm_TrsRxDM
                0xffffffff880b1575                llc_TrsRxUnsolicitedUA
                0xffffffff880b1589                llcLocEst_TrsRelReq
                0xffffffff880b15cd                llcAbm_TrsRelReq
                0xffffffff880b1609                llcRemEst_TrsRelReq
                0xffffffff880b1625                llcRemEst_TrsEstabRsp
                0xffffffff880b166d                llcAdm_TrsTriggerReq
                0xffffffff880b16b9                llcAdm_TrsNullFrame
                0xffffffff880b1711                llcAdm_TrsSndDM_0
                0xffffffff880b1735                llcGene_TrsRxSABM
                0xffffffff880b18e9                llcAdmAbm_TrsEstabReq
                0xffffffff880b199d                llcNull_TrsInitLleCtx
                0xffffffff880b19cd                llc_TrsXidRsp
                0xffffffff880b19e9                llc_TrsXidReq
                0xffffffff880b19fd                llcGene_TrsReset
                0xffffffff880b1a11                llcGene_TrsT200Exp
                0xffffffff880b1b7d                llcLocEst_TrsRxUA
                0xffffffff880b1c85                llc_TrsRxXID
                0xffffffff880b1fad                llcGene_TrsClearLleCtx
                0xffffffff880b2035                llcGene_TrsQueueDataReq
                0xffffffff880b20fd                llcGene_TrsRxUIFrame
                0xffffffff880b22e9                llc_SaveLlcParam
                0xffffffff880b2355                llc_IsValInWindow
                0xffffffff880b2375                llc_PduNsSort
                0xffffffff880b2389                llc_PduNsCmp
                0xffffffff880b2395                llc_RxIFrmIndShift
                0xffffffff880b23d9                llc_UpdateVr
                0xffffffff880b242d                llc_UpdateVs
                0xffffffff880b2481                llc_PopInFrame
                0xffffffff880b2505                llc_SearchTxL3PduQ_Ns
                0xffffffff880b2545                llc_SaveMsg
                0xffffffff880b257d                llc_RelXidParTab
                0xffffffff880b25bd                llc_PurgeQueue
                0xffffffff880b25d1                llc_ProcessRelease
                0xffffffff880b263d                llc_ProcessSavedMsg
                0xffffffff880b26cd                llc_ResetLLE
                0xffffffff880b271d                llc_StopRetransTimer
                0xffffffff880b2791                llc_ReleaseUCmd
                0xffffffff880b27ed                llc_StartRetransTimer
                0xffffffff880b28d9                llc_ProcessReestab
                0xffffffff880b29d9                llc_InitiateReestab
                0xffffffff880b2a11                llc_ProcessXidReqRsp
                0xffffffff880b2b39                llc_InitAbmVar
                0xffffffff880b2be1                llc_CheckUnitDataReqParam
                0xffffffff880b2c45                llc_CheckTLLI
                0xffffffff880b2cb5                llc_CipherFrm
                0xffffffff880b2d81                llc_IsFcsCorrect
                0xffffffff880b2e2d                mcd_GetCardSize
                0xffffffff880b2f01                mcd_CardStatus
                0xffffffff880b2f19                mcd_hal_delay_sd1
                0xffffffff880b2ffd                mcd_Close
                0xffffffff880b306d                mcd_sdmmc_Close_all_volt
                0xffffffff880b3091                mcd_sdmmc_rst_volt
                0xffffffff880b3175                mcd_Open
                0xffffffff880b37d1                mcd_Read
                0xffffffff880b3ae1                mcd_Write
                0xffffffff880b3bc9                memd_GetRegionId
                0xffffffff880b3c05                memd_GetNode
                0xffffffff880b3c21                memd_GetNodeCount
                0xffffffff880b3c3d                memd_CacheGetNodeCount
                0xffffffff880b3c4d                memd_AddNode
                0xffffffff880b3cd9                memd_FreeNode
                0xffffffff880b3d55                memd_Init
                0xffffffff880b3da9                memd_SemRelease
                0xffffffff880b3ddd                memd_SemWaitFor
                0xffffffff880b3e11                memd_CacheFlush
                0xffffffff880b3fc1                memd_CacheErase
                0xffffffff880b4065                memd_CacheRead
                0xffffffff880b417d                memd_CacheWrite
                0xffffffff880b4249                memd_RegisterYourself
                0xffffffff880b4265                ML_RegisterTable
                0xffffffff880b42a9                ML_Init
                0xffffffff880b42c1                ML_SetCodePage
                0xffffffff880b42dd                ML_FindTable
                0xffffffff880b4315                ML_LocalLanguage2UnicodeBigEnding
                0xffffffff880b4411                ML_LocalLanguage2Unicode
                0xffffffff880b450d                ML_Unicode2LocalLanguage
                0xffffffff880b4719                ML_InitCP936
                0xffffffff880b4781                ML_InitISO8859_1
                0xffffffff880b4799                mm_CheckTestSim
                0xffffffff880b4801                mm_ReleaseMsg
                0xffffffff880b4839                mm_GetAndHandleSaveMsg
                0xffffffff880b4a95                mm_Parse
                0xffffffff880b4ca1                mm_SignalParse
                0xffffffff880b4cb1                mm_MsgParse
                0xffffffff880b4cf1                mm_Init
                0xffffffff880b4f2d                GROUP_mm_FREE_TDchD_Data
                0xffffffff880b4f31                GROUP_mm_SETPRESENT_TDchD_Data
                0xffffffff880b4f35                GROUP_mm_FREE_TmmDl_Data
                0xffffffff880b4f39                GROUP_mm_FREE_TccDl_Data
                0xffffffff880b4f3d                GROUP_mm_SETPRESENT_TccDl_Data
                0xffffffff880b4f41                GROUP_mm_FREE_TCcch_Data
                0xffffffff880b4f45                GROUP_mm_SETPRESENT_TCcch_Data
                0xffffffff880b4f49                GROUP_mm_SETPRESENT_TmmDl_Data
                0xffffffff880b501d                mm_SetDecode_mmDl
                0xffffffff880b54e5                mm_GiveDsc
                0xffffffff880b5861                mm_SimOpenErrorOnRead
                0xffffffff880b5879                mm_StkStartReq
                0xffffffff880b5905                mm_CmkInd
                0xffffffff880b5939                mm_SimClosedInd
                0xffffffff880b5969                mm_PagingCheck
                0xffffffff880b5eb1                mm_PagingCheckFun
                0xffffffff880b645d                mm_PagingInd
                0xffffffff880b6ac1                mm_SimUpdBinCnf
                0xffffffff880b6af9                mm_CellInd
                0xffffffff880b6cf9                mm_SimOpenInd
                0xffffffff880b70d1                DECODE_BODY_c_AUTHENTICATION_AND_CIPHERING_REJECT
                0xffffffff880b70d5                DECODE_c_AUTHENTICATION_AND_CIPHERING_REJECT
                0xffffffff880b70ed                DECODE_BODY_c_AUTHENTICATION_REJECT
                0xffffffff880b70f1                DECODE_c_AUTHENTICATION_REJECT
                0xffffffff880b7109                DECODE_BODY_c_CM_SERVICE_ACCEPT
                0xffffffff880b710d                DECODE_c_CM_SERVICE_ACCEPT
                0xffffffff880b7125                DECODE_BODY_c_TMSI_REALLOCATION_COMMAND
                0xffffffff880b71d1                DECODE_c_TMSI_REALLOCATION_COMMAND
                0xffffffff880b71e9                DECODE_BODY_c_LOCATION_UPDATE_REJECT
                0xffffffff880b722d                DECODE_c_LOCATION_UPDATE_REJECT
                0xffffffff880b7245                DECODE_BODY_c_IDENTITY_REQUEST
                0xffffffff880b729d                DECODE_c_IDENTITY_REQUEST
                0xffffffff880b72b5                DECODE_BODY_c_ABORT
                0xffffffff880b72f9                DECODE_c_ABORT
                0xffffffff880b7311                DECODE_BODY_c_CM_SERVICE_REJECT
                0xffffffff880b7355                DECODE_c_CM_SERVICE_REJECT
                0xffffffff880b736d                DECODE_BODY_c_GPRS_TEST_MODE_CMD
                0xffffffff880b73dd                DECODE_c_GPRS_TEST_MODE_CMD
                0xffffffff880b73f5                DECODE_BODY_c_PSTATUS
                0xffffffff880b7439                DECODE_c_PSTATUS
                0xffffffff880b7451                DECODE_BODY_c_PIDENTITY_REQUEST
                0xffffffff880b74bd                DECODE_c_PIDENTITY_REQUEST
                0xffffffff880b74d5                DECODE_BODY_c_DETACH_ACCEPT
                0xffffffff880b752d                DECODE_c_DETACH_ACCEPT
                0xffffffff880b7545                DECODE_BODY_c_MM_INFORMATION
                0xffffffff880b7595                DECODE_c_MM_INFORMATION
                0xffffffff880b75ad                DECODE_BODY_c_GMM_INFORMATION
                0xffffffff880b75fd                DECODE_c_GMM_INFORMATION
                0xffffffff880b7615                DECODE_BODY_c_LOCATION_UPDATE_ACCEPT
                0xffffffff880b7819                DECODE_c_LOCATION_UPDATE_ACCEPT
                0xffffffff880b7831                DECODE_BODY_c_AUTHENTICATION_REQUEST
                0xffffffff880b7949                DECODE_c_AUTHENTICATION_REQUEST
                0xffffffff880b7961                DECODE_BODY_c_PTMSI_REALLOCATION_COMMAND
                0xffffffff880b7ab9                DECODE_c_PTMSI_REALLOCATION_COMMAND
                0xffffffff880b7ad1                DECODE_BODY_c_DETACH_REQUEST_MT
                0xffffffff880b7bb9                DECODE_c_DETACH_REQUEST_MT
                0xffffffff880b7bd1                DECODE_BODY_c_RAU_REJECT
                0xffffffff880b7d0d                DECODE_c_RAU_REJECT
                0xffffffff880b7d25                DECODE_BODY_c_ATTACH_REJECT
                0xffffffff880b7e39                DECODE_c_ATTACH_REJECT
                0xffffffff880b7e51                DECODE_BODY_c_ATTACH_ACCEPT
                0xffffffff880b831d                DECODE_c_ATTACH_ACCEPT
                0xffffffff880b8335                DECODE_BODY_c_RAU_ACCEPT
                0xffffffff880b8911                DECODE_c_RAU_ACCEPT
                0xffffffff880b8929                DECODE_BODY_c_AUTHENTICATION_AND_CIPHERING_REQUEST
                0xffffffff880b8b65                DECODE_c_AUTHENTICATION_AND_CIPHERING_REQUEST
                0xffffffff880b8b7d                L3_ENCODE_c_TMSI_REALLOCATION_COMPLETE
                0xffffffff880b8bb5                ENCODE_c_TMSI_REALLOCATION_COMPLETE
                0xffffffff880b8bc5                L3_ENCODE_c_CM_SERVICE_ABORT
                0xffffffff880b8bfd                ENCODE_c_CM_SERVICE_ABORT
                0xffffffff880b8c0d                L3_ENCODE_c_AUTHENTICATION_AND_CIPHERING_FAILURE
                0xffffffff880b8c99                ENCODE_c_AUTHENTICATION_AND_CIPHERING_FAILURE
                0xffffffff880b8ca9                L3_ENCODE_c_AUTHENTICATION_FAILURE
                0xffffffff880b8d35                ENCODE_c_AUTHENTICATION_FAILURE
                0xffffffff880b8d45                L3_ENCODE_c_DETACH_REQUEST_MO
                0xffffffff880b8e21                ENCODE_c_DETACH_REQUEST_MO
                0xffffffff880b8e31                L3_ENCODE_c_PAGING_RESPONSE
                0xffffffff880b8f05                ENCODE_c_PAGING_RESPONSE
                0xffffffff880b8f15                L3_ENCODE_c_IMSI_DETACH_INDICATION
                0xffffffff880b8fb5                ENCODE_c_IMSI_DETACH_INDICATION
                0xffffffff880b8fc5                L3_ENCODE_c_IDENTITY_RESPONSE
                0xffffffff880b9051                ENCODE_c_IDENTITY_RESPONSE
                0xffffffff880b9061                L3_ENCODE_c_CM_SERVICE_REQUEST
                0xffffffff880b9135                ENCODE_c_CM_SERVICE_REQUEST
                0xffffffff880b9145                L3_ENCODE_c_CM_REESTABLISHMENT_REQUEST
                0xffffffff880b923d                ENCODE_c_CM_REESTABLISHMENT_REQUEST
                0xffffffff880b924d                L3_ENCODE_c_AUTHENTICATION_RESPONSE
                0xffffffff880b9305                ENCODE_c_AUTHENTICATION_RESPONSE
                0xffffffff880b9315                L3_ENCODE_c_PIDENTITY_RESPONSE
                0xffffffff880b93a1                ENCODE_c_PIDENTITY_RESPONSE
                0xffffffff880b93b1                L3_ENCODE_c_AUTHENTICATION_AND_CIPHERING_RESPONSE
                0xffffffff880b94d5                ENCODE_c_AUTHENTICATION_AND_CIPHERING_RESPONSE
                0xffffffff880b94e5                L3_ENCODE_c_LOCATION_UPDATE_REQUEST
                0xffffffff880b95b9                ENCODE_c_LOCATION_UPDATE_REQUEST
                0xffffffff880b95c9                L3_ENCODE_c_RAU_COMPLETE
                0xffffffff880b9665                ENCODE_c_RAU_COMPLETE
                0xffffffff880b9675                L3_ENCODE_c_RAU_REQUEST
                0xffffffff880b98b1                ENCODE_c_RAU_REQUEST
                0xffffffff880b98c1                L3_ENCODE_c_ATTACH_REQUEST
                0xffffffff880b9a99                ENCODE_c_ATTACH_REQUEST
                0xffffffff880b9aa9                mm_SendOtherSimMsg
                0xffffffff880b9b45                mm_SendMsg
                0xffffffff880b9bdd                mmp_PrepMsg
                0xffffffff880b9c41                mmc_PrepMsg
                0xffffffff880b9c99                mmp_GiveDataIndDsc
                0xffffffff880b9e99                mmc_GiveDataIndDsc
                0xffffffff880ba10d                mm_EvtIdCmp
                0xffffffff880ba119                mm_DualMsgSimIdCmp
                0xffffffff880ba125                mm_EvtIdSimIdCmp
                0xffffffff880ba13d                mm_CheckOtherSimCallSta
                0xffffffff880ba16d                mm_StkStoped
                0xffffffff880ba1a1                mm_StkStopingOrStoped
                0xffffffff880ba1ed                mm_CellAccessClassChanged
                0xffffffff880ba26d                mm_CheckConnStatus
                0xffffffff880ba30d                mm_CheckCurConnPermit
                0xffffffff880ba3b9                mm_MmcCellChanged
                0xffffffff880ba401                mm_CellChanged
                0xffffffff880ba465                mm_LaiCmp
                0xffffffff880ba479                mm_ExistTimer
                0xffffffff880ba4a5                mm_StopTimer
                0xffffffff880ba55d                mm_StartTimer
                0xffffffff880ba65d                mm_PurgeQueue
                0xffffffff880ba671                mm_SndSimErrInd
                0xffffffff880ba6a1                mm_DuleIsEvtInQueue
                0xffffffff880ba6d1                mm_DuleIsEvtSimIdInQueue
                0xffffffff880ba705                mm_DualSaveMsg
                0xffffffff880ba8cd                mm_DelSavedCellInd
                0xffffffff880ba91d                mm_DuleIsSimIdInQueue
                0xffffffff880ba951                mm_DualReSendCurrentSimMsg
                0xffffffff880baa39                mm_GiveFLaiPtr
                0xffffffff880baa75                mm_DelFLai
                0xffffffff880baac5                mm_IsEvtInQueue
                0xffffffff880baafd                mm_HdleInformation
                0xffffffff880babf9                mm_InsFLai
                0xffffffff880bac5d                mm_CreateSavedCellInd
                0xffffffff880baccd                mm_WriteFileSim
                0xffffffff880bad49                mm_AuthenticationReq
                0xffffffff880bb0a1                mm_ReadFileStatusSim
                0xffffffff880bb17d                _mm_ReadFileSim
                0xffffffff880bb271                mm_ReadFileSimOpt
                0xffffffff880bb295                mm_ReadFileSim
                0xffffffff880bb2b9                mm_SaveIEvt
                0xffffffff880bb455                mm_mmpHandleEvt
                0xffffffff880bb4bd                mm_mmcHandleEvt
                0xffffffff880bb551                mm_HandleEvt
                0xffffffff880bb585                mm_BuildIMEI
                0xffffffff880bb5c9                mm_AnswerIdReq
                0xffffffff880bb65d                mm_BackInact
                0xffffffff880bb78d                mmc_Release_Gene
                0xffffffff880bb7c9                mmc_Information_Gene
                0xffffffff880bb7dd                mmc_DataReq_Gene
                0xffffffff880bb819                mmc_SimClosedInd_Gene
                0xffffffff880bb8bd                mmc_SimOpenInd_Gene
                0xffffffff880bb8f5                mmc_EstabReq_Gene
                0xffffffff880bb981                mmc_Abort_Gene
                0xffffffff880bb9ed                mmc_TmsiRealCmd_Gene
                0xffffffff880bba8d                mmc_AuthRej_Gene
                0xffffffff880bbb11                mmc_AuthReq_Gene
                0xffffffff880bbfad                mmc_IdReq_Gene
                0xffffffff880bc045                mmc_SelfLocup_Idle
                0xffffffff880bc061                mmc_RrEndCong_Idle
                0xffffffff880bc099                mmc_ReestabReq_Idle
                0xffffffff880bc1b5                mmc_SimOpenInd_Idle
                0xffffffff880bc225                mmc_T3213Exp_Idle
                0xffffffff880bc30d                mmc_T3212Exp_Idle
                0xffffffff880bc441                mmc_T3211Exp_Idle
                0xffffffff880bc525                mmc_EstabReq_Idle
                0xffffffff880bc755                mmc_ApiStopReq_Idle
                0xffffffff880bc7b5                mmc_SimClosedInd_Idle
                0xffffffff880bc80d                mmc_PagingInd_Idle
                0xffffffff880bc851                mmc_RrCellInd_Idle
                0xffffffff880bcab1                mmc_InitIdle
                0xffffffff880bcc15                mmc_mmpSetLocUpNeeded
                0xffffffff880bcc4d                mmc_mmp_SetMmpFsmState
                0xffffffff880bccc9                mmp_mmcInvalidGSim
                0xffffffff880bcd01                mmp_mmcEnterDedicated
                0xffffffff880bcd29                mmp_mmcCombImsiAtt
                0xffffffff880bcd8d                mmc_mmpStaNotUpdated
                0xffffffff880bcde9                mmc_mmpStartT3212
                0xffffffff880bce29                mmc_mmpDetach
                0xffffffff880bce85                mmc_mmpAuthAndCiphRej
                0xffffffff880bcea5                mmc_mmp_SetMmcFsmState
                0xffffffff880bcf55                mmc_mmpCombResult
                0xffffffff880bd241                mmc_SimOpenInd_Null
                0xffffffff880bd255                mmc_ApiStartReq_Null
                0xffffffff880bd26d                mmc_T3212Exp_Null
                0xffffffff880bd2ad                mmc_ApiStopReq_Null
                0xffffffff880bd2e1                mmc_SimClosedInd_Null
                0xffffffff880bd371                mmc_EstabReq_Null
                0xffffffff880bd3d1                mmc_RrCellInd_Null
                0xffffffff880bd529                mmc_InitNull
                0xffffffff880bd5a9                mmc_AddCxNb
                0xffffffff880bd5f1                mmc_ReduceCxNb
                0xffffffff880bd639                mmc_CleanCxNb
                0xffffffff880bd655                mmc_StartLuReq
                0xffffffff880bd689                mmc_StopLuReq
                0xffffffff880bd6bd                mmc_SendMMEstabErr
                0xffffffff880bd735                mmc_SdStopCnf
                0xffffffff880bd795                mmc_HandleOtherPD
                0xffffffff880bd839                mmc_ReleaseCM
                0xffffffff880bd8d1                mmc_SdMmStatus
                0xffffffff880bd921                mmc_CheckMbxForCellInd
                0xffffffff880bd9cd                mmc_SdSelfLocUp
                0xffffffff880bda1d                mmc_SdLRStatus
                0xffffffff880bdae9                mmc_SendApiCnf
                0xffffffff880bdb7d                mmc_ReleaseSavedEstabReq
                0xffffffff880bdc39                mmc_AbandonFOR
                0xffffffff880bdcbd                mmc_abort_LU
                0xffffffff880bdd81                mmc_StopLocUp
                0xffffffff880bddd9                mmc_ActivateCnx
                0xffffffff880bde71                mmc_AskForRrCx
                0xffffffff880bdee1                mmc_CheckEncode
                0xffffffff880bdf41                mmc_HandleCMAbort
                0xffffffff880bdf7d                mmc_HandlePaging
                0xffffffff880be141                mmc_CellIndGenProc
                0xffffffff880be171                mmc_FillUpMobId
                0xffffffff880be259                mmc_BuildTmsiReallocCplt
                0xffffffff880be2a5                mmc_ResetLocUpParam
                0xffffffff880be395                mmc_PrepareCmServReq
                0xffffffff880be41d                mmc_ImsiDetach
                0xffffffff880be4d5                mmc_LocUpFailure
                0xffffffff880be619                mmc_HandleT3212
                0xffffffff880be785                mmc_LocUp
                0xffffffff880be87d                mmc_UpdRandAndRes
                0xffffffff880be8e5                mmc_T3212Exp_WNkCmd
                0xffffffff880be92d                mmc_AbortReq_WNkCmd
                0xffffffff880be9ad                mmc_HdleOtherPd_WNkCmd
                0xffffffff880be9c1                mmc_CmEstabInd_WNkCmd
                0xffffffff880bea0d                mmc_ApiStopReq_WNkCmd
                0xffffffff880bea5d                mmc_SimClosedInd_WNkCmd
                0xffffffff880beacd                mmc_TWNKCExp_WNkCmd
                0xffffffff880beaf9                mmc_RrReleaseInd_WNkCmd
                0xffffffff880beb9d                mmc_InitWNkCmd
                0xffffffff880bec39                mmc_T3212Exp_WNkRsp
                0xffffffff880bec89                mmc_CmEstabInd_WNkRsp
                0xffffffff880beca5                mmc_HdleOtherPd_WNkRsp
                0xffffffff880becc5                mmc_ApiStopReq_WNkRsp
                0xffffffff880bed79                mmc_ReleaseReq_WNkRsp
                0xffffffff880bedc1                mmc_EstabReq_WNkRsp
                0xffffffff880bee2d                mmc_AbortReq_WNkRsp
                0xffffffff880beed9                mmc_CmServRej_WNkRsp
                0xffffffff880befb9                mmc_CmServAcc_WNkRsp
                0xffffffff880befe5                mmc_CiphInd_WNkRsp
                0xffffffff880bf029                mmc_LocUpRej_WNkRsp
                0xffffffff880bf1a9                mmc_T3210Exp_WNkRsp
                0xffffffff880bf1ed                mmc_LocUpAcc_WNkRsp
                0xffffffff880bf371                mmc_T3230Exp_WNkRsp
                0xffffffff880bf3b5                mmc_ReleaseInd_WNkRsp
                0xffffffff880bf461                mmc_InitWNkRsp
                0xffffffff880bf4b5                mmc_T3212Exp_WRrC
                0xffffffff880bf501                mmc_TDetachExp_WRrC
                0xffffffff880bf531                mmc_PagingInd_WRrC
                0xffffffff880bf58d                mmc_RrConnectCnf_WRrC
                0xffffffff880bf601                mmc_ApiStopReq_WRrC
                0xffffffff880bf6ad                mmc_SimClosedInd_WRrC
                0xffffffff880bf751                mmc_ReleaseReq_WRrC
                0xffffffff880bf805                mmc_AbortReq_WRrC
                0xffffffff880bf8e5                mmc_RrReleaseInd_WRrC
                0xffffffff880bfa91                mmc_RrCellInd_WRrC
                0xffffffff880bff11                mmc_InitWRrCx
                0xffffffff880bff69                mmp_T3311Exp_Gene
                0xffffffff880bff85                mmp_T3302Exp_Gene
                0xffffffff880bffa1                mmp_GprsPending_Gene
                0xffffffff880bffc1                mmp_RlcSynchInd_Gene
                0xffffffff880bffd9                mmp_TrsDoNothing
                0xffffffff880bffe9                mmp_SmPdpCtxStatusInd_Gene
                0xffffffff880c0055                mmp_L3IDelSaveDataReq_Gene
                0xffffffff880c00a9                mmp_LlcQueueCreateInd_Gene
                0xffffffff880c0105                mmp_mmcAbortCurProc_Gene
                0xffffffff880c013d                mmp_PReleaseInd_Gene
                0xffffffff880c01b9                mmp_RrSuspendReq_Gene
                0xffffffff880c01fd                mmp_TestModeCmd_Gene
                0xffffffff880c0285                mmp_LlcNewTlliInd_Gene
                0xffffffff880c02ed                mmp_ApiDetachReq_Gene
                0xffffffff880c0325                mmp_T3330Exp_Gene
                0xffffffff880c0339                mmp_T3310Exp_Gene
                0xffffffff880c034d                mmp_InitNdet
                0xffffffff880c0381                mmp_RrSuspendReq_Ndet
                0xffffffff880c03c9                mmp_mmcAbortCurProc_Ndet
                0xffffffff880c0409                mmp_RrCellInd_Ndet
                0xffffffff880c0449                mmp_ApiDetachReq_Ndet
                0xffffffff880c048d                mmp_RlcSynchInd_Ndet
                0xffffffff880c0511                mmp_ApiAttachReq_Ndet
                0xffffffff880c054d                mmp_PReleaseInd_NULL
                0xffffffff880c058d                mmp_StartStack_Null
                0xffffffff880c05f1                mmp_SimOpenInd_Null
                0xffffffff880c0695                mmp_ApiAttachReq_Null
                0xffffffff880c079d                mmp_RrCellInd_Null
                0xffffffff880c0841                mmp_InitNull
                0xffffffff880c0939                mmp_RlcSynchInd_PEND
                0xffffffff880c09b5                mmp_RlcTReadyInd_PEND
                0xffffffff880c09c9                mmp_mmcAbortCurProc_PEND
                0xffffffff880c0a4d                mmp_RrCellInd_PEND
                0xffffffff880c0ad1                mmp_SaveEvt_PEND
                0xffffffff880c0b2d                mmp_SaveMsg_PEND
                0xffffffff880c0b79                mmp_InitPIP
                0xffffffff880c0bad                mmp_SmNoNetrspInd_PIP
                0xffffffff880c0be1                mmp_T3312Exp_PIP
                0xffffffff880c0c31                mmp_TmsiReallocCmd_PIP
                0xffffffff880c0c4d                mmp_ApiAttachReq_PIP
                0xffffffff880c0ca1                mmp_RrSuspendReq_PIP
                0xffffffff880c0d2d                mmp_mmcAbortCurProc_PIP
                0xffffffff880c0e21                mmp_Information_PIP
                0xffffffff880c0e45                mmp_PagingInd_PIP
                0xffffffff880c0e55                mmp_RlcSynchInd_PIP
                0xffffffff880c0ef9                mmp_DetachAcc_PIP
                0xffffffff880c0f41                mmp_ApiDetachReq_PIP
                0xffffffff880c1079                mmp_T3321Exp_PIP
                0xffffffff880c10f5                mmp_RlcTReadyInd_PIP
                0xffffffff880c1109                mmp_T3330Exp_PIP
                0xffffffff880c1185                mmp_RauRej_PIP
                0xffffffff880c1415                mmp_RauAcc_PIP
                0xffffffff880c1ba5                mmp_L3DataReq_PIP
                0xffffffff880c1c3d                mmp_AuthAndCiphRej_PIP
                0xffffffff880c1c51                mmp_AuthAndCiphReq_PIP
                0xffffffff880c1c91                mmp_DetachReq_PIP
                0xffffffff880c1d31                mmp_PReleaseInd_PIP
                0xffffffff880c1f91                mmp_T3310Exp_PIP
                0xffffffff880c2009                mmp_RrCellInd_PIP
                0xffffffff880c239d                mmp_AttachRej_PIP
                0xffffffff880c2555                mmp_HdleOtherPd_PIP
                0xffffffff880c2569                mmp_IdReq_PIP
                0xffffffff880c25a9                mmp_AttachAcc_PIP
                0xffffffff880c2bcd                mmp_SmNoNetrspInd_REG
                0xffffffff880c2c01                mmp_ApiAttachReq_REG
                0xffffffff880c2c91                mmp_mmcReStartPrevProc_Reg
                0xffffffff880c2cc9                mmp_T3302Exp_Reg
                0xffffffff880c2d51                mmp_PReleaseInd_Reg
                0xffffffff880c2de1                mmp_mmcAbortCurProc_Reg
                0xffffffff880c2e19                mmp_Information_Reg
                0xffffffff880c2e2d                mmp_PagingInd_Reg
                0xffffffff880c2e65                mmp_DetachReq_Reg
                0xffffffff880c2e9d                mmp_RlcSynchInd_Reg
                0xffffffff880c2f35                mmp_ApiDetachReq_REG
                0xffffffff880c2fd5                mmp_TmsiReallocCmd_Reg
                0xffffffff880c3145                mmp_T3312Exp_Reg
                0xffffffff880c323d                mmp_RlcTReadyInd_Reg
                0xffffffff880c3251                mmp_L3DataReq_Reg
                0xffffffff880c3311                mmp_AuthAndCiphRej_Reg
                0xffffffff880c3325                mmp_AuthAndCiphReq_Reg
                0xffffffff880c3339                mmp_AttachAcc_REG
                0xffffffff880c3355                mmp_RAUAcc_REG
                0xffffffff880c3365                mmp_T3311Exp_Reg
                0xffffffff880c3415                mmp_IdReq_Reg
                0xffffffff880c3429                mmp_HdleOtherPd_Reg
                0xffffffff880c343d                mmp_RrCellInd_Reg
                0xffffffff880c3889                mmp_InitReg
                0xffffffff880c38f5                mmp_HdleGPRSTimer
                0xffffffff880c3925                mmp_SetStkSimCloseCnfToSend
                0xffffffff880c3945                mmp_SndRrMmpProcInd
                0xffffffff880c3975                mmp_SendSimCloseCnf
                0xffffffff880c39cd                mmp_SndRauStatus
                0xffffffff880c3a41                mmp_SndStopCnf
                0xffffffff880c3aa5                mmp_GetDetachOrigin
                0xffffffff880c3b15                mmp_ChgReadyStateTo
                0xffffffff880c3ba5                mmp_SndAbortInd
                0xffffffff880c3bf9                mmp_SuspendLlc
                0xffffffff880c3c39                mmp_HandleOtherPd
                0xffffffff880c3cc9                mmp_SndLlcTriggerReq
                0xffffffff880c3d29                mmp_ChkInitCellUpd
                0xffffffff880c3d6d                mmp_SndRrGprsReq
                0xffffffff880c3ded                mmp_BackInactif
                0xffffffff880c3e31                mmp_UpdRandAndRes
                0xffffffff880c3e99                mmp_PlmnCmp
                0xffffffff880c3ead                mmp_T33x0ExpGene
                0xffffffff880c3f19                mmp_WriteFileSim
                0xffffffff880c3fd9                mmp_EndOfDetach
                0xffffffff880c419d                mmp_ResetGprsLociPar
                0xffffffff880c4279                mmp_ResumeOthSimLlc
                0xffffffff880c42ed                mmp_SuspendOthSimLlc
                0xffffffff880c4359                mmp_FwdL3DataReq
                0xffffffff880c44bd                mmp_SndWaitingL3Data
                0xffffffff880c4531                mmp_ResumeLlc
                0xffffffff880c459d                mmp_CheckEncode
                0xffffffff880c46f5                mmp_SndStatus
                0xffffffff880c4751                mmp_SndDetachAcc
                0xffffffff880c47ad                mmp_GiveFPlmnPtr
                0xffffffff880c47e9                mmp_InsFPlmn
                0xffffffff880c4865                mmp_StopTim
                0xffffffff880c48fd                mmp_AbortDetach
                0xffffffff880c4949                mmp_AbortRau
                0xffffffff880c49a5                mmp_AbortAttach
                0xffffffff880c4a01                mmp_StartTim
                0xffffffff880c4ab5                mmp_StartT3312
                0xffffffff880c4ae5                mmp_SndRluTReadyReq
                0xffffffff880c4b7d                mmp_ClearReady
                0xffffffff880c4ba5                mmp_HdlForceToStdby
                0xffffffff880c4c01                mmp_StartDetach
                0xffffffff880c4e15                mmp_RauFailure
                0xffffffff880c4f81                mmp_HdleRlcTReadyInd
                0xffffffff880c5029                mmp_StopAllTim
                0xffffffff880c5051                mmp_HdleReadyTimer
                0xffffffff880c50d9                mmp_HdleAuthCiphReq
                0xffffffff880c56d5                mmp_HdleIdReq
                0xffffffff880c57a5                mmp_ComputeTlli
                0xffffffff880c586d                mmp_DeriveTlli
                0xffffffff880c5925                mmp_InvalidSim
                0xffffffff880c598d                mmp_HdleAuthCiphRej
                0xffffffff880c59cd                mmp_AttFailure
                0xffffffff880c5b01                mmp_StartRAUReq
                0xffffffff880c5e0d                mmp_StartAttachReq
                0xffffffff880c6139                mmp_HdlePagingInd
                0xffffffff880c61ed                mmp_HdleDetachReq
                0xffffffff880c6419                mmp_HdleT3302
                0xffffffff880c645d                pal_CheckImei
                0xffffffff880c6489                pal_GetFactoryImei
                0xffffffff880c64d5                pal_GetImei
                0xffffffff880c6515                pal_RegisterYourself
                0xffffffff880c6531                pal_SelectSwitch
                0xffffffff880c6535                pal_SetSimIndex
                0xffffffff880c6541                pal_SimClkInv
                0xffffffff880c6581                pal_SimSetEtuDuration
                0xffffffff880c65d5                pal_SetTS
                0xffffffff880c664d                pal_SimSetSimVoltage
                0xffffffff880c66e5                pal_SimSetClockStopMode
                0xffffffff880c6709                pal_EnableSimCard
                0xffffffff880c67b5                pal_SimInit
                0xffffffff880c6861                PM_CheckValidPowerOnVoltage
                0xffffffff880c6ba5                pm_BattChargeRemind
                0xffffffff880c7039                pm_BatteryMonitorProc
                0xffffffff880c70b5                pm_ChargerHandler
                0xffffffff880c70c5                PM_GetBatteryInfo
                0xffffffff880c7171                pm_BatteryInit
                0xffffffff880c728d                rfd_RegisterYourself
                0xffffffff880c72b5                rld_Parse
                0xffffffff880c72fd                rld_ParseSignal
                0xffffffff880c7361                rld_ParseMsg
                0xffffffff880c73cd                rld_Init
                0xffffffff880c7435                rld_GiveDsc
                0xffffffff880c7481                rld_CheckBSN
                0xffffffff880c74b5                transfer_bits
                0xffffffff880c7721                rld_TestModeSet
                0xffffffff880c7755                save_Pdu_in_receive_window
                0xffffffff880c78e1                rld_PurgeQ
                0xffffffff880c78f5                rld_RelInd
                0xffffffff880c7959                rld_ConInd
                0xffffffff880c79f5                rld_DataInd
                0xffffffff880c835d                rlu_Parse
                0xffffffff880c83cd                rlu_ParseSignal
                0xffffffff880c8439                rlu_ParseMsg
                0xffffffff880c84a9                rlu_Init
                0xffffffff880c85dd                rlu_GiveDsc
                0xffffffff880c8771                rlu_TrsDoNothing
                0xffffffff880c8775                rlu_TrsSaveMsg
                0xffffffff880c87a9                rluGene_TrsPurgeReq
                0xffffffff880c87d5                rluGene_TrsPurgeDQInd
                0xffffffff880c881d                rluGene_TrsTlliInd
                0xffffffff880c886d                rluGene_TrsTPurgeExp
                0xffffffff880c88c9                rluGene_TrsTReadyReq
                0xffffffff880c8951                rluGene_TrsResumeReq
                0xffffffff880c89cd                rluGene_TrsSuspendReq
                0xffffffff880c8a35                rluGene_TrsCellOptInd
                0xffffffff880c8a51                rluGene_TrsTReady
                0xffffffff880c8a81                rluGene_TrsRelInd
                0xffffffff880c8d79                rluGene_TrsTxInd
                0xffffffff880c9061                rluGene_TrsQDataReq
                0xffffffff880c9349                rluNack_TrsAckNackInd
                0xffffffff880c93a1                rluNack_TrsRepeatReq
                0xffffffff880c94b9                rlu_SndQDataReq
                0xffffffff880c94f9                rlu_SendMsg
                0xffffffff880c95bd                rlu_PrepMsg
                0xffffffff880c960d                rlu_SndContinueTx
                0xffffffff880c9629                rlu_IsDiscardedId
                0xffffffff880c9645                rlu_PrepDiscardMsg
                0xffffffff880c967d                rlu_PrepCsDiscard
                0xffffffff880c96dd                rlu_ShortenTbf
                0xffffffff880c9799                rlu_UndoPduFromSdu
                0xffffffff880c989d                rlu_BackTrack
                0xffffffff880c9ab1                rlu_PurgeDQ
                0xffffffff880c9b0d                rlu_InitEarlyRel
                0xffffffff880c9b59                rlu_ExtendTbf
                0xffffffff880c9c51                rlu_SndRrRelReq
                0xffffffff880c9c81                rlu_SndRrConnectReq
                0xffffffff880c9d39                rlu_ConnectRr
                0xffffffff880c9d6d                rlu_StartTbf
                0xffffffff880c9db5                rlu_StartTstTbf
                0xffffffff880c9e05                rlu_StartLlcTbf
                0xffffffff880c9e6d                rlu_UpdTbfParams
                0xffffffff880c9ff5                rlu_TrsTxDiscardInd
                0xffffffff880ca069                rlu_TrsPurgeDQInd
                0xffffffff880ca0e5                rlu_TrsT3182
                0xffffffff880ca13d                rlu_TrsTxFillReq
                0xffffffff880ca209                rlu_TrsAckNackInd
                0xffffffff880ca5d5                rlu_TrsContResInd
                0xffffffff880ca671                TestMode_MMTestModeReq
                0xffffffff880ca69d                TestMode_TrsConnectCnf
                0xffffffff880ca725                TestMode_DataProcess
                0xffffffff880ca831                rlu_GenerateTstSdu
                0xffffffff880ca8fd                rlu_GenerateTstFlow
                0xffffffff880ca9ed                rlu_StartNextSdu
                0xffffffff880caac9                rlu_InitCurPdu
                0xffffffff880cabf1                rlu_PrepCurPdu
                0xffffffff880caea9                rlu_BuildBlock
                0xffffffff880cb051                rlu_TxPdu
                0xffffffff880cb239                rlu_TxSduPart
                0xffffffff880cb2b9                rlu_ResumeTx
                0xffffffff880cb329                rlu_PduShortBsnCmp
                0xffffffff880cb339                rlu_PduBsnCmp
                0xffffffff880cb345                rlu_PduStateCmp
                0xffffffff880cb351                rlu_FlowCmp
                0xffffffff880cb35d                rlu_PduCvBsnCmp
                0xffffffff880cb375                rlu_PduCvCmp
                0xffffffff880cb389                rlu_SduPtrCmp
                0xffffffff880cb395                rlu_IsFlowOk
                0xffffffff880cb3e1                rlu_UpdPanVars
                0xffffffff880cb455                rlu_LlcPduPurge
                0xffffffff880cb469                rlu_PduPurge
                0xffffffff880cb49d                rlu_Need2StartTReady
                0xffffffff880cb4d9                rlu_IsSduTx
                0xffffffff880cb519                rlu_ComputeFlowTbc
                0xffffffff880cb5b1                rlu_ComputeCV
                0xffffffff880cb61d                rlu_IsWeakerOrEqFlow
                0xffffffff880cb661                rlu_IsWeakerFlow
                0xffffffff880cb6a5                rlu_SndUlCongestInd
                0xffffffff880cb6e5                rlu_SyncMm
                0xffffffff880cb735                rlu_SndMmpTReadyInd
                0xffffffff880cb765                rlu_SendPdu
                0xffffffff880cb7d5                rlu_SetCurFlow
                0xffffffff880cb819                rlu_HasLlcPdus
                0xffffffff880cb85d                rlu_HasSdusFromFlows
                0xffffffff880cb8c1                rlu_FindFirstSduInFlows
                0xffffffff880cb959                rlu_NextSdu2Send
                0xffffffff880cb981                rlu_SetTbfCause
                0xffffffff880cb9c1                rlu_ComputeTbc
                0xffffffff880cbb65                rlu_SaveSdu
                0xffffffff880cbb99                rlu_SearchSduQ
                0xffffffff880cbbd5                rlu_SearchShortPduQ
                0xffffffff880cbc11                rlu_SearchCvBsnPduQ
                0xffffffff880cbc89                rlu_SearchNackedPdu
                0xffffffff880cbcc1                rlu_SearchPduQ
                0xffffffff880cbcfd                rlu_SduFree
                0xffffffff880cbda1                rlu_FlowSduPurge
                0xffffffff880cbdb5                rlu_BuildSdu
                0xffffffff880cbe21                rlu_CreateFlow
                0xffffffff880cbeb1                rlu_RetrieveLlcPdus
                0xffffffff880cc11d                rlu_ResetSdus
                0xffffffff880cc179                rlu_CleanCtx
                0xffffffff880cc335                rlu_RmvAllLlcPdus
                0xffffffff880cc3c1                rlu_SearchNextFlow
                0xffffffff880cc409                rlu_SearchCvPduQ
                0xffffffff880cc455                rlu_FlowPurge
                0xffffffff880cc499                rlu_RmvFromFlow
                0xffffffff880cc545                rlu_SduPurge
                0xffffffff880cc565                rlu_SduClean
                0xffffffff880cc599                rlu_RmvAllSdusFromFlows
                0xffffffff880cc645                rluVoid_TrsQDataReq
                0xffffffff880cc665                rluVoid_TrsResumeReq
                0xffffffff880cc705                rluVoid_TrsTestModeReq
                0xffffffff880cc8a5                rluWcon_TrsContResInd
                0xffffffff880cc8d9                rluWcon_TrsConnectCnf
                0xffffffff880cc97d                rluWrls_TrsConnectCnf
                0xffffffff880cc9c5                rluWrls_TrsQDataReq
                0xffffffff880ccb6d                rr_ProcessEvt
                0xffffffff880ccc2d                rr_Parse
                0xffffffff880cccfd                rr_ParseSignal
                0xffffffff880ccdc1                rr_ParseMsg
                0xffffffff880cce65                rr_Init
                0xffffffff880cceed                rr_GiveMacDataIndDsc
                0xffffffff880ccf8d                rr_GiveL1DataIndDsc
                0xffffffff880cd071                rr_GiveLapDataDsc
                0xffffffff880cd2b9                rr_GiveDsc
                0xffffffff880ce061                rr_TrsnEmpty
                0xffffffff880ce065                rr_DispatchCellRsp
                0xffffffff880ce0b1                rr_DispatchCon
                0xffffffff880ce109                rr_TrsnSaveEvt
                0xffffffff880ce129                rr_TrsnSaveMsg
                0xffffffff880ce159                rri_ImsiMod1000
                0xffffffff880ce1b5                rr_DecodeDataLength
                0xffffffff880ce1dd                rri_UpdSimData
                0xffffffff880ce245                rri_ReqSimData
                0xffffffff880ce29d                rr_ReadSimFileSt
                0xffffffff880ce589                rri_ReqSimStatus
                0xffffffff880ce5c1                rri_SavUSimData
                0xffffffff880ce8e1                rri_SavSimData
                0xffffffff880cec15                rr_NewSimRecord
                0xffffffff880cec59                rr_NewSimData
                0xffffffff880cec9d                rr_ArfcnCmp
                0xffffffff880cecb9                rr_CheckCountry
                0xffffffff880cecd9                rr_CheckPlmn
                0xffffffff880ced05                rr_GetS
                0xffffffff880ced35                rr_PrepLapRrIl
                0xffffffff880ced61                rr_ComputeBsCcChansN
                0xffffffff880ced91                rr_SetPag
                0xffffffff880cee65                rri_CellCmp
                0xffffffff880cee75                rri_FindScanCellByArfcn
                0xffffffff880ceea9                rri_SetScanCellNull
                0xffffffff880ceed5                rri_HasScanCell
                0xffffffff880ceef5                rri_IsScanCell
                0xffffffff880cef19                rri_NeedWaitScanResult
                0xffffffff880cef41                rr_ExistTimer
                0xffffffff880cef6d                rr_StopAllTimer
                0xffffffff880cf029                rr_StopTimer
                0xffffffff880cf059                rr_StartTimer
                0xffffffff880cf099                rri_FindCell
                0xffffffff880cf0f1                rr_CleanCa
                0xffffffff880cf131                rr_CtxClean
                0xffffffff880cf16d                rr_L1UpdRachParam
                0xffffffff880cf241                rr_SndStatus
                0xffffffff880cf291                rr_StopL1Chans
                0xffffffff880cf33d                rr_DumpIlIn
                0xffffffff880cf3d9                rr_SndL1CcchReq
                0xffffffff880cf485                rr_SetPPag
                0xffffffff880cf6b1                rr_SndL1PccchReq
                0xffffffff880cf75d                rr_UpdateMsCm2
                0xffffffff880cf859                rr_UpdateRrMsRACap
                0xffffffff880cfd25                rr_UpdateMsRACap
                0xffffffff880d01f5                rr_ComputeMsCm3
                0xffffffff880d050d                rr_ComputeMsClassMark
                0xffffffff880d0661                rrd_FreeAccess
                0xffffffff880d0691                rrd_FreeL3InitMsg
                0xffffffff880d06c1                rrd_Init
                0xffffffff880d07b1                rrd_InitAccess
                0xffffffff880d0829                GROUP_rrd_FREE_TDchD_Data
                0xffffffff880d082d                GROUP_rrd_FREE_TmmDl_Data
                0xffffffff880d0831                GROUP_rrd_SETPRESENT_TmmDl_Data
                0xffffffff880d0835                GROUP_rrd_FREE_TccDl_Data
                0xffffffff880d0839                GROUP_rrd_SETPRESENT_TccDl_Data
                0xffffffff880d083d                GROUP_rrd_FREE_TCcch_Data
                0xffffffff880d0841                GROUP_rrd_SETPRESENT_TCcch_Data
                0xffffffff880d0885                GROUP_rrd_SETPRESENT_TDchD_Data
                0xffffffff880d090d                rrd_SetDecode_Ccch
                0xffffffff880d09d9                rrd_SetDecode_DchD
                0xffffffff880d0b81                rrd_InitWrsl
                0xffffffff880d0b91                rrd_InitCond
                0xffffffff880d0c5d                rrd_InitVoid
                0xffffffff880d0f3d                rrdGene_TrsT3122Exp
                0xffffffff880d0f7d                rrdGene_ConfliTrsConReq
                0xffffffff880d1071                rrd_JudgeConfliTrsConReq
                0xffffffff880d1315                rrdGene_TrsConReq
                0xffffffff880d1485                rrdGene_TrsAbortReq
                0xffffffff880d14c9                rrdGene_TrsReselGrant
                0xffffffff880d14f1                rrd_SaveReqRef
                0xffffffff880d152d                rrd_IsTimerExpEvtinMailbox
                0xffffffff880d1549                rrd_SndRrNotCon
                0xffffffff880d1585                rrd_SndRrCon
                0xffffffff880d15c1                rrd_L1RachOff
                0xffffffff880d15ed                rrd_Acci2Wcni
                0xffffffff880d165d                rrd_FrqListOk
                0xffffffff880d1705                rrd_IsSAccClassOK
                0xffffffff880d1785                rrd_SimAccCtrlOK
                0xffffffff880d1819                rrd_EndRrAccessNormal
                0xffffffff880d1929                rrd_EndRrAccess
                0xffffffff880d19d1                rrd_ProcessImmAss
                0xffffffff880d1c89                rrd_EndRach
                0xffffffff880d1dc5                rrd_StartRach
                0xffffffff880d1f09                rrd_RequestResel
                0xffffffff880d208d                rrd_IsRefForMe
                0xffffffff880d2171                rrd_IsImmAssRejForMe
                0xffffffff880d2241                rrdVoid_TrsAbortReq
                0xffffffff880d2265                rrdWrsl_TrsPCCOResult
                0xffffffff880d2389                rrgAccI_TrsImmAssExt
                0xffffffff880d2439                rrgCond_TrsL1FrqRdfCnf
                0xffffffff880d2459                rrgCond_TrsKcInd
                0xffffffff880d2475                rrgCond_TrsDaiTest
                0xffffffff880d24fd                rrgCond_TrsFrqRdf
                0xffffffff880d2605                rrgCond_TrsLapEstablishCnf
                0xffffffff880d2659                rrgCond_TrsOpenTchLoop
                0xffffffff880d26dd                rrgCond_TrsCloseTchLoop
                0xffffffff880d279d                rrgCond_TrsLapReleaseInd
                0xffffffff880d27c9                rrgCond_TrsCmkEnq
                0xffffffff880d27dd                rrgCond_TrsChnMod
                0xffffffff880d29b1                rrgCond_TrsCipModCmd
                0xffffffff880d2b5d                rrgCond_TrsDataReq
                0xffffffff880d2c11                rrgCond_TrsChanRel
                0xffffffff880d2c99                rrgCond_TrsAssCmd
                0xffffffff880d2d15                rrgCond_TrsHovCmd
                0xffffffff880d2e4d                rrg_FreeL1Con
                0xffffffff880d2e99                rrg_SetCurrFrqParam
                0xffffffff880d2ed5                rrg_DecFrqChnSeq
                0xffffffff880d2f1d                rrg_DecChanType
                0xffffffff880d2fa1                rrg_DecAMRCfg
                0xffffffff880d30f5                rrg_DecMa
                0xffffffff880d315d                rrg_PutCellOptions
                0xffffffff880d319d                rrg_InitCnx
                0xffffffff880d31a9                rrg_LapSapiChan
                0xffffffff880d31c9                rrg_TrsLapEstablishInd
                0xffffffff880d31dd                rrg_IsChanModeSupported
                0xffffffff880d3241                rrg_UpdateNV_SD
                0xffffffff880d3301                rrg_TrcAMRCfg
                0xffffffff880d3371                rr_BlackArfcnListExp
                0xffffffff880d33d1                rr_RemoveFromBlackArfcnlist
                0xffffffff880d3479                rr_FindCellInPreBlackList
                0xffffffff880d3505                rr_BeInBlackArfcnlist
                0xffffffff880d357d                rr_Insert2BlackArfcnlist
                0xffffffff880d370d                rr_add2BlackArfcnlist
                0xffffffff880d37c9                rrg_TrsL3DataInd
                0xffffffff880d37fd                rrg_ForwardDataReq
                0xffffffff880d384d                rrg_SndL1CellOpt
                0xffffffff880d3891                rrg_SndChanMode2Api
                0xffffffff880d38e5                rrg_SndChanMode2Cc
                0xffffffff880d3915                rrg_SndMmCmkInd
                0xffffffff880d3949                rrg_SndMmRelInd
                0xffffffff880d39b1                rrg_SndCellChangeInd
                0xffffffff880d39ed                rrg_LapSuspend
                0xffffffff880d3a25                rrg_PrepL1ConnectReq
                0xffffffff880d3a59                rrg_SuspendGprs
                0xffffffff880d3b01                rrg_SndCmChange
                0xffffffff880d3bc9                rrg_SndHovFail
                0xffffffff880d3c41                rrg_LapReconnect
                0xffffffff880d3cc5                rrg_LapResume
                0xffffffff880d3dd5                rrg_StoreSi6
                0xffffffff880d405d                rrg_TrsSysInf6
                0xffffffff880d4089                rrg_RetrieveCa
                0xffffffff880d4101                rrg_SaveL1Param
                0xffffffff880d417d                rrg_DecideHov
                0xffffffff880d41dd                rrg_LapRelease
                0xffffffff880d4289                rrd_GiveUpL1Con
                0xffffffff880d42d5                rrg_SavCA
                0xffffffff880d43c1                rrg_TrcL1ConReq
                0xffffffff880d4509                rrg_L1Release
                0xffffffff880d454d                rrg_EndRrConnection
                0xffffffff880d45ad                rrg_SortL1CnxMas
                0xffffffff880d45e5                rrg_PrepHovCmd
                0xffffffff880d4b09                rrg_PrepAssCmd
                0xffffffff880d4f21                rrg_PrepImmAss
                0xffffffff880d520d                rrg_AccCtrlOK
                0xffffffff880d5299                rrgVoid_TrsStartAccess
                0xffffffff880d5379                rrgVoid_TrsConReq
                0xffffffff880d53fd                rrgWcnI_TrsLapReconnectCnf
                0xffffffff880d5411                rrg_Wcni_TrsDataReq
                0xffffffff880d5431                rrgWcnI_TrsLapReconnectFailInd
                0xffffffff880d5441                rrgWcnI_TrsL1ErrorInd
                0xffffffff880d5451                rrgWcnI_TrsLapEstablishFailInd
                0xffffffff880d54b5                rrgWcnI_TrsLapEstablishCnf
                0xffffffff880d552d                rrgWcnI_TrsL1ConnectCnf
                0xffffffff880d567d                rrgWcnN_TrsLapReleaseInd
                0xffffffff880d56c1                rrgWcnN_TrsLapResumeCnf
                0xffffffff880d56fd                rrgWcnN_TrsPhyInfo
                0xffffffff880d5765                rrgWcnN_TrsDataReq
                0xffffffff880d579d                rrgWcnN_ResumeInitial
                0xffffffff880d58c1                rrgWcnN_TrsL1ErrorInd
                0xffffffff880d5925                rrgWcnN_TrsL1ConnectCnf
                0xffffffff880d59f5                rrgWrls_TrsL1ErrorInd
                0xffffffff880d5a05                rrgWrls_TrsLapReleaseInd
                0xffffffff880d5a55                rri_EnterResel
                0xffffffff880d5a99                rri_EnterCamp
                0xffffffff880d5b15                rri_ForwardPagExp
                0xffffffff880d5b29                rri_NextSynchro
                0xffffffff880d5b61                rri_CSClean
                0xffffffff880d5dad                rri_TestMode
                0xffffffff880d5ded                rri_C1BCrit
                0xffffffff880d5e39                rri_CheckZones
                0xffffffff880d5ec1                rri_C1Eval
                0xffffffff880d6051                rri_TrsnPnltyExp
                0xffffffff880d6065                rri_TrsnUpdGprsWanted
                0xffffffff880d6079                rri_TrsnPlmnAccept
                0xffffffff880d608d                rri_TrsnSynchrFound
                0xffffffff880d60ad                rri_TrsnRstConState
                0xffffffff880d60c1                rri_TrsnCellRsp
                0xffffffff880d60e1                rriCGene_TrsnFreshSiExp
                0xffffffff880d60f9                rri_TrsnApiCellReselCnf
                0xffffffff880d6119                rri_TrsnNmoCfg
                0xffffffff880d614d                rri_TrsnNoRetExp
                0xffffffff880d6185                rriCGene_TrsnCbchReq
                0xffffffff880d6209                rri_TrsnPccoComplete
                0xffffffff880d6249                rri_TrsnPccoInd
                0xffffffff880d62ed                rri_TrsnPmo
                0xffffffff880d6365                rri_TrsnGprsReq
                0xffffffff880d6401                rriCCamped_TrsnFreshSiExp
                0xffffffff880d654d                rri_TrsnCellChangeInd
                0xffffffff880d656d                rri_TrsnExtMeasOrd
                0xffffffff880d6595                rri_TrsnSysInf5T
                0xffffffff880d65bd                rri_TrsnSysInf5B
                0xffffffff880d65e9                rri_TrsnSysInf5N
                0xffffffff880d6615                rriCResel_TrsnNotConInd
                0xffffffff880d6639                rriCCamped_TrsnNonDrxExp
                0xffffffff880d6665                rriCGene_TrsnNonDrxExp
                0xffffffff880d6679                rriCCamped_TrsnMmpProcInd
                0xffffffff880d66b5                rriCGene_TrsnMmpProcInd
                0xffffffff880d66d5                rriCTransf_TrsnNotConInd
                0xffffffff880d6785                rriCCamped_TrsnNotConInd
                0xffffffff880d67cd                rriCconn_TrsnNotConInd
                0xffffffff880d68c1                rri_TrsnStopScan
                0xffffffff880d68d5                rri_TrsnConnectedInd
                0xffffffff880d6961                rriCGene_TrsnMmReadyStInd
                0xffffffff880d69a5                rri_TrsnApiReselection
                0xffffffff880d69e9                rri_TrsnReselection
                0xffffffff880d6a19                rri_TrsnBaComplete
                0xffffffff880d6aa5                rri_TrsnNcMonitor
                0xffffffff880d6b3d                rri_TrsnLookBestNear
                0xffffffff880d6d0d                rri_TrsnIdleMonitor
                0xffffffff880d6e09                rri_TrsnSaveMonitor
                0xffffffff880d6e5d                rri_TrsnConnMonitor
                0xffffffff880d6eb1                rri_TrsnForwardPaging
                0xffffffff880d6f59                rri_TrsnSavePaging
                0xffffffff880d6ff5                rri_TrsnLookSysInfo
                0xffffffff880d7265                rri_TrsnEndCoVerify
                0xffffffff880d73f1                rri_TrsnReselVerify
                0xffffffff880d76e1                rri_TrsnRVerifNoRetExp
                0xffffffff880d7729                rri_TrsnDoSearch
                0xffffffff880d78f1                rri_TrsnSelecVerify
                0xffffffff880d7b39                rri_TrsnDoInitSearch
                0xffffffff880d7b85                rriCResel_TrsnSynchNeighNotFound
                0xffffffff880d7c75                rri_TrsnSynchNeighFound
                0xffffffff880d7e31                rri_TrsnStartSelection
                0xffffffff880d7edd                rri_TrsnStartScan
                0xffffffff880d7fad                rri_TrsnPlmnUpdte
                0xffffffff880d803d                rri_TrsnPlmnScan
                0xffffffff880d80b1                rri_TrsnPowerScan_Null
                0xffffffff880d8149                rri_TrsnPlmnSearch
                0xffffffff880d828d                rri_TrsnPlmnChge
                0xffffffff880d8419                rriCResel_TrsnNonDrxExp
                0xffffffff880d844d                rri_TrsnAsleepExp
                0xffffffff880d84ad                rri_TrsnReinit
                0xffffffff880d8529                rri_TrsnL1ErrorInd
                0xffffffff880d8675                rri_TrsnSynchNeighNotFound
                0xffffffff880d87a5                rri_TrsnPlmnReFresh
                0xffffffff880d8825                rri_TrsnPowerRsp_Null
                0xffffffff880d8889                rri_TrnsGuardRslExp
                0xffffffff880d8921                rri_SkipCbchCfg
                0xffffffff880d8941                rri_StoreCellSelecParam
                0xffffffff880d89cd                rri_DispSi3_4RO
                0xffffffff880d8a81                rri_StoreRachCtrlParam
                0xffffffff880d8b59                rri_StoreFrqList
                0xffffffff880d8c0d                rri_NewCbchCfg
                0xffffffff880d8c75                rri_SysScheduleOnMain
                0xffffffff880d8d49                rri_StoreSubBaL
                0xffffffff880d8dd9                rri_StoreSi25T
                0xffffffff880d8e8d                rri_StoreSi25B
                0xffffffff880d8f95                rri_StoreSi25N
                0xffffffff880d9129                rri_StoreSi1
                0xffffffff880d935d                rri_StoreRtdL
                0xffffffff880d9519                rri_StoreBsicL
                0xffffffff880d9665                rri_StoreRepPrio
                0xffffffff880d970d                rri_StoreGprsMeas
                0xffffffff880d99c5                rri_StoreNcMeasParams
                0xffffffff880d9b85                rri_UpdtS2QInst
                0xffffffff880d9ced                rri_StoreSi2Q
                0xffffffff880d9dbd                rri_StoreSi2QInd
                0xffffffff880d9e95                rri_StoreGprsInd
                0xffffffff880da001                rri_StoreEcsWhere
                0xffffffff880da0b1                rri_StoreSi2Ter
                0xffffffff880da14d                rri_StoreSiPsi13
                0xffffffff880da5a5                rri_StoreSi13
                0xffffffff880da5f5                rri_StoreCbchCfg
                0xffffffff880da7ad                rri_StoreOPtResel
                0xffffffff880da905                rr_StoreSi4Ro
                0xffffffff880da979                rri_StoreSi7_8
                0xffffffff880da9b5                rri_StoreSi4
                0xffffffff880dab1d                rr_StoreSi3Ro
                0xffffffff880daba9                rri_StoreSi3
                0xffffffff880dad41                rri_StoreBsi
                0xffffffff880db049                GROUP_rri_FREE_TDchD_Data
                0xffffffff880db04d                GROUP_rri_SETPRESENT_TDchD_Data
                0xffffffff880db051                GROUP_rri_FREE_TmmDl_Data
                0xffffffff880db055                GROUP_rri_SETPRESENT_TmmDl_Data
                0xffffffff880db059                GROUP_rri_FREE_TccDl_Data
                0xffffffff880db05d                GROUP_rri_SETPRESENT_TccDl_Data
                0xffffffff880db061                GROUP_rri_FREE_TCcch_Data
                0xffffffff880db065                GROUP_rri_SETPRESENT_TCcch_Data
                0xffffffff880db069                rri_InstReceived
                0xffffffff880db075                rri_CheckInst
                0xffffffff880db0e5                rri_ResetPSi5Info
                0xffffffff880db101                rri_ResetSi2QInfo
                0xffffffff880db11d                rri_SaveInst
                0xffffffff880db155                rri_ResetPSi3Info
                0xffffffff880db1a5                rri_ResetPmoInfo
                0xffffffff880db1f5                rri_ResetPSi2Info
                0xffffffff880db23d                rri_InitPsiInst
                0xffffffff880db295                rri_NewSetOfInst
                0xffffffff880db2d5                rri_NextInst
                0xffffffff880db331                rri_SaveSyncMode
                0xffffffff880db359                rri_BeInBlackList
                0xffffffff880db3a9                rri_EnhCmp
                0xffffffff880db3c5                rri_IsInvBsicSeen
                0xffffffff880db41d                rri_GetNcMonResults
                0xffffffff880db4b9                rri_DisplayBlackList
                0xffffffff880db531                rri_UpdateBlackList
                0xffffffff880db58d                rri_IsPermitted
                0xffffffff880db5cd                rri_DoExtReport
                0xffffffff880db6ad                rri_DoNormReport
                0xffffffff880db89d                rri_SendQualReport
                0xffffffff880db919                rri_SaveQualMod
                0xffffffff880db951                rri_SendL1AdjCReport
                0xffffffff880db981                rri_TrsnSendAdjCReportTimExp
                0xffffffff880db995                rri_DoPckReport
                0xffffffff880dbcd9                rri_DoEnhReport
                0xffffffff880dbf79                rri_GetItemInBlackList
                0xffffffff880dbfb5                rri_TakeDynMeasPar
                0xffffffff880dc005                rri_RetrvPsi5Params
                0xffffffff880dc069                rri_PutDynMeasPar
                0xffffffff880dc0b9                rri_SavePsi5Params
                0xffffffff880dc115                rri_EnhRepPossible
                0xffffffff880dc161                rri_BandSubSynchro
                0xffffffff880dc25d                rri_FetchSynchro
                0xffffffff880dc301                rri_MonAddSynchro
                0xffffffff880dc3b9                rri_MonDistribute
                0xffffffff880dc465                rri_GetMonResults
                0xffffffff880dc689                rri_NewReportable
                0xffffffff880dc729                rri_MonParse
                0xffffffff880dc8e1                rri_GetOtherBands
                0xffffffff880dc945                rri_HandleNCMonitorInd
                0xffffffff880dcac1                rri_SendAdjCReport
                0xffffffff880dcc19                rri_SaveAdjCMod
                0xffffffff880dcc71                rri_SendCurCReport
                0xffffffff880dcfc5                rri_HandleMonitorInd2
                0xffffffff880dd235                rri_SaveCurCMod
                0xffffffff880dd269                rri_ActOrderMeasPar
                0xffffffff880dd2fd                rri_ResetPccoInfo
                0xffffffff880dd339                rri_CheckPcco
                0xffffffff880dd499                rri_ResetNcMeasPar
                0xffffffff880dd4c9                rri_UpdL1BcchMode
                0xffffffff880dd50d                rri_ListenToBroadCast
                0xffffffff880dd589                rri_GoPsPag
                0xffffffff880dd725                rri_GoCsPag
                0xffffffff880dd7f5                rri_UpdL1PagCfg
                0xffffffff880dd831                rri_ListenToPag
                0xffffffff880dd881                rri_GoIdle
                0xffffffff880dd8b1                rri_WhichPsi
                0xffffffff880dd909                rri_SetNeedPTcInfo
                0xffffffff880dd9ad                rri_ResetBaRcvPTcInfo
                0xffffffff880dd9d5                rri_PrepCompletePBcch
                0xffffffff880dd9f1                rri_SetNewNeedPsi
                0xffffffff880dda65                rri_ResetNeedPTcInfo
                0xffffffff880dda99                rri_StopPBcch
                0xffffffff880ddaa9                rri_SendL1PBcchCfg
                0xffffffff880ddc81                rri_Switch2PBcch
                0xffffffff880ddd09                rri_RefreshPBcchCfg
                0xffffffff880ddd65                rri_StartPBcch
                0xffffffff880ddde5                rri_ReselGetFromSet
                0xffffffff880dde61                rri_InitNCellParam
                0xffffffff880dde81                rri_Skip3GNCellDesc
                0xffffffff880de1fd                rri_SkipLsaParams
                0xffffffff880de27d                rri_SkipExtMeasParStruct
                0xffffffff880de3c1                rri_StoreDyn98AddMeasPar
                0xffffffff880de815                rri_StoreGalCellSelecParam
                0xffffffff880de991                rri_StoreServCellParam
                0xffffffff880deaf5                rri_StoreAdditionalPsiMsg
                0xffffffff880debd9                rri_StoreCaLists
                0xffffffff880dec81                rri_StoreNonGprsCellOpt
                0xffffffff880def89                rri_StorePccchOrgParams
                0xffffffff880df0f9                rri_StoreCellSelectStruct
                0xffffffff880df399                rri_StoreNCP2PropL
                0xffffffff880df5d9                rri_StoreRmvFrqL
                0xffffffff880df671                rri_StoreNeighBParamset
                0xffffffff880df9bd                rri_StorePsi13
                0xffffffff880df9f9                rri_StorePsi5
                0xffffffff880dff09                rri_StoreNCP2RepeatStruct
                0xffffffff880dffd9                rri_StoreNCellParam2Struct
                0xffffffff880e0119                rri_StoreGlbPwrCtrlPar
                0xffffffff880e02c9                rri_NCP2ToNCellPar2L
                0xffffffff880e04f9                rri_AllocNCellParElem
                0xffffffff880e0555                rri_StoreAddFrqLStruct
                0xffffffff880e07ad                rri_StoreDynNcMeasPars
                0xffffffff880e093d                rri_StorePcco
                0xffffffff880e0a75                rri_StorePmo
                0xffffffff880e0bb1                rri_StoreNCellParamStruct
                0xffffffff880e0db1                rri_StorePsi3
                0xffffffff880e0ef9                rri_NCP2Free
                0xffffffff880e0f9d                rri_StorePsi3Bis
                0xffffffff880e11dd                rri_StorePccchDscLists
                0xffffffff880e14e1                rri_StoreCellIdentification
                0xffffffff880e1685                rri_StorePRachCtrlParams
                0xffffffff880e19bd                rri_StoreGprsMaLists
                0xffffffff880e1a65                rri_StoreRefFreqLists
                0xffffffff880e1b8d                rri_StorePsi2
                0xffffffff880e1e01                rri_StoreGprsCellOptIE
                0xffffffff880e21dd                rri_StorePsi1
                0xffffffff880e2571                rri_BuildGprsMas
                0xffffffff880e2641                rri_StorePsi
                0xffffffff880e2859                rri_plmnIsEHplmn
                0xffffffff880e28c9                rri_FindPlmn
                0xffffffff880e2911                rri_HigherPrio
                0xffffffff880e2959                rri_InvalidPlmn
                0xffffffff880e2975                rri_LaiCmp
                0xffffffff880e2989                rri_PlmnCmp
                0xffffffff880e299d                rri_SetReqBand
                0xffffffff880e2a89                rri_EndPSelProc
                0xffffffff880e2afd                rri_DispBand
                0xffffffff880e2b45                rri_InsertFPlmnCheck
                0xffffffff880e2b89                rri_AddPSelProc
                0xffffffff880e2bf1                rri_PlmnPurge
                0xffffffff880e2c05                rri_FirstPlmn
                0xffffffff880e2c51                rri_CopyPlmnL
                0xffffffff880e2cdd                rri_SendSearchPlmn
                0xffffffff880e2d41                rri_SearchFirstPlmn
                0xffffffff880e2d81                rri_AddAvailCell
                0xffffffff880e2e49                rri_GiveAPlmnPtr
                0xffffffff880e2e85                rri_MakeWPlmnL
                0xffffffff880e2fe9                rri_InsAvailPlmn
                0xffffffff880e3085                rri_GiveFPlmnPtr
                0xffffffff880e30e1                rri_NextPlmn
                0xffffffff880e31b9                rri_RmvFPlmn
                0xffffffff880e3201                rri_InsFPlmn
                0xffffffff880e3295                rri_GiveFLaiRegProPtr
                0xffffffff880e32f9                rri_InsFLaiRegPro
                0xffffffff880e335d                rri_GiveFLaiPtr
                0xffffffff880e33c1                rri_CheckLai
                0xffffffff880e33d9                rri_InsFLai
                0xffffffff880e343d                rri_FPlmnQ2L
                0xffffffff880e34f9                rri_DelAPlmnQ
                0xffffffff880e3531                rri_PSClean
                0xffffffff880e3595                rri_GoNoSvce
                0xffffffff880e3641                rri_NextOrNoSvce
                0xffffffff880e378d                rri_TrsnPNULL_SimCloseInd
                0xffffffff880e37a1                rri_NwPlmnListReq
                0xffffffff880e37f1                rri_CellListReq
                0xffffffff880e3841                rri_TrsnUpdateMsRACap
                0xffffffff880e3855                rri_TrsnEmptyList
                0xffffffff880e3869                rri_TrsnDenyList
                0xffffffff880e387d                rri_TrsnPsCon
                0xffffffff880e38ed                rr_StartLTDTimer
                0xffffffff880e3955                rri_TranPNULL_LocationLockTim
                0xffffffff880e3975                rri_TrsnSimAwake
                0xffffffff880e39b9                rri_TrsnNSvcTimExp
                0xffffffff880e3a01                rri_TrsnPlmnLost
                0xffffffff880e3a5d                rri_TrsnScanHPlmn
                0xffffffff880e3aa9                rri_TrsnLtdSvcTimExp
                0xffffffff880e3abd                rri_TrsnNwListReq
                0xffffffff880e3ad1                rri_TrsnRaUpdStaConn
                0xffffffff880e3b09                rri_TrsnRaUpdSta
                0xffffffff880e3b85                rri_TrsnDetectMBS
                0xffffffff880e3bb9                rri_TrsnSelMode
                0xffffffff880e3bed                rri_TrsnSelReq
                0xffffffff880e3c61                rri_TrsnReselReq
                0xffffffff880e3cc1                rri_TrsnLocUpSta
                0xffffffff880e406d                rri_TrsnLocUpStaConn
                0xffffffff880e40f9                rri_TrsnPlmnEndCo
                0xffffffff880e4199                rri_TrsnPSimClosedInd
                0xffffffff880e41d5                rri_TrsnChgeSPlmn
                0xffffffff880e42b1                rri_TrsnUpdtSPlmn
                0xffffffff880e432d                rri_TrsnPNULL_SimOpenInd
                0xffffffff880e4441                rri_TrsnPSimOpenInd
                0xffffffff880e457d                rri_TrsnNwListAbortReq
                0xffffffff880e45ad                rri_TrsnAPlmnListDone
                0xffffffff880e4641                rri_PwcsTrsnNewAvailPlmn
                0xffffffff880e4729                rri_TrsnNewAvailPlmn
                0xffffffff880e4811                rri_TrsnStartReq
                0xffffffff880e49a9                rri_TrsnStopReq
                0xffffffff880e4a45                rri_TrsnPlmnNotFound
                0xffffffff880e4b01                rri_TrsnPlmnFound
                0xffffffff880e4cdd                rri_RecntRslExp
                0xffffffff880e4cf1                rri_C31Eval
                0xffffffff880e4d31                rri_CheckStartPnltyTimer
                0xffffffff880e4da5                rri_ReqReselGrant
                0xffffffff880e4dfd                rri_HandoverInd
                0xffffffff880e4f09                rri_RetOldMain
                0xffffffff880e4fb1                rri_NetOrder
                0xffffffff880e511d                rri_StronguestRE
                0xffffffff880e519d                rri_GiveStronguest
                0xffffffff880e51f9                rri_SameArea
                0xffffffff880e5249                rri_C232Eval
                0xffffffff880e5345                rri_RankCell
                0xffffffff880e548d                rri_BestC232
                0xffffffff880e5609                rri_GiveReselCell
                0xffffffff880e5685                rri_PreResel
                0xffffffff880e5785                rri_Reselection
                0xffffffff880e5995                rri_AddList
                0xffffffff880e59e5                rri_SetARssiL
                0xffffffff880e5a7d                rri_RssiCmp
                0xffffffff880e5a99                rri_IsStored
                0xffffffff880e5ac9                rri_BoostStored
                0xffffffff880e5b1d                rri_ValidCells
                0xffffffff880e5b6d                rri_CopyList
                0xffffffff880e5b91                rri_LeftShift
                0xffffffff880e5bcd                rri_NoiseKnown
                0xffffffff880e5c11                rri_ReOrderARssi
                0xffffffff880e5ce9                rri_DispRssi
                0xffffffff880e5d61                rri_GiveStopIdx
                0xffffffff880e5f55                rri_OrderARssi
                0xffffffff880e6035                rri_SndARssiL
                0xffffffff880e6079                rri_EndScan
                0xffffffff880e611d                rri_VerifyScan
                0xffffffff880e6159                rri_DoScan
                0xffffffff880e6349                rri_CellSleepIncr
                0xffffffff880e6379                rri_ResetXcv
                0xffffffff880e63a1                rri_RrWantsCbch
                0xffffffff880e63b9                rri_IsChinaMobile
                0xffffffff880e6449                rri_UpdNonDrxMode
                0xffffffff880e64a9                rri_StoreBaLToCsw
                0xffffffff880e6569                rri_SndPccoResult
                0xffffffff880e65ad                rri_SndPlmnNasUpd
                0xffffffff880e6601                rri_SndPlmnFound
                0xffffffff880e6641                rri_ClearRmvNcFrqL
                0xffffffff880e6661                rri_ClearNCellParam
                0xffffffff880e66a1                rri_InitVar
                0xffffffff880e68dd                rri_GetBaLFromCsw
                0xffffffff880e6b09                rri_StopCbch
                0xffffffff880e6b49                rri_ActivateCbch
                0xffffffff880e6bdd                rri_UpdL1CbchCfg
                0xffffffff880e6c71                rri_SendCell
                0xffffffff880e6dd9                rri_SendNasInfo
                0xffffffff880e6e21                rri_StoreInfo
                0xffffffff880e6e59                rri_CheckSi13GMaCmplte
                0xffffffff880e6eb1                rri_HandleInfoSchedule
                0xffffffff880e705d                rri_Init
                0xffffffff880e7225                rrpAccI_TrsRelReq
                0xffffffff880e727d                rrpAccI_TrsL1TBFCfgCnf
                0xffffffff880e7349                rrpAccI_TrsAccRejInd
                0xffffffff880e74ad                rrpAccI_TrsT3186Exp
                0xffffffff880e74c1                rrpAccI_TrsT3170Exp
                0xffffffff880e74d5                rrpAccI_TrsT3162Exp
                0xffffffff880e74e9                rrpAccI_TrsL1PSDataInd
                0xffffffff880e754d                rrpAccI_TrsT3168Exp
                0xffffffff880e7561                rrpAccI_TrsT3146Exp
                0xffffffff880e76c5                rrpAccI_TrsSIAExp
                0xffffffff880e76d9                rrpAccI_TrsPDlAss
                0xffffffff880e77e9                rrpAccI_TrsPQueNotif
                0xffffffff880e784d                rrpAccI_TrsPUlAss
                0xffffffff880e791d                rrpAccI_TrsImmAssCmp
                0xffffffff880e7b29                rrpAccN_TrsAccRejInd
                0xffffffff880e7bb1                rrpAccN_TrsTExp
                0xffffffff880e7c09                rrpAccN_TrsT3168Exp
                0xffffffff880e7c49                rrpAccN_TrsL1PSDataInd
                0xffffffff880e7cad                rrpAccN_TrsPUlAss
                0xffffffff880e7d6d                rrpAccN_TrsImmAssRej
                0xffffffff880e7ec1                rrpAccN_TrsImmAssCmp
                0xffffffff880e7fb9                rrpAccN_TrsImmAss
                0xffffffff880e81e9                rrpCond_TrsSglUlExp
                0xffffffff880e820d                rrpCond_TrsSglDlExp
                0xffffffff880e821d                rrpCond_TrsT3192Exp
                0xffffffff880e824d                rrpCond_TrsPCCO
                0xffffffff880e82b9                rrpCond_TrsDlRelDalay
                0xffffffff880e83b9                rrpCond_TrsEndFixedInd
                0xffffffff880e83ed                rrpCond_TrsL1TBFCfgCnf
                0xffffffff880e851d                rrpCond_TrsUlRelDalay
                0xffffffff880e8745                rrpCond_TrsT3184Exp
                0xffffffff880e8759                rrpCond_TrsRelReq
                0xffffffff880e87b1                rrpCond_TrsT3190Exp
                0xffffffff880e887d                rrpCond_TrsT3188Exp
                0xffffffff880e88a1                rrpCond_TrsT3164Exp
                0xffffffff880e88e1                rrpCond_TrsConReq
                0xffffffff880e8b2d                rrpCond_TrsAccRejInd
                0xffffffff880e8d4d                rrpCond_TrsPUlAckNackInd
                0xffffffff880e90d5                rrpCond_TrsL1PSDataInd
                0xffffffff880e91fd                rrpCond_TrsT3180Exp
                0xffffffff880e929d                rrpCond_TrsT3168Exp
                0xffffffff880e938d                rrpCond_TrsPTBFRel
                0xffffffff880e960d                rrpCond_TrsPPwrCtrlTA
                0xffffffff880e96e5                rrpCond_TrsPPDCHRel
                0xffffffff880e97f1                rrpCond_TrsPDlAss
                0xffffffff880e9819                rrpCond_TrsPUlAss
                0xffffffff880e98d9                rrpCond_TrsPTSReconf
                0xffffffff880e9db1                rrpGene_TrsT3142Exp
                0xffffffff880e9dc5                rrpGene_TrsT3172Exp
                0xffffffff880e9dd9                rrpGene_TrsT3176Exp
                0xffffffff880e9df5                rrpGene_TrsConReq
                0xffffffff880e9ed9                rrpGene_TrsT3174Exp
                0xffffffff880e9f25                rrpGene_TrsCellRsp
                0xffffffff880e9fd5                rrpGene_TrsUSFInd
                0xffffffff880ea0b5                rrp_HdleGPTimAdv
                0xffffffff880ea129                rrp_HdlePTimAdv
                0xffffffff880ea181                rrp_HdlePwrCtrlParam
                0xffffffff880ea1b5                rrp_TestModeReq
                0xffffffff880ea1c9                rrp_Allocation
                0xffffffff880ea38d                rrp_SendPCCFail
                0xffffffff880ea439                rrp_HdlePCCO
                0xffffffff880ea6bd                rrp_HdleST
                0xffffffff880ea73d                rrp_HdleFixed
                0xffffffff880ea955                rrp_HdleDynamic
                0xffffffff880eab09                rrp_HdleFreqParam
                0xffffffff880eadb9                rrp_HdlePDlAss
                0xffffffff880eb1ed                rrp_HdlePUlAss
                0xffffffff880eb5e5                rrp_PrepPResReq
                0xffffffff880eb97d                rrp_FillCmnAssgt
                0xffffffff880ebb81                rrp_FillUlAssgt
                0xffffffff880ebf81                rrp_FillDlAssgt
                0xffffffff880ec275                rrp_HdlePImmAssDl
                0xffffffff880ec58d                rrp_FdIdx
                0xffffffff880ec599                rrp_FwdPcco
                0xffffffff880ec5c9                rrp_SendReleaseInd
                0xffffffff880ec651                rrp_ReleaseTBFs
                0xffffffff880ec73d                rrp_PCCOBack
                0xffffffff880ec7d5                rrp_PurgeQ
                0xffffffff880ec7e9                rrp_AccessFailure
                0xffffffff880ec8d1                rrp_SendUlEstabN
                0xffffffff880ec9d9                rrp_SendUlEstab
                0xffffffff880ecb29                rrp_PrepPL1ConI
                0xffffffff880ecb7d                rrp_SIATimerExp
                0xffffffff880ecc15                rrp_StartPRach
                0xffffffff880ecd95                rrp_SdPccchReqEvt
                0xffffffff880ecdc1                rrp_LaunchRachProc
                0xffffffff880ece6d                rrp_BuildAllocBitmap
                0xffffffff880ecfc5                rrp_IsRefForMe
                0xffffffff880ed079                rrp_DlRelease
                0xffffffff880ed1b9                rrp_UlRelease
                0xffffffff880ed329                rrp_AccCtrlOK
                0xffffffff880ed3c1                rrp_AbnormalRel
                0xffffffff880ed6d9                rrp_TrsContResFail
                0xffffffff880ed85d                rrpVoid_TrsT3168Exp
                0xffffffff880ed89d                rrpVoid_TrsPCCO
                0xffffffff880ed8b9                rrpVoid_TrsMacEstabReq
                0xffffffff880ed975                rrpVoid_TrsSIAExp
                0xffffffff880ed989                rrpVoid_TrsImmAssCmp
                0xffffffff880eda81                rrpVoid_TrsPDlAss
                0xffffffff880edadd                rrpVoid_TrsImmAss
                0xffffffff880edc31                rrpVoid_TrsConReq
                0xffffffff880edd85                rrpWcnI_TrsPUlAss
                0xffffffff880ede01                rrpWcnI_TrsT3168Exp
                0xffffffff880ede15                rrpWcnI_TrsL1PSDataInd
                0xffffffff880ede79                rrpWcnI_TrsPDlAss
                0xffffffff880ede8d                rrpWcnI_TrsL1TBFCfgCnf
                0xffffffff880ee03d                rrpWcnN_TrsPUlAss
                0xffffffff880ee0b1                rrpWcnN_TrsT3168Exp
                0xffffffff880ee0c5                rrpWcnN_TrsL1PSDataInd
                0xffffffff880ee129                rrpWcnN_TrsL1TBFCfgCnf
                0xffffffff880ee299                rrpWrsl_TrsConReq
                0xffffffff880ee40d                sxs_ProtoStackAvail
                0xffffffff880ee411                sxs_UsimSupported
                0xffffffff880ee415                sxs_SimLimitRfTxPower
                0xffffffff880ee419                sxs_SimFastAtr
                0xffffffff880ee41d                sxs_PsReselect
                0xffffffff880ee421                sxs_IsExtULTBFSupported
                0xffffffff880ee425                sxs_IsBlackListSupported
                0xffffffff880ee429                sxs_L1UseStoredAfc
                0xffffffff880ee42d                sxs_AdjCellSys3
                0xffffffff880ee431                sxs_IsJammingDTSupported
                0xffffffff880ee43d                csw_RegisterYourself
                0xffffffff880ee5a1                flashBlockDeviceFormat
                0xffffffff880eead1                flashBlockDeviceCreate
                0xffffffff880ef595                sffsTellDir
                0xffffffff880ef5a5                sffsSeekDir
                0xffffffff880ef659                sffsSync
                0xffffffff880ef68d                sffsStatVfs
                0xffffffff880ef801                sffsReadDirR
                0xffffffff880ef949                sffsReadDir
                0xffffffff880efaf1                sffsFstat
                0xffffffff880efb71                sffsSeek
                0xffffffff880eff89                sffsCloseDir
                0xffffffff880effd9                sffsClose
                0xffffffff880f0179                sffsOpenDir
                0xffffffff880f0271                sffsRead
                0xffffffff880f03c9                _fileWrite
                0xffffffff880f0821                sffsWrite
                0xffffffff880f0ce1                sffsFtruncate
                0xffffffff880f0dd1                sffsUnlink
                0xffffffff880f0eb1                sffsRmDir
                0xffffffff880f110d                sffsMakeFs
                0xffffffff880f1199                sffsUnmount
                0xffffffff880f11b9                sffsMount
                0xffffffff880f140d                _pathFileName
                0xffffffff880f1429                sffsRename
                0xffffffff880f1715                sffsMkDir
                0xffffffff880f1889                sffsOpen
                0xffffffff880f1ae5                sffsVfsMkfs
                0xffffffff880f1b09                sffsVfsMount
                0xffffffff880f1fa9                sm_BuildModifyPdpCtxAccMsg
                0xffffffff880f203d                sm_BuildDeactivatePdpCtxAccMsg
                0xffffffff880f20d1                sm_BuildDeactivatePdpCtxReqMsg
                0xffffffff880f2171                sm_BuildActivatePdpCtxRejMsg
                0xffffffff880f2211                sm_BuildModifyPdpCtxReqMsg
                0xffffffff880f2301                sm_BuildActivatePdpCtxReqMsg
                0xffffffff880f2471                sm_BuildStatusMsg
                0xffffffff880f2521                sm_ProcessSmStatusMsg
                0xffffffff880f2561                sm_ProcessDeactivatePdpCtxReqMsg
                0xffffffff880f25a5                sm_ProcessModifyPdpCtxRejMsg
                0xffffffff880f25e5                sm_ProcessModifyPdpCtxReqMsg
                0xffffffff880f2815                sm_ProcessActivatePdpCtxRejMsg
                0xffffffff880f28ed                sm_ProcessActivatePdpCtxAccMsg
                0xffffffff880f2bb5                sm_ProcessModifyPdpCtxAccMsg
                0xffffffff880f2dd5                sm_SendMsg
                0xffffffff880f2e39                sm_PrepMsg
                0xffffffff880f2e7d                smc_DoNothing
                0xffffffff880f2e81                smc_MTIdle_CpError
                0xffffffff880f2e85                smc_MTWaitCpAck_Error97
                0xffffffff880f2e99                smc_MTConnected_Error97
                0xffffffff880f2ead                smc_MTConnected_CpAck
                0xffffffff880f2ec1                smc_MOConnected_Error97
                0xffffffff880f2ed5                smc_MOConnected_CpAck
                0xffffffff880f2ee9                smc_MOWaitCpAck_Error97
                0xffffffff880f2efd                smc_MOWaitCpAck_ReleaseInd
                0xffffffff880f2f1d                smc_MTWaitApiReport_AbortReq
                0xffffffff880f2f89                smc_MTIdle_Error97
                0xffffffff880f3001                smc_MOWaitNewEstabCnf_AbortReq
                0xffffffff880f3075                smc_MOWaitNewEstabCnf_ReleaseReq
                0xffffffff880f30c9                smc_MOConnected_AbortReq
                0xffffffff880f3129                smc_MOWaitEstabCnf_ReleaseReq
                0xffffffff880f31ad                smc_MTWaitCpAck_CpAck
                0xffffffff880f3269                smc_MTAllState_ReleaseInd
                0xffffffff880f32ad                smc_MOWaitCpAck_AbortReq
                0xffffffff880f3339                smc_MOWaitCpAck_ReleaseReq
                0xffffffff880f33bd                smc_MOWaitCpAck_CpAck
                0xffffffff880f3479                smc_MOAllState_ReleaseInd
                0xffffffff880f34cd                smc_MTWaitCpAck_CpError
                0xffffffff880f35b1                smc_MTConnected_CpError
                0xffffffff880f3671                smc_MOWaitNewEstabCnf_ReleaseInd
                0xffffffff880f36e1                smc_MOWaitNewEstabCnf_EstabErr
                0xffffffff880f372d                smc_MOWaitNewEstabCnf_EstabCnf
                0xffffffff880f3789                smc_MOConnected_CpError
                0xffffffff880f386d                smc_MOWaitCpAck_CpError
                0xffffffff880f3959                smc_MOWaitEstabCnf_EstabErr
                0xffffffff880f39a9                smc_MTWaitCpAck_CpData
                0xffffffff880f3a61                smc_MTConnected_CpData
                0xffffffff880f3ae1                smc_MTIdle_CpData
                0xffffffff880f3bcd                smc_MOWaitNewEstabCnf_ServReqAck
                0xffffffff880f3bf1                smc_MOConnected_CpData
                0xffffffff880f3d61                smc_MOWaitCpAck_CpData
                0xffffffff880f4019                smc_MTWaitCpAck_TC1M
                0xffffffff880f4151                smc_MOWaitCpAck_TC1M
                0xffffffff880f429d                smc_MTConnected_DataReq
                0xffffffff880f4365                smc_MTIdle_DataReq
                0xffffffff880f442d                smc_MOConnected_DataReq
                0xffffffff880f44f9                smc_MOConnected_EstabReq
                0xffffffff880f4581                smc_MOWaitEstabCnf_EstabCnf
                0xffffffff880f4665                smc_MOIdle_SmrEstabReq
                0xffffffff880f4775                smc_MOIdle_AbortReqEvt
                0xffffffff880f47a1                smc_MOConnected_ReleaseReq
                0xffffffff880f4815                smc_MOWaitEstabCnf_ReleaseInd
                0xffffffff880f492d                smc_MOIdle_TC1M
                0xffffffff880f4ad5                smc_FillCpDataHeader
                0xffffffff880f4b89                smc_SendCpError
                0xffffffff880f4c39                smc_SendCpAck
                0xffffffff880f4cd5                smr_DoNothing
                0xffffffff880f4cd9                smr_MTWaitApiReport_TR2M
                0xffffffff880f4d45                smr_MTIdle_SmcErrorInd
                0xffffffff880f4d7d                smr_MOWaitRpAck_TR1MRe
                0xffffffff880f4df5                smr_MOWaitRpAck_TR1M
                0xffffffff880f4e79                smr_MTAllState_ReleaseInd
                0xffffffff880f4ea5                smr_MOWaitRetransMMA_AbortMMA
                0xffffffff880f4ed5                smr_MOWaitRetransMMA_SmcErrorInd
                0xffffffff880f4f11                smr_MOWaitMMARpAck_AbortMMA
                0xffffffff880f4f41                smr_MOWaitMMARpAck_SmcErrorInd
                0xffffffff880f4f7d                smr_MOWaitMMARpAck_EstabErr
                0xffffffff880f4fe5                smr_MOAllStateExceptIdle_AbortReq
                0xffffffff880f5041                smr_MOAllStateExceptIdle_ReleaseInd
                0xffffffff880f50ed                smr_MTWaitApiReport_SmsPPErrorReq
                0xffffffff880f5189                smr_MTWaitApiReport_SmsPPAckReq
                0xffffffff880f5215                smr_MTIdle_Error97
                0xffffffff880f5261                smr_MTIdle_Error95
                0xffffffff880f52ad                smr_MOWaitMMARpAck_RpData
                0xffffffff880f52d5                smr_MOWaitMMARpAck_Error97
                0xffffffff880f52fd                smr_MOWaitMMARpAck_Error95
                0xffffffff880f5325                smr_MOWaitRpAck_RpData
                0xffffffff880f535d                smr_MOWaitRpAck_Error97
                0xffffffff880f5381                smr_MOWaitRpAck_Error95
                0xffffffff880f53a5                smr_MTIdle_RpData
                0xffffffff880f545d                smr_MOWaitMMARpAck_TR1M
                0xffffffff880f5509                smr_MOWaitRpAck_EstabErr
                0xffffffff880f55a5                smr_MOWaitRetransMMA_TRAM
                0xffffffff880f5611                smr_MOIdle_SmsPPSendMMAReq
                0xffffffff880f56b5                smr_MOWaitMMARpAck_RpError
                0xffffffff880f5789                smr_MOWaitMMARpAck_RpAck
                0xffffffff880f580d                smr_MOWaitRpAck_RpAck
                0xffffffff880f589d                smr_MOWaitRpAck_RpError
                0xffffffff880f5961                smr_MOWaitRpAck_SmcErrorInd
                0xffffffff880f59d1                smr_MO_Idle_Init
                0xffffffff880f5a11                smr_MOIdle_SelfSend
                0xffffffff880f5ac5                smr_MOIdle_SmsPPSendReq
                0xffffffff880f5c49                smr_TestTemporyFailureIndication
                0xffffffff880f5c71                smr_CheckTPDU
                0xffffffff880f5ca1                smr_FillRpErrorHeader
                0xffffffff880f5d91                smr_SendRpError
                0xffffffff880f5df1                smr_FillRpAckHeader
                0xffffffff880f5ea1                smr_FillRpSMMAHeader
                0xffffffff880f5efd                smr_SendSmsPPErrorInd
                0xffffffff880f5fd9                smr_SendSmsPPAckInd
                0xffffffff880f6065                smr_FillRpDataHeader
                0xffffffff880f6111                SMS_DM_GetFreeIndexFromNv
                0xffffffff880f6171                SMS_DM_GetIndexByStatus
                0xffffffff880f6235                SMS_DM_Delete
                0xffffffff880f6309                SMS_DM_OverWrite
                0xffffffff880f6391                SMS_DM_Read
                0xffffffff880f6419                SMS_DM_Add
                0xffffffff880f64b9                SMS_DM_Init
                0xffffffff880f654d                sms_StopTimer
                0xffffffff880f65a5                sms_StartTimer
                0xffffffff880f6625                sms_SendMsg
                0xffffffff880f66b5                sms_PrepMsg
                0xffffffff880f676d                snd_Decompress
                0xffffffff880f8021                ss_rxMsgParse
                0xffffffff880fa995                stack_GetAutoCallStruct
                0xffffffff880fa9a1                stack_RegisterYourself
                0xffffffff880fa9bd                std_RegisterYourself
                0xffffffff880fa9d9                SUL_StrCat
                0xffffffff880fa9f5                SUL_StrChr
                0xffffffff880faa15                SUL_StrCompare
                0xffffffff880faa31                SUL_StrCaselessCompare
                0xffffffff880faa61                SUL_StrCopy
                0xffffffff880faa75                SUL_StrNCopy
                0xffffffff880faa8d                SUL_Strlen
                0xffffffff880faa9d                SUL_StrNCaselessCompare
                0xffffffff880faae1                SUL_StrAToI
                0xffffffff880fac69                SUL_MemCompare
                0xffffffff880fac91                SUL_MemCopy32
                0xffffffff880faca9                SUL_MemCopy8
                0xffffffff880facc1                SUL_MemSet32
                0xffffffff880facdd                SUL_MemSet8
                0xffffffff880facf9                SUL_ZeroMemory32
                0xffffffff880fad0d                SUL_ZeroMemory8
                0xffffffff880fad1d                SUL_CharUpper
                0xffffffff880fad51                SUL_Vsprintf
                0xffffffff880fb071                SUL_StrVPrint
                0xffffffff880fb081                SUL_StrPrint
                0xffffffff880fb099                sx_RegisterYourself
                0xffffffff880fb0b5                sys_init
                0xffffffff880fb0b9                sys_sem_valid
                0xffffffff880fb0c5                sys_sem_set_invalid
                0xffffffff880fb0cd                sys_mbox_valid
                0xffffffff880fb0d9                sys_mbox_set_invalid
                0xffffffff880fb12d                sys_jiffies
                0xffffffff880fb13d                sys_now
                0xffffffff880fb185                sys_arch_printf
                0xffffffff880fb1c5                sys_dotimeout
                0xffffffff880fb1f9                sys_untimeout
                0xffffffff880fb295                sys_timeout
                0xffffffff880fb331                sys_arch_assert
                0xffffffff880fb341                sys_arch_mbox_fetch
                0xffffffff880fb405                sys_mbox_trypost
                0xffffffff880fb41d                sys_arch_mbox_tryfetch
                0xffffffff880fb44d                sys_mbox_free
                0xffffffff880fb469                sys_mbox_new
                0xffffffff880fb495                sys_arch_sem_wait
                0xffffffff880fb54d                sys_sem_signal
                0xffffffff880fb585                sys_sem_free
                0xffffffff880fb5c9                sys_sem_new
                0xffffffff880fb605                tcpip_init
                0xffffffff880fb61d                tcpip_callback_with_block
                0xffffffff880fb651                tcpip_inpkt
                0xffffffff880fb68d                tcpip_input
                0xffffffff880fb6b5                tcpip_send_msg_wait_sem
                0xffffffff880fb715                tcpip_thread
                0xffffffff880fb7e1                sys_timeouts_init
                0xffffffff880fb815                tcp_timer_needed
                0xffffffff880fb851                tcpip_tcp_timer
                0xffffffff880fb88d                cyclic_timer
                0xffffffff880fb8c1                TIM_GetSingleValidIdx
                0xffffffff880fb8e1                TIM_GetValidIdx
                0xffffffff880fb91d                TM_PowerOff
                0xffffffff880fbed9                DM_AlmRegTimerServ
                0xffffffff880fc05d                TM_PowerOn
                0xffffffff880fc1b9                TIM_GetEqualTimeAlmIdx
                0xffffffff880fc291                DM_AlarmDisposeInEvt
                0xffffffff880fc4e1                tm_AlramProc
                0xffffffff880fc545                TIM_GetGloAlarmInfo
                0xffffffff880fc571                TIM_SetLastErr
                0xffffffff880fc57d                TIM_GetTimePara
                0xffffffff880fc631                TM_GetDayNoInYear
                0xffffffff880fc749                TM_FileTimeToSystemTime
                0xffffffff880fc855                TM_GetDayOfWeekEX
                0xffffffff880fc8d5                TM_GetTimeZone
                0xffffffff880fc8f1                TM_PowerOnPatch
                0xffffffff880fc8f5                TIM_ReadAlarmSet
                0xffffffff880fc959                TIM_WriteAlarmSet
                0xffffffff880fc9b9                TM_IsValidTime
                0xffffffff880fcac5                TM_SystemTimeToFileTime
                0xffffffff880fcb71                csw_TMGetTick
                0xffffffff880fcb81                TM_FormatDateTime
                0xffffffff880fcf6d                TM_FormatDateTimeEx
                0xffffffff880fd035                TM_SetSystemTime
                0xffffffff880fd0fd                TM_GetSystemFileTime
                0xffffffff880fd199                TM_GetTime
                0xffffffff880fd1b1                TM_GetSystemTime
                0xffffffff880fd2c9                TIM_SetGloAlarmInfo
                0xffffffff880fd2fd                TIM_SetTimePara
                0xffffffff880fd355                TM_SetTimeZone
                0xffffffff880fd3a5                TS_OutPutEvId
                0xffffffff880fd3d1                CSW_TC_MEMBLOCK
                0xffffffff880fd4dd                TS_OutputText
                0xffffffff880fd541                TS_Open
                0xffffffff880fd56d                uctls_ChangeMode
                0xffffffff880fd7a5                uctls_ChargerStatus
                0xffffffff880fd85d                uctls_Open
                0xffffffff880fd915                VDS_Close
                0xffffffff880fd919                VDS_GetPartitionCount
                0xffffffff880fd925                VDS_GetPartitionInfo
                0xffffffff880fd9a5                VDS_Deactive
                0xffffffff880fd9a9                VDS_Active
                0xffffffff880fd9ad                VDS_GetRCacheSize
                0xffffffff880fd9b1                VDS_GetWCacheSize
                0xffffffff880fd9b5                VDS_SetWCacheSize
                0xffffffff880fd9b9                VDS_SetRCacheSize
                0xffffffff880fd9bd                VDS_Flush
                0xffffffff880fd9c1                VDS_ReadBlock
                0xffffffff880fdb5d                VDS_WriteBlock
                0xffffffff880fdcd9                VDS_Open
                0xffffffff880fdd2d                VDS_Init
                0xffffffff880fdd71                VDS_CacheRevertBlock
                0xffffffff880fdd75                VDS_CacheNodeIsLess
                0xffffffff880fdd85                VDS_CacheGetBlkCnt
                0xffffffff880fdd91                VDS_CacheSendFlushEvent
                0xffffffff880fddd5                VDS_CacheFlushAllowed
                0xffffffff880fde25                VDS_CacheReadBlock
                0xffffffff880fde9d                VDS_CacheWriteBlock
                0xffffffff880fdf99                VDS_CacheInit
                0xffffffff880fdfd1                vds_CacheNodeFlush
                0xffffffff880fe0e5                VDS_CacheFlush
                0xffffffff880fe149                vds_SpiIsIdle
                0xffffffff880fe159                VDS_CacheTaskEntry
                0xffffffff880fe1f9                VDS_CacheFlushAll
                0xffffffff880fe2ed                vds_GcIsActive
                0xffffffff880fe2f9                vds_GcDeactive
                0xffffffff880fe329                vds_GcActive
                0xffffffff880fe36d                vds_GcCopy
                0xffffffff880fe5e9                vds_GcEraseFinish
                0xffffffff880fe67d                vds_GcEraseResume
                0xffffffff880fe705                vds_GcErase
                0xffffffff880fe799                vds_GcEraseBegin2
                0xffffffff880fe841                vds_GcEraseBegin
                0xffffffff880fe929                vds_ChangeSectStatus
                0xffffffff880feb9d                vds_GcSetMt
                0xffffffff880fec1d                vds_GetRemainSector
                0xffffffff880feca1                vds_GetGcingSector
                0xffffffff880fed29                vds_Gc
                0xffffffff880fefc1                vds_GcInit
                0xffffffff880ff00d                vds_GcExt
                0xffffffff880ff139                vds_PopLastSecRef
                0xffffffff880ff15d                vds_GetShCrc
                0xffffffff880ff179                vds_FormatSec
                0xffffffff880ff251                vds_EraseSec
                0xffffffff880ff33d                vds_EraseAndFormatSec
                0xffffffff880ff37d                vds_CheckRemainSec
                0xffffffff880ff43d                VDS_GetFlashInfo
                0xffffffff880ff49d                vds_InitEntry
                0xffffffff880ffb65                vds_AllocSecRef
                0xffffffff880ffb9d                vds_AddSecRef
                0xffffffff880ffbb1                vds_AppendSecRef
                0xffffffff880ffbc9                vds_IsSecRefListEmpty
                0xffffffff880ffbd1                vds_RemoveSecRef
                0xffffffff880ffbf5                vds_GetFirstSecRef
                0xffffffff880ffbf9                vds_GetNextSecRef
                0xffffffff880ffc05                vds_IsValidSn
                0xffffffff880ffc55                VDS_ModuleSemInit
                0xffffffff880ffc59                VDS_WaitForSemaphore
                0xffffffff880ffc5d                VDS_ReleaseSemaphore
                0xffffffff880ffc61                vds_SetFlushAllowed
                0xffffffff880ffc6d                vds_IsFlushAllowed
                0xffffffff880ffc81                vds_InitCache
                0xffffffff880ffc8d                vds_IsCacheInited
                0xffffffff880ffca1                vds_WritePB
                0xffffffff880ffd51                vds_WritePBD
                0xffffffff880ffdd5                vds_WriteSH
                0xffffffff880ffe69                vds_ReadPBDT
                0xffffffff880ffec1                vds_CountBlock
                0xffffffff880fff75                vds_ReadPB
                0xffffffff88100025                vds_ReadPBD
                0xffffffff881000a9                vds_GetFirstBlockPos
                0xffffffff88100125                vds_SetPBStatus
                0xffffffff881001f5                vds_WritePBDAndPB
                0xffffffff8810028d                vds_ReadSH
                0xffffffff881002fd                vds_SetMT
                0xffffffff88100451                vds_SetMTByScanSec
                0xffffffff88100521                vds_ListScan
                0xffffffff881005a5                vds_ReadSHWithCrc
                0xffffffff8810063d                vds_Pop
                0xffffffff881006a5                vds_SetSectStatus
                0xffffffff88100731                vds_MoveCurrentPos
                0xffffffff881007dd                vds_GetCurrentPos
                0xffffffff88100815                vds_CRC32
                0xffffffff8810083d                vds_GetPBDCRC
                0xffffffff88100841                vds_IsCRCChecked
                0xffffffff88100895                vfs_close
                0xffffffff881008d9                vfs_read
                0xffffffff88100925                vfs_write
                0xffffffff88100971                vfs_lseek
                0xffffffff881009bd                vfs_fstat
                0xffffffff88100a05                vfs_fname
                0xffffffff88100a55                vfs_feof
                0xffffffff88100a91                vfs_readdir
                0xffffffff88100ac9                vfs_readdir_r
                0xffffffff88100b11                vfs_telldir
                0xffffffff88100b49                vfs_seekdir
                0xffffffff88100b85                vfs_rewinddir
                0xffffffff88100b95                vfs_closedir
                0xffffffff88100bcd                vfs_fsync
                0xffffffff88100cc5                vfs_getcwd
                0xffffffff88100dc5                vfs_realpath
                0xffffffff88100e29                vfs_statvfs
                0xffffffff88100e75                vfs_rmdir
                0xffffffff88100ebd                vfs_mkdir
                0xffffffff88100f0d                vfs_opendir
                0xffffffff88100f61                vfs_rename
                0xffffffff88100fd5                vfs_unlink
                0xffffffff8810101d                vfs_chdir
                0xffffffff88101041                vfs_resolve_path
                0xffffffff8810109d                vfs_register
                0xffffffff881011cd                vfs_open
                0xffffffff8810121d                vfs_file_write
                0xffffffff88101261                vfs_creat
                0xffffffff88101279                vfs_sfile_init
                0xffffffff881012e5                vfs_sfile_read
                0xffffffff88101359                vfs_sfile_write
                0xffffffff881013d1                vois_RecordStart
                0xffffffff88101429                vois_RecordStop
                0xffffffff88101469                vois_SetRxToTxLoopFlag
                0xffffffff88101475                vois_GetMixBufPosition
                0xffffffff881014a9                vois_GetMixRemain
                0xffffffff881014b5                vois_MixDataStop
                0xffffffff88101509                vois_MixBuffer
                0xffffffff88101961                vois_TestModeSetup
                0xffffffff88101e01                vois_Stop
                0xffffffff88101f15                vois_Start
                0xffffffff88102281                txhandle_end
                0xffffffff88102375                txhandle_half
                0xffffffff8810246d                vois_Setup
                0xffffffff88102785                vois_DumpPcmDataToTFlashStop
                0xffffffff88102811                vois_DumpPcmDataToTFlashProcess
                0xffffffff88102951                vois_DumpPcmDataToTFlashFileOpen
                0xffffffff88102f21                vpp_SpeechGetRxPcmBuffer
                0xffffffff88102f31                vpp_SpeechGetTxPcmBuffer
                0xffffffff88102f41                vpp_SpeechInAlgGainDb2Val
                0xffffffff88102f8d                vpp_SpeechOutAlgGainDb2Val
                0xffffffff88102fad                vpp_SpeechSetMSDFPara
                0xffffffff88102fd9                vpp_SpeechMSDFReload
                0xffffffff88102ff1                vpp_SpeechSetWebRtcAgcReloadFlag
                0xffffffff88103029                vpp_SpeechSetWebRtcAgcParaRx
                0xffffffff88103075                vpp_SpeechSetWebRtcAgcParaTx
                0xffffffff881030c1                vpp_SpeechSetWebRtcAgcParaAll
                0xffffffff881030e1                vpp_SpeechSetEQPara
                0xffffffff88103145                vpp_SpeechSetNoiseSuppressParaRX
                0xffffffff881031a1                vpp_SpeechSetNoiseSuppressParaTX
                0xffffffff881031fd                vpp_SpeechSetNoiseSuppressParaAll
                0xffffffff8810321d                vpp_SpeechSetHpfPara
                0xffffffff8810326d                vpp_SpeechSetProcessMicEnableFlag
                0xffffffff8810328d                vpp_SpeechGetType
                0xffffffff881032a5                vpp_SpeechSetReocrdSpeech
                0xffffffff881032c5                vpp_SpeechSetFilterPara
                0xffffffff88103329                vpp_SpeechSetAecAllPara
                0xffffffff881034f5                vpp_SpeechSetAecPara
                0xffffffff881035a5                vpp_SpeechSetInAlgGain
                0xffffffff881035fd                vpp_SpeechSetNonClipParaTX
                0xffffffff8810363d                vpp_SpeechSetAecEnableFlag
                0xffffffff8810366d                vpp_SpeechSetOutAlgGain
                0xffffffff881036d1                vpp_SpeechSetNonClipParaRX
                0xffffffff88103711                vpp_SpeechSetNonClipParaAll
                0xffffffff88103731                vpp_SpeechGetTxCodBuffer
                0xffffffff88103741                vpp_SpeechGetRxCodBuffer
                0xffffffff88103751                vpp_SpeechReset
                0xffffffff8810376d                vpp_SpeechSetScaleDigitalGainPara
                0xffffffff881037c9                vpp_SpeechSetEncDecPocessingParams
                0xffffffff881038d9                vpp_SpeechScheduleOneFrame
                0xffffffff881038f9                vpp_SpeechAudioCfg
                0xffffffff8810393d                vpp_SpeechClose
                0xffffffff88103959                vpp_SpeechOpen
                0xffffffff88104db9                vsnprintf
                0xffffffff88104e1d                snprintf
                0xffffffff88104e35                vsprintf
                0xffffffff88104e51                sprintf
                0xffffffff88104e75                MakeDtmfTone
                0xffffffff88104f81                isDTMFGEN_Run
                0xffffffff88104f95                DTMFGen_Process
                0xffffffff88105089                apbs_Setup
                0xffffffff881050b5                apbs_Stop
                0xffffffff881051e1                apbs_UserMsgHandle
                0xffffffff88105275                api_ComputeMsNwkCap
                0xffffffff88105329                api_ComputeMsRACap
                0xffffffff88105821                CosEvent2CfwEvent
                0xffffffff8810583d                OS_SetUserMainHandle
                0xffffffff88105849                OS_GetUserMainHandle
                0xffffffff88105855                _GetACLBStatus
                0xffffffff88105859                MMIDisplayWaitingAnimation
                0xffffffff8810585d                Http_WriteUart
                0xffffffff88105861                Platform_GetHeapSize
                0xffffffff88105885                Platform_ApiMainTaskCreate
                0xffffffff881058c5                Platfrom_Init
                0xffffffff8810593d                SendEventToAppMain
                0xffffffff88105991                CfwInit
                0xffffffff88105c19                ApiMainTask
                0xffffffff88105f71                SIM_AsyncEventProcess
                0xffffffff88105f75                ID_AsyncEventProcess
                0xffffffff88105ff1                SIM_GetIMSI
                0xffffffff88106061                SIM_GetICCID
                0xffffffff88106139                IsPhoneNumberValid
                0xffffffff88106195                SMS_SetNewMessageStorage
                0xffffffff881061e9                SMS_GetStorageInfo
                0xffffffff88106215                SMS_DeleteMessage
                0xffffffff881062e1                SMS_ListMessageRequst
                0xffffffff881063d9                SMS_GetServerCenterInfo
                0xffffffff8810649d                SMS_SetServerCenterInfo
                0xffffffff881065ad                SMS_SendMessage
                0xffffffff88106825                SMS_SetParameter
                0xffffffff881068a5                SMS_SetFormat
                0xffffffff881068c9                SMS_GetCharset
                0xffffffff881068d9                SMS_LocalLanguage2Unicode
                0xffffffff88106a09                SMS_Unicode2LocalLanguage
                0xffffffff8810738d                SMS_RecvNewMessage_Indictation
                0xffffffff881077e1                SMS_AsyncEventProcess
                0xffffffff881079fd                Socket_GetLastError
                0xffffffff88107a09                IsDomainValid
                0xffffffff88107a25                IsIpFormatValid
                0xffffffff88107a3d                DNS_GetHostByName2
                0xffffffff88107b15                DNS_GetHostByNameEX
                0xffffffff88107bd9                DNS_GetHostByName
                0xffffffff88107c55                TCPIP_AsyncEventProcess
                0xffffffff88107e31                Socket_TcpipClose
                0xffffffff88107e45                Socket_TcpipRead
                0xffffffff88107ed5                Socket_TcpipWrite
                0xffffffff88107f4d                Socket_TcpipConnect
                0xffffffff88108065                SS_AsyncEventProcess
                0xffffffff881081bd                SS_SendUSSD
                0xffffffff881081e5                ars_ReadData
                0xffffffff88108201                ars_AvailableData
                0xffffffff8810820d                ars_EnFMRecNewPath
                0xffffffff88108229                ars_Pause
                0xffffffff88108245                ars_Stop
                0xffffffff88108559                ars_Record
                0xffffffff88108cdd                ars_Setup
                0xffffffff88108d99                _ftoa
                0xffffffff88109041                aud_CodecCommonOutAlgGainDb2Val
                0xffffffff88109129                aud_CodecCommonCalibUpdateValues
                0xffffffff8810912d                aud_CodecCommonGetOutAlgGainDb2Val
                0xffffffff88109139                aud_CodecCommonGetBtNRECFlag
                0xffffffff8810913d                aud_CodecCommonEnFMRecNewPath
                0xffffffff88109149                aud_CodecCommonGetForceReceiverMicSelectionFlag
                0xffffffff881091a5                aud_CodecCommonTonePause
                0xffffffff881091b9                aud_CodecCommonSetConfig
                0xffffffff88109409                aud_CodecCommonStreamPause
                0xffffffff88109515                aud_CodecCommonSetup
                0xffffffff881099cd                aud_CodecCommonTone
                0xffffffff88109ab9                aud_CodecCommonStreamRecord
                0xffffffff88109b91                aud_CodecCommonStreamStop
                0xffffffff88109c6d                aud_CodecCommonStreamStart
                0xffffffff88109d65                bal_fstraceStop
                0xffffffff88109da5                bal_fsTraceProcess
                0xffffffff88109e1d                tflash_device_create
                0xffffffff8810a0a5                bdev_read
                0xffffffff8810a0c1                bdev_write
                0xffffffff8810a0dd                bdev_erase
                0xffffffff8810a0f5                calib_ConvertStructV2p2
                0xffffffff8810a3ed                calib_ConvertStructV2p4
                0xffffffff8810a401                calib_ConvertStructV2p5
                0xffffffff8810a42d                calib_StubOpen
                0xffffffff8810aded                calib_DispState
                0xffffffff8810adf1                calib_PulseLight
                0xffffffff8810b04d                calib_SetNststateIdle
                0xffffffff8810b06d                calib_GetReqState
                0xffffffff8810b079                calib_GetReqCurrState
                0xffffffff8810b085                calib_SetReqCurrState
                0xffffffff8810b091                calib_StubNstOpen
                0xffffffff8810b2b1                calib_StubNstParse
                0xffffffff8810b579                calib_StubNstProcess
                0xffffffff8810c619                cb_SendMsg
                0xffffffff8810c675                cb_PrepMsg
                0xffffffff8810c6b5                DECODE_BODY_c_NOTIFY
                0xffffffff8810c6f9                DECODE_c_NOTIFY
                0xffffffff8810c759                DECODE_BODY_c_START_DTMF_REJ
                0xffffffff8810c7e1                DECODE_c_START_DTMF_REJ
                0xffffffff8810c841                DECODE_BODY_c_RETRIEVE_REJECTED
                0xffffffff8810c8c9                DECODE_c_RETRIEVE_REJECTED
                0xffffffff8810c929                DECODE_BODY_c_HOLD_REJECTED
                0xffffffff8810c9b1                DECODE_c_HOLD_REJECTED
                0xffffffff8810ca11                DECODE_BODY_c_USER_INFO
                0xffffffff8810caed                DECODE_c_USER_INFO
                0xffffffff8810cb4d                DECODE_BODY_c_STATUS
                0xffffffff8810cc99                DECODE_c_STATUS
                0xffffffff8810ccf9                DECODE_BODY_c_START_DTMF_ACK
                0xffffffff8810cd6d                DECODE_c_START_DTMF_ACK
                0xffffffff8810cdcd                DECODE_BODY_c_PROGRESS
                0xffffffff8810cf01                DECODE_c_PROGRESS
                0xffffffff8810cf61                DECODE_BODY_c_CONGESTION_CONTROL
                0xffffffff8810d071                DECODE_c_CONGESTION_CONTROL
                0xffffffff8810d0d1                L3_ENCODE_c_USER_INFO
                0xffffffff8810d189                ENCODE_c_USER_INFO
                0xffffffff8810d199                L3_ENCODE_c_STATUS
                0xffffffff8810d285                ENCODE_c_STATUS
                0xffffffff8810d295                DECODE_BODY_c_SETUP_MT
                0xffffffff8810dfcd                DECODE_c_SETUP_MT
                0xffffffff8810e02d                DECODE_BODY_c_RELEASE_COMPLETE_MT
                0xffffffff8810e245                DECODE_c_RELEASE_COMPLETE_MT
                0xffffffff8810e2a5                DECODE_BODY_c_RELEASE_MT
                0xffffffff8810e55d                DECODE_c_RELEASE_MT
                0xffffffff8810e5bd                DECODE_BODY_c_FACILITY
                0xffffffff8810e641                DECODE_c_FACILITY
                0xffffffff8810e6a1                DECODE_BODY_c_DISCONNECT_MT
                0xffffffff8810e90d                DECODE_c_DISCONNECT_MT
                0xffffffff8810e96d                DECODE_BODY_c_CONNECT_MT
                0xffffffff8810ecad                DECODE_c_CONNECT_MT
                0xffffffff8810ed0d                DECODE_BODY_c_CALL_PROCEEDING
                0xffffffff8810f0e5                DECODE_c_CALL_PROCEEDING
                0xffffffff8810f145                DECODE_BODY_c_ALERTING_MT
                0xffffffff8810f34d                DECODE_c_ALERTING_MT
                0xffffffff8810f3ad                L3_ENCODE_c_START_DTMF
                0xffffffff8810f425                ENCODE_c_START_DTMF
                0xffffffff8810f435                DECODE_BODY_c_MODIFY_REJECT
                0xffffffff8810f64d                DECODE_c_MODIFY_REJECT
                0xffffffff8810f6ad                L3_ENCODE_c_MODIFY_REJECT
                0xffffffff8810f835                ENCODE_c_MODIFY_REJECT
                0xffffffff8810f845                DECODE_BODY_c_MODIFY_COMPLETE
                0xffffffff8810fa3d                DECODE_c_MODIFY_COMPLETE
                0xffffffff8810fa9d                L3_ENCODE_c_MODIFY_COMPLETE
                0xffffffff8810fc01                ENCODE_c_MODIFY_COMPLETE
                0xffffffff8810fc11                DECODE_BODY_c_MODIFY
                0xffffffff8810fe09                DECODE_c_MODIFY
                0xffffffff8810fe69                L3_ENCODE_c_MODIFY
                0xffffffff8810ffcd                ENCODE_c_MODIFY
                0xffffffff8810ffdd                L3_ENCODE_c_EMERGENCY_SETUP
                0xffffffff8811016d                ENCODE_c_EMERGENCY_SETUP
                0xffffffff8811017d                L3_ENCODE_c_CALL_CONFIRMED
                0xffffffff881103e1                ENCODE_c_CALL_CONFIRMED
                0xffffffff881103f1                L3_ENCODE_c_SETUP_MO
                0xffffffff881109f9                ENCODE_c_SETUP_MO
                0xffffffff88110a09                L3_ENCODE_c_RELEASE_COMPLETE_MO
                0xffffffff88110bc9                ENCODE_c_RELEASE_COMPLETE_MO
                0xffffffff88110bd9                L3_ENCODE_c_RELEASE_MO
                0xffffffff88110ded                ENCODE_c_RELEASE_MO
                0xffffffff88110dfd                L3_ENCODE_c_FACILITY_MO
                0xffffffff88110e99                ENCODE_c_FACILITY_MO
                0xffffffff88110ea9                L3_ENCODE_c_DISCONNECT_MO
                0xffffffff88111051                ENCODE_c_DISCONNECT_MO
                0xffffffff88111061                L3_ENCODE_c_CONNECT_MO
                0xffffffff88111265                ENCODE_c_CONNECT_MO
                0xffffffff88111275                L3_ENCODE_c_ALERTING_MO
                0xffffffff881113dd                ENCODE_c_ALERTING_MO
                0xffffffff881113ed                cc_EncFacilityIE
                0xffffffff881114d5                cc_HdleInvoke
                0xffffffff881119f9                cc_HdleFacilityIE
                0xffffffff88111cd9                cc_DtmfProcInit
                0xffffffff88111cf1                cc_DtmfIncrIdx
                0xffffffff88111d05                cc_DtmfToSend
                0xffffffff88111d31                cc_RetrieveApiMsgSavedforDtmf
                0xffffffff88111d6d                cc_OnDtmf
                0xffffffff88111dd5                cc_DiscardOtherDtmf
                0xffffffff88111e79                cc_DtmfStopSend
                0xffffffff88111eb9                cc_DtmfStartAck
                0xffffffff88111f55                cc_DtmfStopReq
                0xffffffff88112025                cc_DtmfStartSend
                0xffffffff88112109                cc_DtmfEndProc
                0xffffffff881121a5                cc_DtmfStartReq
                0xffffffff8811226d                CSN1ActionFunction_cc_4219277482
                0xffffffff881122b5                CSN1ActionFunction_cc_3395391009
                0xffffffff881122fd                CSN1ActionFunction_cc_3666336121
                0xffffffff88112345                CSN1ActionFunction_cc_257741642
                0xffffffff8811238d                CSN1ActionFunction_cc_2305931879
                0xffffffff881123d5                CSN1ActionFunction_cc_323156570
                0xffffffff8811241d                CSN1ActionFunction_cc_3926522531
                0xffffffff88112441                CSN1ActionFunction_cc_2247516746
                0xffffffff88112501                CSN1ActionFunction_cc_2473106058
                0xffffffff88112549                CSN1ActionFunction_cc_3774523959
                0xffffffff88112591                CSN1ActionFunction_cc_982304886
                0xffffffff881125d9                CSN1ActionFunction_cc_2731816533
                0xffffffff88112639                CSN1ActionFunction_cc_262739892
                0xffffffff881126b1                CSN1ActionFunction_cc_1354706373
                0xffffffff881126f9                CSN1ActionFunction_cc_964346841
                0xffffffff88112741                CSN1ActionFunction_cc_1825751974
                0xffffffff88112789                CSN1ActionFunction_cc_809313225
                0xffffffff88112831                CSN1ActionFunction_cc_2075517348
                0xffffffff88112879                CSN1ActionFunction_cc_3081063057
                0xffffffff881128c1                CSN1ActionFunction_cc_1100304528
                0xffffffff88112909                CSN1ActionFunction_cc_4088121906
                0xffffffff88112951                CSN1ActionFunction_cc_2419602553
                0xffffffff88112999                CSN1ActionFunction_cc_3901413999
                0xffffffff881129e1                CSN1ActionFunction_cc_131146044
                0xffffffff88112a29                CSN1ActionFunction_cc_1772875302
                0xffffffff88112a71                CSN1ActionFunction_cc_3861988065
                0xffffffff88112ab9                CSN1ActionFunction_cc_3157102492
                0xffffffff88112b01                CSN1ActionFunction_cc_4035638784
                0xffffffff88112b79                CSN1ActionFunction_cc_1573567058
                0xffffffff88112bc1                CSN1ActionFunction_cc_977988876
                0xffffffff88112c09                CSN1ActionFunction_cc_2833843784
                0xffffffff88112c51                CSN1ActionFunction_cc_3848175428
                0xffffffff88112cc9                CSN1ActionFunction_cc_2746917974
                0xffffffff88112d11                CSN1ActionFunction_cc_1220248098
                0xffffffff88112d59                CSN1ActionFunction_cc_2093895806
                0xffffffff88112da1                CSN1ActionFunction_cc_3306215593
                0xffffffff88112de9                CSN1ActionFunction_cc_1715158171
                0xffffffff88112e31                CSN1ActionFunction_cc_3342536839
                0xffffffff88112e79                CSN1ActionFunction_cc_1689139655
                0xffffffff88112ec1                CSN1ActionFunction_cc_453656169
                0xffffffff88112f09                CSN1ActionFunction_cc_221275285
                0xffffffff88112f51                CSN1ActionFunction_cc_1752591521
                0xffffffff88112f99                CSN1ActionFunction_cc_2129262679
                0xffffffff88112fbd                CSN1ActionFunction_cc_4062270970
                0xffffffff88113005                CSN1ActionFunction_cc_2158205455
                0xffffffff88113065                CSN1ActionFunction_cc_2872518491
                0xffffffff881130ad                CSN1ActionFunction_cc_3150253922
                0xffffffff881130f5                CSN1ActionFunction_cc_353270059
                0xffffffff8811313d                CSN1ActionFunction_cc_3400928984
                0xffffffff881131cd                CSN1ActionFunction_cc_2497997005
                0xffffffff881131f1                CSN1ActionFunction_cc_816369318
                0xffffffff88113215                CSN1ActionFunction_cc_2999663823
                0xffffffff88113259                CSN1ActionFunction_cc_1816175321
                0xffffffff8811327d                CSN1ActionFunction_cc_3644256291
                0xffffffff881132b1                CSN1ActionFunction_cc_1146369898
                0xffffffff881132e5                CSN1ActionFunction_cc_1282322265
                0xffffffff88113319                CSN1ActionFunction_cc_1021005843
                0xffffffff8811334d                CSN1ActionFunction_cc_1118317905
                0xffffffff88113405                CSN1ActionFunction_cc_4088925312
                0xffffffff881134bd                CSN1ActionFunction_cc_2079741542
                0xffffffff88113539                CSN1ActionFunction_cc_1380761786
                0xffffffff881135b5                CSN1ActionFunction_cc_2175835239
                0xffffffff88113631                CSN1ActionFunction_cc_31439822
                0xffffffff881136ed                CSN1ActionFunction_cc_514932597
                0xffffffff881137a9                CSN1ActionFunction_cc_1823305613
                0xffffffff88113825                CSN1ActionFunction_cc_807986200
                0xffffffff881138a1                CSN1ActionFunction_cc_1927831968
                0xffffffff8811391d                CSN1ActionFunction_cc_4186688045
                0xffffffff881139a5                CSN1ActionFunction_cc_1983885861
                0xffffffff88113ae1                CSN1ActionFunction_cc_1265354533
                0xffffffff88113afd                CSN1ActionFunction_cc_276985648
                0xffffffff88113b19                CSN1ActionFunction_cc_2097448042
                0xffffffff88113b35                CSN1ActionFunction_cc_1862643296
                0xffffffff88113b51                CSN1ActionFunction_cc_1877579283
                0xffffffff88113b6d                CSN1ActionFunction_cc_1502008668
                0xffffffff88113b89                CSN1ActionFunction_cc_1267203926
                0xffffffff88113ba5                CSN1ActionFunction_cc_2785632990
                0xffffffff88113bc1                CSN1ActionFunction_cc_2800048813
                0xffffffff88113bdd                CSN1ActionFunction_cc_2190160872
                0xffffffff88113bf9                CSN1ActionFunction_cc_4010655922
                0xffffffff88113c15                CSN1ActionFunction_cc_42163514
                0xffffffff88113c31                CSN1ActionFunction_cc_637602828
                0xffffffff88113c4d                CSN1ActionFunction_cc_2694560168
                0xffffffff88113c69                CSN1ActionFunction_cc_2692186587
                0xffffffff88113c85                CSN1ActionFunction_cc_3020441812
                0xffffffff88113ca1                CSN1ActionFunction_cc_2216290462
                0xffffffff88113cbd                CSN1ActionFunction_cc_3919518660
                0xffffffff88113cd9                CSN1ActionFunction_cc_3441249010
                0xffffffff88113cf5                CSN1ActionFunction_cc_370191430
                0xffffffff88113d11                CSN1ActionFunction_cc_2073452316
                0xffffffff88113d2d                CSN1ActionFunction_cc_1595149866
                0xffffffff88113d49                CSN1ActionFunction_cc_254209780
                0xffffffff88113d65                CSN1ActionFunction_cc_732217282
                0xffffffff88113d81                CSN1ActionFunction_cc_726173617
                0xffffffff88113d9d                CSN1ActionFunction_cc_2929418158
                0xffffffff88113db9                CSN1ActionFunction_cc_3886022082
                0xffffffff88113dd5                CSN1ActionFunction_cc_3883124145
                0xffffffff88113df1                CSN1ActionFunction_cc_3273501940
                0xffffffff88113e0d                CSN1ActionFunction_cc_2316897944
                0xffffffff88113e29                CSN1ActionFunction_cc_1994380449
                0xffffffff88113e45                CSN1ActionFunction_cc_3226779983
                0xffffffff88113e61                CSN1ActionFunction_cc_2916233749
                0xffffffff88113e7d                CSN1ActionFunction_cc_1071347405
                0xffffffff88113e99                CSN1ActionFunction_cc_1381860759
                0xffffffff88113eb5                CSN1ActionFunction_cc_2303746851
                0xffffffff88113ed1                CSN1ActionFunction_cc_458827771
                0xffffffff88113eed                CSN1ActionFunction_cc_3569823795
                0xffffffff88113f09                CSN1ActionFunction_cc_2646839903
                0xffffffff88113f25                CSN1ActionFunction_cc_3108094825
                0xffffffff88113f41                CSN1ActionFunction_cc_1187935467
                0xffffffff88113f5d                CSN1ActionFunction_cc_4031078661
                0xffffffff88113f79                CSN1ActionFunction_cc_3233347900
                0xffffffff88113f95                CSN1ActionFunction_cc_400286796
                0xffffffff88113fb1                CSN1ActionFunction_cc_867536137
                0xffffffff88113fcd                CSN1ActionFunction_cc_389536831
                0xffffffff88113fe9                CSN1ActionFunction_cc_2058432357
                0xffffffff88114005                CSN1ActionFunction_cc_1580432979
                0xffffffff88114021                CSN1ActionFunction_cc_2713504209
                0xffffffff8811403d                CSN1ActionFunction_cc_2235472103
                0xffffffff88114059                CSN1ActionFunction_cc_3904400317
                0xffffffff88114075                CSN1ActionFunction_cc_61091139
                0xffffffff88114091                CSN1ActionFunction_cc_2659909604
                0xffffffff881140ad                CSN1ActionFunction_cc_3616431496
                0xffffffff881140c9                CSN1ActionFunction_cc_2277293398
                0xffffffff881140e5                CSN1ActionFunction_cc_2270201125
                0xffffffff88114101                CSN1ActionFunction_cc_2738809952
                0xffffffff8811411d                CSN1ActionFunction_cc_3939923583
                0xffffffff88114139                CSN1ActionFunction_cc_3461621577
                0xffffffff88114155                CSN1ActionFunction_cc_30027905
                0xffffffff88114171                CSN1ActionFunction_cc_3670529589
                0xffffffff8811418d                CSN1ActionFunction_cc_3074499951
                0xffffffff881141a9                CSN1ActionFunction_cc_296027977
                0xffffffff881141c5                CSN1ActionFunction_cc_902524428
                0xffffffff881141e1                CSN1ActionFunction_cc_290012986
                0xffffffff881141fd                CSN1ActionFunction_cc_891770495
                0xffffffff88114219                CSN1ActionFunction_cc_1486988581
                0xffffffff88114235                CSN1ActionFunction_cc_2209104785
                0xffffffff88114251                CSN1ActionFunction_cc_3628462980
                0xffffffff8811426d                CSN1ActionFunction_cc_1016208246
                0xffffffff88114289                CSN1ActionFunction_cc_2444061083
                0xffffffff881142a5                CSN1ActionFunction_cc_1252036399
                0xffffffff881142c1                CSN1ActionFunction_cc_656833653
                0xffffffff881142dd                CSN1ActionFunction_cc_1847778841
                0xffffffff881142f9                CSN1ActionFunction_cc_1402391965
                0xffffffff88114315                CSN1ActionFunction_cc_1997839531
                0xffffffff88114331                CSN1ActionFunction_cc_3635006455
                0xffffffff8811434d                CSN1ActionFunction_cc_4230716097
                0xffffffff88114369                CSN1ActionFunction_cc_3039770797
                0xffffffff88114385                CSN1ActionFunction_cc_3245584694
                0xffffffff881143a1                CSN1ActionFunction_cc_1400567278
                0xffffffff881143bd                CSN1ActionFunction_cc_2012783832
                0xffffffff881143d9                CSN1ActionFunction_cc_444487554
                0xffffffff881143f5                CSN1ActionFunction_cc_3857833984
                0xffffffff88114411                CSN1ActionFunction_cc_2901754476
                0xffffffff8811442d                CSN1ActionFunction_cc_2632245798
                0xffffffff88114449                CSN1ActionFunction_cc_3096087395
                0xffffffff88114465                CSN1ActionFunction_cc_2289505114
                0xffffffff88114481                CSN1ActionFunction_cc_2617825877
                0xffffffff8811449d                CSN1ActionFunction_cc_3093738256
                0xffffffff881144b9                CSN1ActionFunction_cc_1347901770
                0xffffffff88114525                CSN1ActionFunction_cc_2506752940
                0xffffffff88114591                CSN1ActionFunction_cc_2677374129
                0xffffffff881145fd                CSN1ActionFunction_cc_4059339386
                0xffffffff88114681                CSN1ActionFunction_cc_2079674404
                0xffffffff88114705                CSN1ActionFunction_cc_2987918999
                0xffffffff88114789                CSN1ActionFunction_cc_1659318371
                0xffffffff8811480d                CSN1ActionFunction_cc_4165700834
                0xffffffff88114875                CSN1ActionFunction_cc_3833634472
                0xffffffff881148dd                CSN1ActionFunction_cc_1817136603
                0xffffffff8811495d                CSN1ActionFunction_cc_2281177646
                0xffffffff881149dd                CSN1ActionFunction_cc_2533015138
                0xffffffff88114a5d                CSN1ActionFunction_cc_2940555322
                0xffffffff88114a8d                CSN1ActionFunction_cc_1935931641
                0xffffffff88114b11                CSN1ActionFunction_cc_564128041
                0xffffffff88114b91                CSN1ActionFunction_cc_535937020
                0xffffffff88114c11                CSN1ActionFunction_cc_3462442878
                0xffffffff88114c91                CSN1ActionFunction_cc_923475874
                0xffffffff88114d11                CSN1ActionFunction_cc_3685612832
                0xffffffff88114d91                CSN1ActionFunction_cc_2291995947
                0xffffffff88114e11                CSN1ActionFunction_cc_2030010
                0xffffffff88114e81                CSN1ActionFunction_cc_1128824597
                0xffffffff88114f11                CSN1ActionFunction_cc_676031829
                0xffffffff88114fa1                CSN1ActionFunction_cc_1148664851
                0xffffffff881150a9                CSN1ActionFunction_cc_3157119530
                0xffffffff88115135                CSN1ActionFunction_cc_3651848284
                0xffffffff881151c1                CSN1ActionFunction_cc_379913519
                0xffffffff8811524d                CSN1ActionFunction_cc_2295125808
                0xffffffff881152d9                CSN1ActionFunction_cc_2597421497
                0xffffffff88115365                CSN1ActionFunction_cc_1136845788
                0xffffffff881153f1                CSN1ActionFunction_cc_4049487921
                0xffffffff8811547d                CSN1ActionFunction_cc_1440400685
                0xffffffff88115515                CSN1ActionFunction_cc_1746019740
                0xffffffff881155a1                CSN1ActionFunction_cc_639863330
                0xffffffff881156f9                CSN1ActionFunction_cc_2249596254
                0xffffffff8811576d                CSN1ActionFunction_cc_3089161910
                0xffffffff881157e1                CSN1ActionFunction_cc_3355616505
                0xffffffff88115821                CSN1ActionFunction_cc_4160415732
                0xffffffff88115861                CSN1ActionFunction_cc_1389037149
                0xffffffff881158a1                CSN1ActionFunction_cc_745283224
                0xffffffff881158ed                CSN1ActionFunction_cc_3047440023
                0xffffffff88115935                CSN1ActionFunction_cc_3915597396
                0xffffffff88115971                CSN1ActionFunction_cc_2319916898
                0xffffffff881159ad                CSN1ActionFunction_cc_2276251829
                0xffffffff881159e9                CSN1ActionFunction_cc_870274782
                0xffffffff88115a25                CSN1ActionFunction_cc_2726219986
                0xffffffff88115a39                CSN1ActionFunction_cc_3073494361
                0xffffffff88115a4d                CSN1ActionFunction_cc_708717615
                0xffffffff88115a61                CSN1ActionFunction_cc_1449069044
                0xffffffff88115a75                CSN1ActionFunction_cc_3617440091
                0xffffffff88115a89                CSN1ActionFunction_cc_1756779618
                0xffffffff88115a9d                CSN1ActionFunction_cc_4122588436
                0xffffffff88115ab1                CSN1ActionFunction_cc_1042473108
                0xffffffff88115ac5                CSN1ActionFunction_cc_1111737679
                0xffffffff88115ad9                CSN1ActionFunction_cc_3746309177
                0xffffffff88115aed                CSN1ActionFunction_cc_3539756953
                0xffffffff88115b01                CSN1ActionFunction_cc_1341359855
                0xffffffff88115b15                CSN1ActionFunction_cc_3411077250
                0xffffffff88115b29                CSN1ActionFunction_cc_715268812
                0xffffffff88115b3d                CSN1ActionFunction_cc_3081618362
                0xffffffff88115b51                CSN1ActionFunction_cc_3419203169
                0xffffffff88115b65                CSN1ActionFunction_cc_1455621911
                0xffffffff88115b79                CSN1ActionFunction_cc_856600023
                0xffffffff88115b8d                CSN1ActionFunction_cc_2919320737
                0xffffffff88115ba1                CSN1ActionFunction_cc_3529533818
                0xffffffff88115bb5                CSN1ActionFunction_cc_1332709388
                0xffffffff88115bc9                ENCODE_c_Facility_IE_MO
                0xffffffff88115c29                DECODE_c_Facility_IE
                0xffffffff88116f89                GROUP_cc_FREE_TDchD_Data
                0xffffffff88116f8d                GROUP_cc_SETPRESENT_TDchD_Data
                0xffffffff88116f91                GROUP_cc_FREE_TmmDl_Data
                0xffffffff88116f95                GROUP_cc_SETPRESENT_TmmDl_Data
                0xffffffff88116f99                GROUP_cc_FREE_TccDl_Data
                0xffffffff88116f9d                GROUP_cc_FREE_TCcch_Data
                0xffffffff88116fa1                GROUP_cc_SETPRESENT_TCcch_Data
                0xffffffff88116fa5                GROUP_cc_SETPRESENT_TccDl_Data
                0xffffffff8811705d                cc_SetDecode_ccDl
                0xffffffff881174e5                CFW_GetAoState
                0xffffffff88117501                CFW_SetAoState
                0xffffffff8811751d                CFW_GetAoUserData
                0xffffffff8811754d                CFW_SetServiceId
                0xffffffff88117559                CFW_SetUTI
                0xffffffff88117589                CFW_GetUTI
                0xffffffff881175a9                CFW_GetUsingUTI
                0xffffffff881175c9                CFW_GetSimID
                0xffffffff88117631                CFW_RegSysDefaultProc
                0xffffffff8811763d                CFW_SetSpecialAo
                0xffffffff88117711                CallNotifyFun
                0xffffffff881177d1                CFW_RegisterCreateAoProc
                0xffffffff88117879                CFW_GetAoHandle
                0xffffffff881179b1                CFW_GetAoCount
                0xffffffff88117a85                CFW_IsFreeUTI
                0xffffffff88117d45                CFW_RegisterAo
                0xffffffff88117fc1                CFW_AoTriggerTaskSch
                0xffffffff88117fe5                CFW_SetAoProcCode
                0xffffffff88118089                CFW_RelaseUsingUTI
                0xffffffff8811809d                CFW_UnRegisterAO
                0xffffffff88118411                AllocUsingUTI
                0xffffffff88118455                CFW_GetFreeUTI
                0xffffffff881185bd                CFW_AoInit
                0xffffffff8811860d                CFW_AoScheduler
                0xffffffff88119399                CFW_SetEventProc
                0xffffffff881193dd                CFW_PostNotifyEvent
                0xffffffff88119605                CFW_PostGPRSNotifyEvent
                0xffffffff881196a5                CFW_GetEventQueue
                0xffffffff881196ed                CFW_Exit
                0xffffffff8811970d                CFW_Init
                0xffffffff88119799                BAL_Run
                0xffffffff88119805                CFW_BaseInit
                0xffffffff88119809                CFW_ServicesExit
                0xffffffff88119821                CFW_BalSetupHwCbs
                0xffffffff88119841                CFW_ServicesInit
                0xffffffff8811988d                CFW_BalAudCallStop
                0xffffffff881198b5                CFW_BalAudCallStart
                0xffffffff881198dd                CFW_MemAllocMessageStructure
                0xffffffff88119965                CFW_BalSendMessage
                0xffffffff881199dd                CFW_SendSclData
                0xffffffff88119a85                CFW_SetActiveSimCount
                0xffffffff88119aa5                CFW_ReceiveStopStackCNF
                0xffffffff88119ac1                CFW_SendStartStackREQ
                0xffffffff88119aed                CFW_SendSclMessage
                0xffffffff88119ced                CFW_CcGetCallStatus
                0xffffffff88119cfd                CFW_CcPlayTone
                0xffffffff88119ef9                CFW_CcReleaseCall
                0xffffffff88119fb9                CFW_CcEmcDial
                0xffffffff8811a221                CFW_CcGetCurrentCall
                0xffffffff8811a37d                CFW_CcAcceptSpeechCall
                0xffffffff8811a4c1                CFW_CcInitiateSpeechCall
                0xffffffff8811a765                CFW_StartRingTone
                0xffffffff8811a7a5                CFW_CcInit
                0xffffffff8811a7f9                _AutoRedail
                0xffffffff8811a8b9                _Check4Redail
                0xffffffff8811a8f5                CloseAudio
                0xffffffff8811a959                CFW_CMUnRegisterAO
                0xffffffff8811d229                CmMTAoProc
                0xffffffff8811d4e1                CFW_CheckSimId
                0xffffffff8811d4f1                IsDTMFChar
                0xffffffff8811d525                CC_SendCrssInfoNotify
                0xffffffff8811d845                CC_GetIndex
                0xffffffff8811d8fd                CC_ModifyToMeetingHldState
                0xffffffff8811d989                CC_ModifyOtherAoState
                0xffffffff8811da65                CC_RetrieveMPTY
                0xffffffff8811daed                CC_HoldMPTY_Acceptcall
                0xffffffff8811db7d                CC_TerminateOne
                0xffffffff8811dc21                CC_ProcNwReleaseCmplMsg
                0xffffffff8811dcd5                CC_RetrieveCall
                0xffffffff8811dd8d                CC_StartDTMF
                0xffffffff8811ddd9                CC_Alert
                0xffffffff8811de21                CC_CallConfirm
                0xffffffff8811deb1                CC_ReleaseCmplt
                0xffffffff8811df55                CC_ProcNwReleaseMsg
                0xffffffff8811e0ed                CC_Disc
                0xffffffff8811e16d                CC_Release
                0xffffffff8811e205                CC_ProcNwDisconnectMsg
                0xffffffff8811e2dd                CC_Facility
                0xffffffff8811e369                CallingPartyrRaw2BCD
                0xffffffff8811e3a1                CFW_CfgGetClip
                0xffffffff8811e411                CFW_CfgSetClip
                0xffffffff8811e491                CFW_CfgGetColp
                0xffffffff8811e545                CFW_CfgGetClir
                0xffffffff8811e5b5                CFW_CfgGetCallWaiting
                0xffffffff8811e625                CFW_CfgGetSSN
                0xffffffff8811e6bd                CFW_CfgSetSSN
                0xffffffff8811e791                CFW_CfgGetIndicatorEvent
                0xffffffff8811e7e9                CFW_CfgSetCharacterSet
                0xffffffff8811e825                CFW_CfgSetIndicatorEventInfo
                0xffffffff8811eb4d                CFW_CfgGetIndicatorEventInfo
                0xffffffff8811ec75                CFW_CfgSetIMSI
                0xffffffff8811ecd5                CFW_CfgGetIMSI
                0xffffffff8811ed95                CFW_CfgSetSoftReset
                0xffffffff8811ede1                CFW_CfgRestoreFactoryProfile
                0xffffffff8811ee19                CFW_CfgGetUserProfile
                0xffffffff8811eef9                CFW_Cfg_strcmp
                0xffffffff8811ef99                CFW_CfgNumRangeCheck
                0xffffffff8811f029                CFW_CfgNwGetDetectMBS
                0xffffffff8811f039                CFW_CfgNwGetOperatorInfo
                0xffffffff8811f09d                CFW_CfgNwGetCompanyName
                0xffffffff8811f11d                CFW_CfgNwGetOperatorName
                0xffffffff8811f1d5                CFW_CfgGetNwStatus
                0xffffffff8811f241                CFW_CfgSetNwStatus
                0xffffffff8811f2d5                CFW_CfgNwGetOperatorId
                0xffffffff8811f349                CFW_CfgNwGetFM
                0xffffffff8811f3d1                CFW_CfgNwSetFM
                0xffffffff8811f425                gprs_GetGprsSum
                0xffffffff8811f45d                gprs_SetGprsSum
                0xffffffff8811f495                CFW_CfgNwGetNetWorkMode
                0xffffffff8811f539                CFW_CfgNwSetNetWorkMode
                0xffffffff8811f5a9                CFW_CfgNwGetFrequencyBand
                0xffffffff8811f615                CFW_CfgNwSetFrequencyBand
                0xffffffff8811f671                CFW_CfgGetStoredPlmnList
                0xffffffff8811f779                CFW_CfgSetStoredPlmnList
                0xffffffff8811f8c1                CFW_CfgGetSmsShowTextModeParam
                0xffffffff8811f915                CFW_CfgSetSmsShowTextModeParam
                0xffffffff8811f981                CFW_CfgGetSmsFormat
                0xffffffff8811f9d5                CFW_CfgSetSmsFormat
                0xffffffff8811fa55                CFW_CfgGetSmsStorageInfo
                0xffffffff8811fad5                CFW_CfgSetSmsStorageInfo
                0xffffffff8811fb51                CFW_CfgGetNewSmsOption
                0xffffffff8811fbdd                CFW_CfgSetNewSmsOption
                0xffffffff8811fcad                CFW_CfgSetDefaultSmsParam
                0xffffffff8811fd0d                CFW_CfgGetDefaultSmsParam
                0xffffffff8811fdb1                CFW_CfgGetSmsParam
                0xffffffff8811fe49                CFW_CfgSetSmsParam
                0xffffffff88120179                CFW_CfgGetSmsFullForNew
                0xffffffff881201f1                CFW_CfgSetSmsFullForNew
                0xffffffff8812025d                CFW_CfgGetSmsOverflowInd
                0xffffffff881202c1                CFW_CfgSetSmsOverflowInd
                0xffffffff88120335                CFW_CfgGetSmsStorage
                0xffffffff881203b1                CFW_CfgSetTimeParam
                0xffffffff881203fd                IsCidSavedInApp
                0xffffffff88120419                getDNSServer
                0xffffffff88120441                ispdpactive
                0xffffffff88120461                Gprs_MSG_Redirect
                0xffffffff88120481                CFW_StopDetachTimer
                0xffffffff881204e5                CFW_StartDetachTimer
                0xffffffff88120575                CFW_SetCID
                0xffffffff881205f1                CFW_GetFreeCID
                0xffffffff88120685                CFW_GprsGetReqQos
                0xffffffff88120701                CFW_GprsSetReqQos
                0xffffffff88120799                CFW_ReleaseCID
                0xffffffff88120859                CFW_GprsRemovePdpCxt
                0xffffffff88120a59                CFW_GprsGetPdpCxt
                0xffffffff88120c85                CFW_GprsSetPdpCxt
                0xffffffff88120f41                do_store_packet
                0xffffffff88120fdd                CFW_GetGprsActState
                0xffffffff88121071                CFW_GprsGetPdpAddr
                0xffffffff88121209                CFW_GprsGetPdpIpv6Addr
                0xffffffff8812127d                CFW_GprsGetPdpIpv4Addr
                0xffffffff881212dd                CFW_GprsSendData
                0xffffffff8812149d                do_send_stored_packet
                0xffffffff88121579                CFW_GprsCtxModifyAcc
                0xffffffff88121671                CFW_GprsActEX
                0xffffffff88121985                CFW_GprsAct
                0xffffffff881231d5                GprsMTAoProc
                0xffffffff881232fd                Gprs_SetAppCngInit
                0xffffffff88123349                CFW_GprsInit
                0xffffffff88123465                CFW_GprsPdpApi2Addr
                0xffffffff88123485                CFW_GprsPdpAddr2Api
                0xffffffff881234bd                CFW_GprsApi2Qos
                0xffffffff881234fd                CFW_GprsQos2Api
                0xffffffff88123585                CFW_SetCommEX
                0xffffffff88123595                CFW_NW_SetCSDelayTime
                0xffffffff881235bd                CFW_NwGetLockBCCH
                0xffffffff881235c9                CFW_GetNWTimerOutFlag
                0xffffffff881235d5                CFW_SetNWTimerOutFlag
                0xffffffff881235e1                CFW_NW_SendDetectMBSMessage
                0xffffffff881236f5                CFW_ChangeRoamByPLMNName
                0xffffffff881238f1                CFW_GprsGetstatus
                0xffffffff881239ad                CFW_GetGprsAttState
                0xffffffff88123a51                CFW_NwGetStatus
                0xffffffff88123b05                CFW_NwGetSignalQuality
                0xffffffff88123b89                CFW_NwGetCurrentOperator
                0xffffffff88123cfd                CFW_GprsAttEX
                0xffffffff88123e49                CFW_GprsAtt
                0xffffffff88123f19                CFW_NwDeRegister
                0xffffffff88123fa5                _SendNetWorkInfo2Uplayer
                0xffffffff881245cd                CFW_NwSetFrequencyBand
                0xffffffff881246b5                CFW_NwSetRegistration
                0xffffffff881248f5                CFW_NwGetAvailableOperators
                0xffffffff88124a35                CFW_NWDelay
                0xffffffff88124ba1                CFW_StackInit
                0xffffffff88124ed5                CFW_GetComm
                0xffffffff88124f15                CFW_NwDeRegisterEX
                0xffffffff88124ff9                CFW_NwInit
                0xffffffff88125175                CFW_SetComm
                0xffffffff88126881                _ProcessLockBCCHNWRsp
                0xffffffff881268b9                CFW_SetCommSIMOpen
                0xffffffff8812696d                CFW_SetFlightModeProc
                0xffffffff88126f99                PlmnApi2Array
                0xffffffff88126fc5                plmnArray2Api
                0xffffffff88126fed                NetStatusApi2At
                0xffffffff88127015                GprsStatusApi2At
                0xffffffff8812703d                CFW_GetSimOpenStatus
                0xffffffff88127049                CFW_SetSimOpenStatus
                0xffffffff88127055                CFW_SimUnRegisterAll
                0xffffffff881270c9                _SetAutoCallTimer
                0xffffffff88127131                CFW_GetAutoCallFlagFromRam
                0xffffffff88127185                CFW_GetAutoCallFreqBand
                0xffffffff881271f5                CFW_GetAutoCallCmd
                0xffffffff88127229                CFW_SetAutoCallResultSavingStatus
                0xffffffff88127255                CFW_AutoCallResultAvail
                0xffffffff8812727d                _AutoCallTimerProc
                0xffffffff881272bd                CSW_SAT_InitEX
                0xffffffff88127301                CFW_EMCDial
                0xffffffff88127395                CFW_ShellProc
                0xffffffff881283c1                CFW_ShellControl
                0xffffffff881284b5                cfw_IMSItoASC
                0xffffffff8812850d                CFW_PLMNtoBCDEX
                0xffffffff881285b9                CFW_GetSimCardID
                0xffffffff881285ed                SimParseDedicatedStatus
                0xffffffff881288e5                Sim_ParseSW1SW2
                0xffffffff88128e61                SimRehabilitateReq
                0xffffffff88128ed1                SimReadRecordReq
                0xffffffff88128f79                SimDedicFileStatusReq
                0xffffffff88128fcd                SimElemFileStatusReq
                0xffffffff8812902d                SimReadBinaryReq
                0xffffffff881290d1                SimRetryReq
                0xffffffff8812911d                CFW_SimGetMeProfile
                0xffffffff8812918d                SimUnblockCHVReq
                0xffffffff88129231                SimVerifyCHVReq
                0xffffffff881292b9                SimSeekReq
                0xffffffff88129361                SimUpdateRecordReq
                0xffffffff88129419                SimSetUsimPbk
                0xffffffff8812949d                SimSelectApplicationReq
                0xffffffff88129515                SimUpdateBinaryReq
                0xffffffff88129591                SimResetReq
                0xffffffff881295dd                CFW_SimInit
                0xffffffff88129749                CFW_SimInitStage1
                0xffffffff881297dd                CFW_SimInitStage2
                0xffffffff88129839                CFW_SimInitStage3
                0xffffffff881298e9                CFW_SimResetEx
                0xffffffff88129981                SetTestSim
                0xffffffff88129995                isTestSim
                0xffffffff881299b1                CFW_GetICCID
                0xffffffff881299cd                CFW_SetSimStatus
                0xffffffff881299e1                CFW_GetSimStatus
                0xffffffff88129a31                CFW_GetSimType
                0xffffffff88129a3d                CFW_GetSimADNType
                0xffffffff88129a49                CFW_SetMNCLen
                0xffffffff88129a55                CFW_GetMNCLen
                0xffffffff88129a65                CFW_GetStackSimFileID
                0xffffffff88129d41                CFW_USimInitStage1Proc
                0xffffffff8812a121                CFW_SetSimSPN
                0xffffffff8812a149                CFW_GetSimSPN
                0xffffffff8812a1b9                CFW_SimInitStage1Proc
                0xffffffff8812a5e1                CFW_USimInitStage3Proc
                0xffffffff8812b1dd                CFW_SimInitStage3Proc
                0xffffffff8812bae9                CFW_InitVar
                0xffffffff8812bb5d                CFW_SimResetExProc
                0xffffffff8812c5c1                CFW_SimInitStageBootProc
                0xffffffff8812d015                CFW_SimEnterAuthenticationEX
                0xffffffff8812d1a9                CFW_SimEnterAuthenticationProc
                0xffffffff8812d8fd                CFW_SimSetLP
                0xffffffff8812d90d                CFW_SimGetPS
                0xffffffff8812d911                CFW_SimGetPF
                0xffffffff8812d915                CFW_SimGetPrefOperatorList
                0xffffffff8812d98d                CFW_SimGetProviderId
                0xffffffff8812d9f9                CFW_USimSetECC
                0xffffffff8812da3d                CFW_SimSetECC
                0xffffffff8812daa9                SimSpySimCard
                0xffffffff8812db91                CFW_SimMisGetPrefListProcEX
                0xffffffff8812e041                CFW_SimMisGetProviderIdProc
                0xffffffff8812e2b1                getLengthTLV
                0xffffffff8812e2c9                getCommandDetail
                0xffffffff8812e2f1                getDuration
                0xffffffff8812e315                getItemIdentifier
                0xffffffff8812e335                getResponseLength
                0xffffffff8812e359                getTone
                0xffffffff8812e379                getItemsNextActionIndicator
                0xffffffff8812e39d                getIconIdentifier
                0xffffffff8812e3c1                getItemIconIdenList
                0xffffffff8812e3e9                getTimerIden
                0xffffffff8812e409                getTimerValue
                0xffffffff8812e429                getImmediateRSP
                0xffffffff8812e445                getBrowserIden
                0xffffffff8812e465                getAddress
                0xffffffff8812e4c1                getAlphaIden
                0xffffffff8812e511                getSubAddress
                0xffffffff8812e561                getCapabilityCP
                0xffffffff8812e5b5                getSMSTPDU
                0xffffffff8812e609                getSSString
                0xffffffff8812e669                getTextString
                0xffffffff8812e6c9                getUSSDString
                0xffffffff8812e729                getFileList
                0xffffffff8812e789                getDefaultText
                0xffffffff8812e7e9                getEventList
                0xffffffff8812e83d                getDTMFString
                0xffffffff8812e891                getURL
                0xffffffff8812e8e5                getBearer
                0xffffffff8812e939                getProvisoinFileRef
                0xffffffff8812e98d                packGSM7bit
                0xffffffff8812ea2d                getItem
                0xffffffff8812eaa5                fetchDTMF
                0xffffffff8812eb99                fetchLaunchBrowser
                0xffffffff8812f0c5                fetchPlayTone
                0xffffffff8812f195                fetchSelectItem
                0xffffffff8812f409                fetchSetupMenu
                0xffffffff8812f6b9                CreateTerminalResponse
                0xffffffff8812f70d                sendCommonRsp
                0xffffffff8812f7d1                sendGetChannelStatusRsp
                0xffffffff8812f855                sendGetReadStatusRsp
                0xffffffff8812f915                sendEnvelopePDU
                0xffffffff8812f9a9                sendMenuSelection
                0xffffffff8812fa65                sendCallControl
                0xffffffff8812fb11                sendUSSDRsp
                0xffffffff8812fca9                sendPollIntervalRsp
                0xffffffff8812fd71                sendEventDownload
                0xffffffff8812fdd9                sendSMSPPDownload
                0xffffffff88130015                sendGetInputRsp
                0xffffffff881300e1                sendGetInKeyRsp
                0xffffffff881301ad                sendSelectItemRsp
                0xffffffff881302b1                sendProvideLocalInfoRsp
                0xffffffff881304f9                fetchSetupEventList
                0xffffffff88130565                sendTimerExpiration
                0xffffffff881305e1                sendResponsePDU
                0xffffffff88130685                fetchTimerManagement
                0xffffffff88130705                fetchSendUSSD
                0xffffffff88130841                fetchSendSS
                0xffffffff8813097d                fetchPollInterval
                0xffffffff881309dd                fetchCallSetup
                0xffffffff88130d39                fetchSendSMS
                0xffffffff88130f95                fetchGetInput
                0xffffffff881310b1                fetchDisplayText
                0xffffffff88131151                fetchRefresh
                0xffffffff88131405                processFetchInd
                0xffffffff88132139                CFW_SatResponse
                0xffffffff881322e5                CFW_SatActivation
                0xffffffff88132375                CFW_GetSATIndFormate
                0xffffffff88132381                _SetTimerExpirationDownloadData
                0xffffffff881323a5                _ResetSimTimer
                0xffffffff88132425                CFW_SatActivationProc
                0xffffffff8813273d                SendRefreshSclMsg
                0xffffffff88132811                CFW_SatResponseProc
                0xffffffff88132ce1                _SATTimerProc
                0xffffffff88132d45                CFW_DecomposePDU
                0xffffffff881337f1                CFW_SimSmsInit
                0xffffffff881338b9                CFW_SimSetSmsParameters
                0xffffffff881339c5                CFW_SimGetSmsParameters
                0xffffffff88133a69                CFW_SimListMessage
                0xffffffff88133b5d                CFW_SimReadMessage
                0xffffffff88133c19                CFW_SimPatchEX
                0xffffffff88133ca5                CFW_SimPatch
                0xffffffff88133d39                CFW_SimGetSmsTotalNum
                0xffffffff88133de5                CFW_SimDeleteMessage
                0xffffffff88133ec5                CFW_SimWriteMessage
                0xffffffff8813403d                cfw_initSimSMSSeek
                0xffffffff88134091                cfw_setSimSMSImage
                0xffffffff881341f9                CFW_SimGetSmsParametersProc
                0xffffffff88134715                CFW_SimReadMessageProc
                0xffffffff881348fd                CFW_SimSetSmsParametersProc
                0xffffffff88134ec9                CFW_SimDeleMessageProc
                0xffffffff88135411                CFW_SimPatchProc
                0xffffffff88135661                CFW_SimWriteMessageProc
                0xffffffff881359f5                CFW_SimPatchEXProc
                0xffffffff88135c75                cfw_printSimSMSImage
                0xffffffff88135d09                cfw_seekSimSMSNextRecord
                0xffffffff88135da1                CFW_SimListMessageProc
                0xffffffff881360bd                cfw_initSimSMSRecordsImage
                0xffffffff88136111                CFW_SimSmsInitProc
                0xffffffff88136539                CFW_SimGetSmsTotalNumProc
                0xffffffff881366fd                CFW_CbSimRead
                0xffffffff88136791                CB_Rec_Reg
                0xffffffff88136831                CFW_CbAoProc
                0xffffffff88136b99                CFW_CbReadFile
                0xffffffff88136c29                CFW_CbSimReadProc
                0xffffffff8813713d                CFW_CbInit
                0xffffffff881371d9                SMS_SFUser2SimEX
                0xffffffff8813723d                SMS_SFSim2UserEX
                0xffffffff881372a1                SMS_HaveFreeSlotEX
                0xffffffff881372e5                SMS_GetStorageInfoEX
                0xffffffff88137339                CFW_MeGetStorageInfo
                0xffffffff8813739d                SMS_Read2EX
                0xffffffff881373f5                CFW_MeListMessage
                0xffffffff88137545                SMS_ReadEX
                0xffffffff88137591                CFW_MeReadMessage
                0xffffffff881375e9                SMS_WriteEX
                0xffffffff8813763d                SMS_AppendEX
                0xffffffff881376a5                CFW_MeWriteMessage
                0xffffffff88137799                SMS_DeleteFromMeByIndexEX
                0xffffffff881377b1                SMS_DeleteFromMeByStatusEX
                0xffffffff88137839                CFW_MeDeleteMessage
                0xffffffff881378d5                CFW_GprsGetSmsSeviceMode
                0xffffffff881378e1                CFW_CfgGetClass0SMSSetting
                0xffffffff881378ed                CFW_TypeOfSMS
                0xffffffff88137a81                CFW_SmsInitCompleteProc
                0xffffffff88137be5                sms_InitAoProc
                0xffffffff88137f49                sms_MTAoProc
                0xffffffff881383a1                sms_SetUnRead2ReadProc
                0xffffffff8813872d                CFW_GetPduUDHI
                0xffffffff881387a1                sms_SendProc
                0xffffffff881391e9                sms_ListAoProc
                0xffffffff88139ad5                sms_DleteAoProc
                0xffffffff8813a259                sms_mt_Reg
                0xffffffff8813a2a9                CFW_SmsMtInit
                0xffffffff8813a2c9                CFW_SmsMoInit
                0xffffffff8813a365                CFW_GetSMSConcat
                0xffffffff8813a371                CFW_SetSMSConcat
                0xffffffff8813a3a9                CFW_SmsInitComplete
                0xffffffff8813a455                CFW_SmsGetMessageNode
                0xffffffff8813a559                CFW_SmsListMessages
                0xffffffff8813a6dd                CFW_SmsSetUnRead2Read
                0xffffffff8813a819                CFW_SmsDeleteMessage
                0xffffffff8813a979                CFW_SmsSendMessage
                0xffffffff8813ab6d                sms_mt_SerializeTime
                0xffffffff8813acfd                sms_tool_CheckDcs
                0xffffffff8813ad95                _GetRealTOOA
                0xffffffff8813afc1                sms_tool_DecomposePDU
                0xffffffff8813bc19                sms_mo_Parse_PDU
                0xffffffff8813bd55                sms_tool_SMSTime_TO_SCTS
                0xffffffff8813be91                SUL_UserDialNum2StackDialNum
                0xffffffff8813bf2d                sms_tool_ComposePDU
                0xffffffff8813d5e9                sms_mo_SmsPPSendMMAReq
                0xffffffff8813d651                sms_mt_SmsPPErrorReq
                0xffffffff8813d6b5                sms_mt_SmsPPAckReq
                0xffffffff8813d725                sms_mo_ComposeLongPDU
                0xffffffff8813db4d                sms_mo_Parse_SmsPPErrorInd
                0xffffffff8813dbdd                sms_mt_Parse_SmsPPReceiveInd_SR
                0xffffffff8813ddc5                sms_mt_Parse_SmsPPReceiveInd
                0xffffffff8813e8dd                sms_mt_Parse_LongMSGPara
                0xffffffff8813ea29                sms_mt_Store_SmsPPReceiveInd
                0xffffffff8813f0fd                CFW_TcpipSocketConnect
                0xffffffff8813f179                CFW_GethostbynameEX
                0xffffffff8813f1cd                CFW_Gethostbyname
                0xffffffff8813f29d                CFW_PostBearerLosingInd
                0xffffffff8813f315                CFW_PostConnectRSP
                0xffffffff8813f37d                CFW_PostCloseRSP
                0xffffffff8813f3e5                sys_post_ICMPevent_to_APP
                0xffffffff8813f471                sys_post_DNSevent_to_APP
                0xffffffff8813f4fd                CFW_TcpipSocketBind
                0xffffffff8813f529                CFW_TcpipSocketSendto
                0xffffffff8813f55d                CFW_TcpipSocketClose
                0xffffffff8813f5dd                CFW_TcpipSocketRecvfrom
                0xffffffff8813f60d                CFW_TcpipSocketRecv
                0xffffffff8813f629                CFW_TcpipSocketSend
                0xffffffff8813f655                CFW_TcpipSocketEX
                0xffffffff8813f6cd                CFW_TcpipSocket
                0xffffffff8813f6e9                CFW_TcpipInetAddr
                0xffffffff8813f6f9                lwip_tcp_event
                0xffffffff8813f865                sys_post_event_to_APS
                0xffffffff8813faad                CFW_SsMtReg
                0xffffffff8813fb89                CFW_SsSendUSSD
                0xffffffff881403b5                CFW_SendRelComMsg
                0xffffffff8814041d                CFW_SendFacilityMsg
                0xffffffff8814210d                CFW_SsInit
                0xffffffff88142ce9                CFW_UsimDecodeDataLength
                0xffffffff88142d11                CFW_UsimDecFileSize
                0xffffffff88142d35                CFW_UsimDecEfFileDescriptor
                0xffffffff88142d6d                CFW_UsimDecodeEFFcp
                0xffffffff88142dfd                CFW_GetAdnAlphaIdLength
                0xffffffff88142e71                CFW_UsimUsageQualifier
                0xffffffff88142e95                CFW_USimParsePukStatus
                0xffffffff8814309d                CFW_USimParsePinStatus
                0xffffffff881432b5                CFW_USimInitPinStatus
                0xffffffff8814356d                CFW_UsimSetPinStatus
                0xffffffff88143609                CFW_UsimDecKeyReference
                0xffffffff88143649                CFW_UsimDecPinStatusTemplateDO
                0xffffffff88143751                CFW_UsimDecodeDFFcp
                0xffffffff881437ed                CFW_CfgUSimGetPinParam
                0xffffffff88143835                CFW_UsimDecodeEfDirRecord
                0xffffffff88143959                clk_get_sys
                0xffffffff88143979                clk_get
                0xffffffff88143989                clkdev_add_table
                0xffffffff88143a11                clk_enable
                0xffffffff88143a41                clk_get_usecount
                0xffffffff88143a4d                clk_get_rate
                0xffffffff88143b2d                clk_disable
                0xffffffff88143b55                clk_set_rate
                0xffffffff88143bb5                clk_register
                0xffffffff88143c11                rda_set_sysclk_rate
                0xffffffff88143cdd                clk_release
                0xffffffff88143d91                clk_is_active
                0xffffffff88143e45                rda_ck_show
                0xffffffff88143ecd                clk_request
                0xffffffff88144005                rda_clk_check_parent
                0xffffffff8814402d                rda_clk_init
                0xffffffff88144081                rda_set_pllclk_rate
                0xffffffff88144229                COS_Trace
                0xffffffff881442ad                CSN1_StackNext
                0xffffffff88144371                CSN1_StackBacktrack
                0xffffffff881443d9                CSN1_MatchFill
                0xffffffff881443f9                Csn1_Action_FAIL
                0xffffffff88144405                Csn1_Action_SUCCESS
                0xffffffff88144411                Csn1_Action_NULL
                0xffffffff88144415                CSN1ActionFunction_StandardPush
                0xffffffff881444b9                CSN1_SetValue
                0xffffffff881444f9                CSN1_GetValue
                0xffffffff8814453d                CSN1_PushValue
                0xffffffff88144591                CSN1_TerminateLoop
                0xffffffff881445c1                CSN1_GetParentFieldId
                0xffffffff88144615                CSN1_LinkParent
                0xffffffff88144685                CSN1_ExitField
                0xffffffff881446f1                CSN1_EnterField
                0xffffffff8814478d                CSN1_StackPush
                0xffffffff88144819                CSN1ActionFunction_EnterField
                0xffffffff8814486d                CSN1_StackInit
                0xffffffff88144881                Csn1_Decode
                0xffffffff88144941                Csn1_Encode
                0xffffffff881449f5                dbg_AssertUtil
                0xffffffff88144a0d                lwip_htons
                0xffffffff88144a21                lwip_htonl
                0xffffffff88144a45                lwip_strnicmp
                0xffffffff88144a89                dhcp_supplied_address
                0xffffffff88145095                dhcp_renew
                0xffffffff88145341                dhcp_release_and_stop
                0xffffffff88145469                dhcp_release
                0xffffffff8814547d                dhcp_arp_reply
                0xffffffff88145711                dhcp_network_changed
                0xffffffff88145765                dhcp_coarse_tmr
                0xffffffff88145ba5                dhcp_fine_tmr
                0xffffffff88145cb9                dns_setserver
                0xffffffff88145cf1                ttl_timer
                0xffffffff88145d05                dns_init
                0xffffffff881467b1                dns_gethostbyname_addrtype
                0xffffffff88146889                dns_tmr
                0xffffffff88146ef5                drv_SetSimEnable
                0xffffffff88146f21                foursim_SetSimVoltage
                0xffffffff88146f3d                drv_simInitVolt
                0xffffffff88146fa5                DRV_GetWCacheSizeTFlash
                0xffffffff88146fd1                DRV_GetRCacheSizeTFlash
                0xffffffff88146ffd                DRV_SetRCacheSizeTFlash
                0xffffffff8814712d                DRV_ActiveTFlash
                0xffffffff881471e1                DRV_CloseTFlash
                0xffffffff881472fd                DRV_SetWCacheSizeTFlash
                0xffffffff881473a1                DRV_DeactiveTFlash
                0xffffffff881473ed                DRV_FlushTFlash
                0xffffffff88147425                DRV_GetDevInfoTFlash
                0xffffffff88147471                DRV_WriteTFlash
                0xffffffff881475b5                DRV_ReadTFlash
                0xffffffff881476a5                DRV_OpenTFlash
                0xffffffff88147751                tcslen
                0xffffffff88147761                tcscpy
                0xffffffff88147775                tcsncpy
                0xffffffff8814779d                tcscat
                0xffffffff881477b9                tcscmp
                0xffffffff881477d1                tcsncmp
                0xffffffff881477f1                tcschr
                0xffffffff88147815                DSM_UnicodeLen
                0xffffffff88147831                itoa
                0xffffffff8814786d                DSM_GetFileTime2Time
                0xffffffff8814789d                DSM_GetFileTime2Date
                0xffffffff881478d1                DSM_GetTime
                0xffffffff881478fd                DSM_UniteFileTime
                0xffffffff88147985                DSM_GetFileTime
                0xffffffff88148341                dtoa_r
                0xffffffff88148b51                strtod
                0xffffffff88149bc1                EDIntToBits
                0xffffffff88149c0d                EDBitsToInt
                0xffffffff88149c4d                EDFindKnownIE
                0xffffffff88149c89                EDSkipKnownIE
                0xffffffff88149cf5                EDGetIE
                0xffffffff88149d75                EDCopyBits
                0xffffffff88149e35                err_to_errno
                0xffffffff88149e5d                lwip_strerr
                0xffffffff88149fb1                etharp_request
                0xffffffff8814a275                etharp_cleanup_netif
                0xffffffff8814a2b1                etharp_tmr
                0xffffffff8814a365                etharp_query
                0xffffffff8814a535                etharp_input
                0xffffffff8814a779                ethernet_output
                0xffffffff8814a881                ethernet_input
                0xffffffff8814aa39                NameFat2User
                0xffffffff8814aac9                fat_GetFATSz
                0xffffffff8814ab05                fat_GetRandNum
                0xffffffff8814ab11                fat_GetFatType
                0xffffffff8814ab29                fat_GetFatTypeForFormat
                0xffffffff8814ab45                fat_GetSecNumPerClus_12
                0xffffffff8814ab75                CheckFDE
                0xffffffff8814abe5                fat_GetSecNumPerClus_16
                0xffffffff8814ac61                fat_GetSecNumPerClus_32
                0xffffffff8814acc5                fat_read_cluster
                0xffffffff8814ad35                fat_write_cluster
                0xffffffff8814adc5                fat_revert_cluster
                0xffffffff8814ae59                fat_is_last_cluster
                0xffffffff8814ae81                fat_fpos2cluster
                0xffffffff8814aee1                fat_fpos2CSO
                0xffffffff8814af29                fat_ChkSum
                0xffffffff8814af4d                fat_name_change
                0xffffffff8814af85                fat_get_fat_cache
                0xffffffff8814afb1                fat_set_fsinfo
                0xffffffff8814affd                fat_new_frag
                0xffffffff8814b031                fat_append_fatentries_chain
                0xffffffff8814b0bd                fat_free_fatentries
                0xffffffff8814b0e9                fat_stat_free_cluster
                0xffffffff8814b3e9                fat_format_set_fat_entry
                0xffffffff8814b54d                fat_get_long_name
                0xffffffff8814b5c5                fat_GetFormatInfo
                0xffffffff8814b7e5                FLDE2Buf
                0xffffffff8814b849                Buf2FLDE
                0xffffffff8814b8c1                Buf2FDE
                0xffffffff8814b94d                FDE2Buf
                0xffffffff8814b9e5                Buf2FSI
                0xffffffff8814bac1                FSI2Buf
                0xffffffff8814bb35                fat_synch_fsinfo
                0xffffffff8814bbfd                Buf2FBR
                0xffffffff8814be09                MBR2Buf
                0xffffffff8814bf09                Buf2MBR
                0xffffffff8814c015                FBR2Buf
                0xffffffff8814c1bd                fat_long_to_short
                0xffffffff8814c275                fat_is_long_name_valid
                0xffffffff8814c2d1                fat_TrimOem
                0xffffffff8814c349                fat_Trim
                0xffffffff8814c3c1                fat_get_free_cluster
                0xffffffff8814c5b1                fat_get_next_cluster
                0xffffffff8814c741                fat_get_name_for_entrys
                0xffffffff8814ca6d                fat_read_fatentries
                0xffffffff8814caf9                fat_trunc_fragentries
                0xffffffff8814cbb5                fat_lookup_entry
                0xffffffff8814d0e9                fat_read_sb_info
                0xffffffff8814d33d                SetVolLabEntry
                0xffffffff8814d3ad                NameUser2Fat
                0xffffffff8814d4a5                fat_get_long_entry
                0xffffffff8814d7dd                fat_relate_inode_with_fatcache
                0xffffffff8814d83d                fat_update_dentry
                0xffffffff8814d96d                fat_file_truncate
                0xffffffff8814da3d                fat_synch_relating_file
                0xffffffff8814da95                fat_is_inode_relating_with_fatcache
                0xffffffff8814dacd                fat_synch_fat_cache
                0xffffffff8814db5d                fat_set_fat_entry_value
                0xffffffff8814dd91                fat_file_extend
                0xffffffff8814dfb9                fat_file_write
                0xffffffff8814e1c5                fat_get_fat_entry_value
                0xffffffff8814e355                fat_file_read
                0xffffffff8814e56d                fat_get_file_name
                0xffffffff8814e5a5                fat_set_fat_entry_all
                0xffffffff8814e639                fat_set_dentry
                0xffffffff8814e761                fat_scan_disk
                0xffffffff8814ed81                fat_format
                0xffffffff8814f2c5                fat_is_formated
                0xffffffff8814f389                fat_do_link
                0xffffffff8814f43d                fat_do_unlink
                0xffffffff8814f485                fat_trunc_file
                0xffffffff8814f639                fat_create_file
                0xffffffff8814f721                fat_write_inode
                0xffffffff8814f775                fat_do_find_entry
                0xffffffff8814f9a1                fat_read_inode
                0xffffffff8814fb19                fstraces_Close
                0xffffffff8814fb1d                fstraces_Read
                0xffffffff8814fb31                hal_GdbFlushCacheData
                0xffffffff8814fb41                hal_GdbFlushCache
                0xffffffff8814fbad                hal_OverlayUnload
                0xffffffff8814fca9                hal_OverlayLoad
                0xffffffff8814fd95                lwip_init
                0xffffffff8814fdd1                Trace0
                0xffffffff8814fe29                ip_input
                0xffffffff8814fe55                ipaddr_aton
                0xffffffff8814fe91                ip4_debug_print
                0xffffffff8814ffdd                ip4_output_if_src
                0xffffffff88150215                ip4_output_if
                0xffffffff881502c5                ip4_input
                0xffffffff88150655                ip4_route
                0xffffffff88150721                ip4_route_src
                0xffffffff88150741                ip4_addr_isbroadcast_u32
                0xffffffff88150771                ip4addr_ntoa_r
                0xffffffff881507f9                ip4addr_ntoa
                0xffffffff88150811                ip4addr_aton
                0xffffffff88150991                ipaddr_addr
                0xffffffff881509d1                ip4_frag
                0xffffffff88150e39                ip_reass_tmr
                0xffffffff88150ead                ip4_reass
                0xffffffff88151455                ip6_select_source_address
                0xffffffff881515b5                ip6_debug_print
                0xffffffff8815192d                ip6_options_add_hbh_ra
                0xffffffff88151989                ip6_output_if_src
                0xffffffff88151cb9                ip6_output_if
                0xffffffff88151d3d                ip6_input
                0xffffffff881522f1                ip6_route
                0xffffffff88152575                ip6addr_ntoa_r
                0xffffffff881526d9                ip6addr_ntoa
                0xffffffff881526f1                ip6addr_aton
                0xffffffff88152ad9                ip6_reass
                0xffffffff881530c1                ip6_reass_tmr
                0xffffffff88153109                l1a_SetTestLoopReq
                0xffffffff88153199                l1a_PhyInfoReq
                0xffffffff881531fd                l1a_RachOffReq
                0xffffffff8815324d                l1a_StopChReq
                0xffffffff88153361                l1a_ReleaseReq
                0xffffffff881533c1                l1a_CipherReq
                0xffffffff8815344d                l1a_ChanModeModifyReq
                0xffffffff881534d9                l1a_FreqRedefReq
                0xffffffff88153599                l1a_CbchSkipReq
                0xffffffff8815360d                l1a_CellOptUpdtReq
                0xffffffff881536c1                l1a_ConnectReq
                0xffffffff881537d9                l1a_RachUpdtReq
                0xffffffff88153881                l1a_BcchModeReq
                0xffffffff881538e9                l1a_RachOnReq
                0xffffffff88153979                l1a_BcchReq
                0xffffffff88153b6d                l1a_CbchReq
                0xffffffff88153c91                l1a_CchReq
                0xffffffff88153f4d                l1a_ExtdMonitorReq
                0xffffffff88153f81                l1a_PMeasCtrlReq
                0xffffffff881540a5                l1a_NcMonitorStart
                0xffffffff88154359                l1a_NcMonitorReq
                0xffffffff8815440d                l1a_NcMonitorInd
                0xffffffff88154591                l1a_SynchUpdateReq
                0xffffffff88154665                l1a_Report2Peer
                0xffffffff881548c1                l1a_MonitorReq
                0xffffffff88154e01                l1a_MonitorInd
                0xffffffff88155411                l1a_StopSynchReq
                0xffffffff881554bd                l1a_SynchReq
                0xffffffff88155679                l1a_PowerRsp
                0xffffffff881557d5                l1a_PowerReq
                0xffffffff881558c9                l1a_ChangeSubState
                0xffffffff881558e1                l1a_CheckOtherBusy
                0xffffffff88155919                l1a_AsynRaiseLongLivedJEvent
                0xffffffff88155939                l1a_ASynchChangeState
                0xffffffff88155959                l1a_ASynchJobMapResume
                0xffffffff88155979                l1a_ASynchJobMapStop
                0xffffffff88155999                l1a_RaiseLongLivedJEvent
                0xffffffff881559ad                l1a_ASynchJobDeletion
                0xffffffff881559e1                l1a_JobDeletion
                0xffffffff88155a09                l1a_JobMapResume
                0xffffffff88155a4d                l1a_JobUpdt
                0xffffffff88155b71                l1a_JobMapStop
                0xffffffff88155b85                l1a_JobMapDeletion
                0xffffffff88155b99                l1a_ChangeState
                0xffffffff88156071                l1a_PCchReq
                0xffffffff88156075                l1a_PBcchReq
                0xffffffff88156079                l1a_ChnQualityReq
                0xffffffff881561f5                l1a_GetGPTimAdv
                0xffffffff881562d5                l1a_MacFixedUpdtReq
                0xffffffff88156355                l1a_PSDataReq
                0xffffffff88156581                l1a_PDCHRelReq
                0xffffffff88156685                l1a_TBFCfgReq
                0xffffffff88156741                l1a_TBFRelReq
                0xffffffff8815693d                l1a_PwrCtrlTAReq
                0xffffffff881569f5                lap_TestNRSequenceError
                0xffffffff88156a19                lap_Purge
                0xffffffff88156a2d                lap_PurgeL1Queue
                0xffffffff88156a9d                lap_PurgeDataReqQueue
                0xffffffff88156ac1                lap_PurgeLapQueue
                0xffffffff88156b29                lap_StopT200
                0xffffffff88156c29                lap_ConcatenateRxI
                0xffffffff88156ce1                lap_SendLapDataInd
                0xffffffff88156db9                lap_SendUIL1DataReq
                0xffffffff88156e19                lap_SendL1DataReq
                0xffffffff88156e49                lap_SendAgainLastFrame
                0xffffffff88156ec1                lap_SendSubsequentSegmentIFrame
                0xffffffff88157101                lap_SendFirstSegmentIFrame
                0xffffffff8815725d                lap_SendFrame
                0xffffffff881575fd                lap_ProcessDataReq
                0xffffffff88157679                lap_SendMsg
                0xffffffff881576d5                lap_PrepMsg
                0xffffffff88157721                llc_InitDefParam
                0xffffffff881577c5                llc_LleCtxInit
                0xffffffff88157885                llc_ClearUsrVar
                0xffffffff88157961                llc_ClearCtx
                0xffffffff88157a35                llc_GetParLenXid
                0xffffffff88157a51                llc_CheckXidParPresent
                0xffffffff88157ab1                llc_GetXidParVal
                0xffffffff88157acd                llc_InsertXidHdr
                0xffffffff88157b05                llc_InsertXidParVal
                0xffffffff88157b69                llc_UpdateWithXidPar
                0xffffffff88157d95                llc_CheckXidParVal
                0xffffffff88157e65                llc_CheckXidParRange
                0xffffffff88157ee1                llc_IsXidParPresent
                0xffffffff88157f0d                llc_GetFrmFormatId
                0xffffffff88157f95                llc_BuildUFrm
                0xffffffff88158005                llc_BuildAndSndFRMR
                0xffffffff88158151                llc_BuildAndSndRspFrm
                0xffffffff881581a5                llc_ProcessUnitDataReq
                0xffffffff881583c5                llc_ProcessSavedUnitDataReq
                0xffffffff8815845d                llc_IsAckReqNeeded
                0xffffffff881584f5                llc_ProcessInfoPart
                0xffffffff88158649                llc_AckTxL3Pdu
                0xffffffff88158711                llc_ProcessAckPart
                0xffffffff88158a55                llc_BuildAndSndIFrm
                0xffffffff88158d85                llc_ProcessDataReq
                0xffffffff88158f21                llc_IFrmRetransmission
                0xffffffff88159011                llc_IFrmTransmission
                0xffffffff8815919d                llc_BuildXidParamField
                0xffffffff8815927d                llc_BuildSABM
                0xffffffff881592d1                llc_CheckAndGetXid
                0xffffffff881595ed                llc_BuildAndSndDISC
                0xffffffff88159661                llc_CheckInvalidFrm
                0xffffffff881597a5                mac_FdT3200
                0xffffffff881597b1                mac_NewTlliCnf
                0xffffffff8815981d                mac_T3200Exp
                0xffffffff881598c9                mac_NewTlliInd
                0xffffffff88159a45                mac_CtrlBlock
                0xffffffff8815a465                mac_PurgeDQReq
                0xffffffff8815a4a5                mac_DataBlock
                0xffffffff8815a6f9                mac_L1ChnQualInd
                0xffffffff8815a719                mac_L1PBcchInd
                0xffffffff8815a7d1                mac_L1PDchInd
                0xffffffff8815a83d                mac_DlAckReq
                0xffffffff8815aae5                mac_UlDataReq
                0xffffffff8815ad69                mac_RrDataReq
                0xffffffff8815addd                mac_FdRefQ
                0xffffffff8815adf9                ENCODE_c_PDownlinkAckNack
                0xffffffff8815af1d                mac_FinishEncBlock
                0xffffffff8815afa1                mac_IsRejForUs
                0xffffffff8815b041                mac_FdCtrlAck
                0xffffffff8815b089                mac_PrepPCtrlAck
                0xffffffff8815b24d                mac_SdBlock
                0xffffffff8815b3a9                mac_PurgeCtrlQ
                0xffffffff8815b3d9                mac_Purge
                0xffffffff8815b401                mac_ContResFailed
                0xffffffff8815b469                mac_ContResSuccess
                0xffffffff8815b671                mac_HdleSegmentation
                0xffffffff8815b9d9                GetMCITaskHandle
                0xffffffff8815ba45                SetMCITaskHandle
                0xffffffff8815bab5                MCI_vid_play_finish_ind
                0xffffffff8815bacd                MCI_VideoClose
                0xffffffff8815bad1                MCI_VideoOpenFile
                0xffffffff8815bad5                MCI_AudioRecordStop
                0xffffffff8815baf5                MCI_AudioRecordFinished
                0xffffffff8815bb1d                MCI_RingFinished
                0xffffffff8815bb4d                MCI_AudioFinished
                0xffffffff8815bb75                MCI_AudioRecordStart
                0xffffffff8815bbc9                MCI_AudioSetEQ
                0xffffffff8815bbd9                MCI_AudioGetPlayInformation
                0xffffffff8815bbfd                MCI_AudioStop
                0xffffffff8815bc31                MCI_AudioResume
                0xffffffff8815bc55                MCI_AudioPause
                0xffffffff8815bc75                MCI_AudioPlay
                0xffffffff8815bd21                MCI_TaskInit
                0xffffffff8815bd8d                mem_init
                0xffffffff8815bd91                mem_trim
                0xffffffff8815bd95                mem_free
                0xffffffff8815bdd1                mem_malloc
                0xffffffff8815be21                mem_calloc
                0xffffffff8815be51                memp_init_pool
                0xffffffff8815be55                memp_init
                0xffffffff8815be8d                memp_free
                0xffffffff8815bf1d                memp_malloc
                0xffffffff8815bf4d                mld6_lookfor_group
                0xffffffff8815c099                mld6_tmr
                0xffffffff8815c101                mld6_stop
                0xffffffff8815c141                mld6_leavegroup_netif
                0xffffffff8815c2a1                mld6_joingroup_netif
                0xffffffff8815c3b5                mld6_input
                0xffffffff8815c4ed                mld6_report_groups
                0xffffffff8815c511                CSN1ActionFunction_mm_4219277482
                0xffffffff8815c559                CSN1ActionFunction_mm_654552679
                0xffffffff8815c5a1                CSN1ActionFunction_mm_815343711
                0xffffffff8815c5e9                CSN1ActionFunction_mm_165832568
                0xffffffff8815c631                CSN1ActionFunction_mm_1150058242
                0xffffffff8815c679                CSN1ActionFunction_mm_1446670203
                0xffffffff8815c6bd                CSN1ActionFunction_mm_2470336396
                0xffffffff8815c705                CSN1ActionFunction_mm_3368039029
                0xffffffff8815c74d                CSN1ActionFunction_mm_4018032394
                0xffffffff8815c795                CSN1ActionFunction_mm_3501535647
                0xffffffff8815c7dd                CSN1ActionFunction_mm_992909587
                0xffffffff8815c821                CSN1ActionFunction_mm_2067045791
                0xffffffff8815c869                CSN1ActionFunction_mm_313259946
                0xffffffff8815c8b1                CSN1ActionFunction_mm_2335260607
                0xffffffff8815c8f9                CSN1ActionFunction_mm_2387339982
                0xffffffff8815c941                CSN1ActionFunction_mm_64959846
                0xffffffff8815c99d                CSN1ActionFunction_mm_4139192109
                0xffffffff8815c9e5                CSN1ActionFunction_mm_390578230
                0xffffffff8815ca41                CSN1ActionFunction_mm_791498803
                0xffffffff8815ca89                CSN1ActionFunction_mm_2430021842
                0xffffffff8815cad1                CSN1ActionFunction_mm_1286476466
                0xffffffff8815cb19                CSN1ActionFunction_mm_445249957
                0xffffffff8815cb5d                CSN1ActionFunction_mm_2904529805
                0xffffffff8815cba5                CSN1ActionFunction_mm_3587088796
                0xffffffff8815cbed                CSN1ActionFunction_mm_2354150077
                0xffffffff8815cc11                CSN1ActionFunction_mm_3925280648
                0xffffffff8815cc59                CSN1ActionFunction_mm_348479049
                0xffffffff8815cca1                CSN1ActionFunction_mm_2383332620
                0xffffffff8815ccc5                CSN1ActionFunction_mm_705805430
                0xffffffff8815cd0d                CSN1ActionFunction_mm_2040935313
                0xffffffff8815cd51                CSN1ActionFunction_mm_1329795257
                0xffffffff8815cd99                CSN1ActionFunction_mm_4006116147
                0xffffffff8815cdbd                CSN1ActionFunction_mm_1051650937
                0xffffffff8815ce05                CSN1ActionFunction_mm_1019069955
                0xffffffff8815ce4d                CSN1ActionFunction_mm_3648354277
                0xffffffff8815cead                CSN1ActionFunction_mm_1714678469
                0xffffffff8815cef1                CSN1ActionFunction_mm_1426301634
                0xffffffff8815cf39                CSN1ActionFunction_mm_816369318
                0xffffffff8815cf5d                CSN1ActionFunction_mm_305719935
                0xffffffff8815cf81                CSN1ActionFunction_mm_378923677
                0xffffffff8815cfc9                CSN1ActionFunction_mm_3473561638
                0xffffffff8815d029                CSN1ActionFunction_mm_2497997005
                0xffffffff8815d04d                CSN1ActionFunction_mm_1949137066
                0xffffffff8815d071                CSN1ActionFunction_mm_3106624490
                0xffffffff8815d0b9                CSN1ActionFunction_mm_1623356742
                0xffffffff8815d119                CSN1ActionFunction_mm_3112399967
                0xffffffff8815d131                CSN1ActionFunction_mm_2634098025
                0xffffffff8815d149                CSN1ActionFunction_mm_4035434035
                0xffffffff8815d161                CSN1ActionFunction_mm_3557132037
                0xffffffff8815d179                CSN1ActionFunction_mm_382868336
                0xffffffff8815d191                CSN1ActionFunction_mm_2069162026
                0xffffffff8815d1a9                CSN1ActionFunction_mm_2690191006
                0xffffffff8815d1c1                CSN1ActionFunction_mm_2228969384
                0xffffffff8815d1d9                CSN1ActionFunction_mm_3454008772
                0xffffffff8815d1f1                CSN1ActionFunction_mm_3915230450
                0xffffffff8815d209                CSN1ActionFunction_mm_392853104
                0xffffffff8815d219                CSN1ActionFunction_mm_3307903284
                0xffffffff8815d229                CSN1ActionFunction_mm_102177801
                0xffffffff8815d239                CSN1ActionFunction_mm_2109956447
                0xffffffff8815d249                CSN1ActionFunction_mm_370274160
                0xffffffff8815d291                CSN1ActionFunction_mm_3603340544
                0xffffffff8815d2d9                CSN1ActionFunction_mm_2490248654
                0xffffffff8815d33d                CSN1ActionFunction_mm_2940555322
                0xffffffff8815d36d                CSN1ActionFunction_mm_976167061
                0xffffffff8815d3a1                CSN1ActionFunction_mm_2519741375
                0xffffffff8815d3e5                CSN1ActionFunction_mm_3458707629
                0xffffffff8815d429                CSN1ActionFunction_mm_745283224
                0xffffffff8815d475                CSN1ActionFunction_mm_3047440023
                0xffffffff8815d4bd                CSN1ActionFunction_mm_3089161910
                0xffffffff8815d531                CSN1ActionFunction_mm_2687984519
                0xffffffff8815d5c1                CSN1ActionFunction_mm_452156319
                0xffffffff8815d651                CSN1ActionFunction_mm_1896178442
                0xffffffff8815d689                CSN1ActionFunction_mm_812881617
                0xffffffff8815d6a1                DECODE_c_P2_Rest_Octets
                0xffffffff8815d755                DECODE_c_P1_Rest_Octets
                0xffffffff8815d815                DECODE_c_Packet_Paging_Request
                0xffffffff8815d9bd                ENCODE_c_RxNpduNumList
                0xffffffff8815d9d5                DECODE_c_RxNpduNumList
                0xffffffff8815daa1                DECODE_c_InformationIE_t
                0xffffffff8815dde9                DECODE_c_GPRSTimerIE
                0xffffffff8815de1d                DECODE_c_IMEISVRequest
                0xffffffff8815de39                DECODE_c_CiphAlgoIE
                0xffffffff8815de55                ENCODE_c_RAUTypeIE
                0xffffffff8815de89                ENCODE_c_DRXParamIE
                0xffffffff8815dedd                ENCODE_c_AttachTypeIE
                0xffffffff8815df19                ENCODE_c_LocUpReqType
                0xffffffff8815df59                mmc_RecordUninstall
                0xffffffff8815df6d                mmc_AduioUninstall
                0xffffffff8815df85                mmc_SetCurrMode
                0xffffffff8815df91                mmc_GetCurrMode
                0xffffffff8815df9d                mmc_SendEvent
                0xffffffff8815dfc1                mmc_AudioInstall
                0xffffffff8815e0a1                mmc_EntryMode
                0xffffffff8815e0d9                MMCTask
                0xffffffff8815e175                mmc_ExitMode
                0xffffffff8815e1a9                codec_get_id
                0xffffffff8815e2cd                wav_codec_get_id
                0xffffffff8815e38d                adpcm_decode_init
                0xffffffff8815e649                bytestream_get_le16
                0xffffffff8815e661                bytestream_get_be16
                0xffffffff8815e679                bytestream_get_le32
                0xffffffff8815e699                bytestream_get_be32
                0xffffffff8815e6b9                adpcm_decode_frame
                0xffffffff8815fbbd                Audio_AmrGetID3
                0xffffffff8815fbc1                Audio_AmrGetPlayInformation
                0xffffffff8815fc0d                MMC_AmrDecClose
                0xffffffff8815fc71                Audio_AmrPause
                0xffffffff8815fcbd                Audio_AmrStop
                0xffffffff8815fcf5                MMC_AmrDecPcm
                0xffffffff8815fd11                MMC_AmrDecOpen
                0xffffffff8815ffe9                Audio_AmrResume
                0xffffffff88160065                Audio_AmrPlay
                0xffffffff8816010d                MMC_AmrPcmOutStart
                0xffffffff881601ad                MMC_AmrDecVoc
                0xffffffff8816038d                Audio_AmrUserMsg
                0xffffffff88160425                MMC_AmrEndPcmISR
                0xffffffff88160459                MMC_AmrHalfPcmISR
                0xffffffff8816048d                MMC_AmrVocISR
                0xffffffff88160505                Audio_MpegGetID3
                0xffffffff88160509                Audio_MpegGetPlayInformation
                0xffffffff8816054d                AudioEndPcmISR
                0xffffffff8816058d                AudioHalfPcmISR
                0xffffffff881605cd                MMC_AudioVocISR
                0xffffffff88160601                MMC_AUDIODecClose
                0xffffffff88160679                Audio_MpegPause
                0xffffffff881606e9                Audio_MpegStop
                0xffffffff88160a71                Audio_MpegPlay
                0xffffffff88160b21                Audio_MpegResume
                0xffffffff88160bb1                Audio_MpegUserMsg
                0xffffffff88161001                Audio_WavGetID3
                0xffffffff88161005                Audio_WavGetPlayInformation
                0xffffffff8816106d                MMC_AudioWavDecClose
                0xffffffff88161099                Audio_WavPause
                0xffffffff881610b1                Audio_WavStop
                0xffffffff881610c9                MMC_AudioWavEndPcmISR
                0xffffffff88161105                MMC_AudioWavHalfPcmISR
                0xffffffff88161129                MMC_AudioWavVocISR
                0xffffffff88161141                MMC_AudioWavFileReadFinish
                0xffffffff881611d1                MMC_AudioWavDecVoC
                0xffffffff881612c9                MMC_WavPcmOutStart
                0xffffffff88161419                MMC_AudioWavDecPcm
                0xffffffff881618c1                Audio_WavUserMsg
                0xffffffff8816195d                MMC_WavHeaderParse
                0xffffffff88161c89                MMC_AudioWavDecOpen
                0xffffffff88161fad                Audio_WavResume
                0xffffffff88162009                Audio_WavPlay
                0xffffffff88162075                mmc_InitCtnd
                0xffffffff88162079                mmc_HdleOtherPd_Cntd
                0xffffffff8816208d                mmc_AbortReq_Cntd
                0xffffffff881620b9                mmc_CmEstabInd_Cntd
                0xffffffff881620d5                mmc_RrReleaseInd_Cntd
                0xffffffff88162111                mmc_ApiStopReq_Cntd
                0xffffffff88162175                mmc_ReleaseReq_Cntd
                0xffffffff8816219d                mmc_EstabReq_Cntd
                0xffffffff8816224d                is_SSHdl_valid
                0xffffffff8816227d                get_sbc_ss_handle
                0xffffffff88162289                mmp_mmcReStartPrevProc_Dreg
                0xffffffff881622bd                mmp_T3302Exp_Dreg
                0xffffffff88162339                mmp_T3311Exp_Dreg
                0xffffffff881623c1                mmp_ApiAttachReq_Dreg
                0xffffffff8816244d                mmp_RrCellInd_Dreg
                0xffffffff88162501                mmp_InitDreg
                0xffffffff881625c5                mpeg_stream_error_check
                0xffffffff88162761                myl1_Fn
                0xffffffff881627b9                my_msg2str
                0xffffffff88162805                myl1_SendBurstDac
                0xffffffff88162951                myl1_SendBurst
                0xffffffff88162ae5                myl1_GetNBEqualisationResult
                0xffffffff88162c29                myl1_Idle
                0xffffffff88162db1                myl1_Synch
                0xffffffff88163125                myl1_Monit
                0xffffffff88163255                myl1_BandInit
                0xffffffff88163289                myl1_GetFOf
                0xffffffff88163399                start_nd6_timer
                0xffffffff8816342d                nd6_clear_destination_cache
                0xffffffff88163535                nd6_get_destination_mtu
                0xffffffff8816356d                nd6_reachability_hint
                0xffffffff8816369d                nd6_adjust_mld_membership
                0xffffffff8816372d                nd6_find_route
                0xffffffff88163881                nd6_cleanup_netif
                0xffffffff88163fd5                nd6_tmr
                0xffffffff881642cd                nd6_input
                0xffffffff88165161                lwip_getaddrinfo
                0xffffffff88165355                lwip_freeaddrinfo
                0xffffffff88165375                lwip_gethostbyname
                0xffffffff881654ad                netif_init
                0xffffffff881654b1                netif_set_link_down
                0xffffffff881654c9                netif_get_ip6_addr_match
                0xffffffff88165529                netif_get_by_index
                0xffffffff8816554d                netif_get_by_cid
                0xffffffff8816556d                netif_find
                0xffffffff881655d9                netif_set_default
                0xffffffff88165609                netif_set_netmask
                0xffffffff88165659                netif_set_gw
                0xffffffff881656f5                netif_ip6_addr_set_state
                0xffffffff881657f5                netif_ip6_addr_set_parts
                0xffffffff88165955                netif_ip6_addr_set
                0xffffffff88165995                netif_set_up
                0xffffffff881659bd                netif_set_ipaddr
                0xffffffff88165a75                netif_set_addr
                0xffffffff88165acd                netif_poll
                0xffffffff88165b6d                netif_loop_output
                0xffffffff88165c0d                netif_set_link_up
                0xffffffff88165c49                netif_set_down
                0xffffffff88165c7d                netif_remove
                0xffffffff88165d45                netif_add
                0xffffffff88165f2d                gsm_ipv6_setup_netif
                0xffffffff88166165                gsm_ipv6_act_rsp
                0xffffffff8816617d                BAL_ApsTaskTcpipProc
                0xffffffff88166481                getPppNetIf
                0xffffffff881664a1                ppp_ip_input
                0xffffffff88166509                ip4_src_route
                0xffffffff88166539                getGprsNetIf
                0xffffffff88166581                pbuf_clen
                0xffffffff881665b9                pbuf_skip
                0xffffffff881665cd                pbuf_try_get_at
                0xffffffff881665fd                pbuf_get_at
                0xffffffff8816661d                pbuf_put_at
                0xffffffff8816664d                pbuf_split_64k
                0xffffffff881666d5                pbuf_cat
                0xffffffff88166739                pbuf_ref
                0xffffffff88166769                pbuf_take
                0xffffffff88166829                pbuf_take_at
                0xffffffff8816689d                pbuf_copy_partial
                0xffffffff88166945                pbuf_copy
                0xffffffff88166a5d                pbuf_chain
                0xffffffff88166b4d                pbuf_header_force
                0xffffffff88166b65                pbuf_header
                0xffffffff88166b7d                pbuf_alloced_custom
                0xffffffff88166c2d                pbuf_free
                0xffffffff88166d15                pbuf_free_header
                0xffffffff88166d85                pbuf_realloc
                0xffffffff88166e41                pbuf_alloc_reference
                0xffffffff88166eb1                pbuf_alloc
                0xffffffff881670d1                ppp_init
                0xffffffff88167109                srand
                0xffffffff88167115                rand
                0xffffffff88167135                raw_bind_netif
                0xffffffff8816714d                raw_recv
                0xffffffff88167155                raw_netif_ip_addr_changed
                0xffffffff8816724d                raw_new
                0xffffffff881672a1                raw_new_ip_type
                0xffffffff881672c5                raw_remove
                0xffffffff881672fd                raw_sendto_if_src
                0xffffffff88167515                raw_connect
                0xffffffff881675d1                raw_bind
                0xffffffff88167675                raw_sendto
                0xffffffff88167825                raw_send
                0xffffffff88167839                raw_input
                0xffffffff881679b1                SrcLinear
                0xffffffff88167a5d                ResampleInit
                0xffffffff88167ad1                ResampleOneFrame
                0xffffffff88167b1d                rld_SendMsg
                0xffffffff88167b61                rld_PrepMsg
                0xffffffff88167be5                rld_RmvFirstPduQ
                0xffffffff88167c39                rld_BuildAndFwdSdu
                0xffffffff881681a9                rlu_StartTxFill
                0xffffffff881681d1                rlu_AckSdu
                0xffffffff88168275                rlu_AckPdu
                0xffffffff881682cd                rlu_RepeatPdu
                0xffffffff88168341                rluCond_TrsUlRelReq
                0xffffffff88168355                rluCond_TrsConnectCnf
                0xffffffff88168395                rluCond_TrsContinueTx
                0xffffffff88168415                rlu_UlFlowCtrl
                0xffffffff8816867d                rri_FreeRawGMa
                0xffffffff881686d5                rr_FindRfl
                0xffffffff88168715                rr_FindGMa
                0xffffffff88168745                DECODE_c_PReqRef
                0xffffffff881687a1                DECODE_c_Reject_struct
                0xffffffff88168895                DECODE_c_MacCtrlHder
                0xffffffff88168c11                DECODE_c_Pwr_Ctrl_Param_IE
                0xffffffff88168c91                DECODE_c_SFN_Desc_IE
                0xffffffff88168d15                DECODE_c_Single_Block_Alloc_struct
                0xffffffff88168ded                DECODE_c_Dynamic_Alloc_struct
                0xffffffff88169009                DECODE_c_PTiming_Advance_IE
                0xffffffff88169089                DECODE_c_PUplinkAckNack
                0xffffffff88169359                DECODE_c_Fixed_Alloc_struct
                0xffffffff881695d1                rr_SkipGMa
                0xffffffff881696c1                DECODE_c_IA_Rest_Octets
                0xffffffff88169da1                DECODE_c_Freq_Param_IE
                0xffffffff88169ff9                DECODE_c_PDownlink_Assignment_Msg
                0xffffffff8816a271                DECODE_c_PUplink_Assignment_Msg
                0xffffffff8816a3b5                rr_StoreFrqList2
                0xffffffff8816a455                rr_AllocRfl
                0xffffffff8816a4a9                rr_DecMa2
                0xffffffff8816a5a5                rr_DecMa
                0xffffffff8816a731                rr_AllocGMa
                0xffffffff8816a7a9                rr_StoreGMa2
                0xffffffff8816aac1                rr_CombineRfl2
                0xffffffff8816abed                rr_BuildGMa2
                0xffffffff8816ad91                rr_CombineRfl
                0xffffffff8816aeb9                rr_BuildGMa
                0xffffffff8816afe1                rr_StoreGMa
                0xffffffff8816b021                rr_ArfcnInFrqList
                0xffffffff8816b045                rr_IsFrqBandSupported
                0xffffffff8816b081                SimpMod
                0xffffffff8816b0a9                Node2Arfcn
                0xffffffff8816b14d                WalkWTree
                0xffffffff8816b1d5                DecodeBitMap0
                0xffffffff8816b289                rr_GiveDetailedBand
                0xffffffff8816b339                rr_GiveBand
                0xffffffff8816b361                rr_SameBand
                0xffffffff8816b38d                DispArfcnL
                0xffffffff8816b3fd                Dispu8
                0xffffffff8816b469                Dispu32
                0xffffffff8816b4d9                DecodeVarBitMap
                0xffffffff8816b5a5                DecodeRange
                0xffffffff8816b681                rr_DecFrqList
                0xffffffff8816b751                rr_SendMsg
                0xffffffff8816b885                rr_PrepMsg
                0xffffffff8816b909                Exchange
                0xffffffff8816b925                qSortHelp
                0xffffffff8816bab9                qSort
                0xffffffff8816bad1                rrdAccI_TrsReselGrant
                0xffffffff8816baf5                rrdAccI_ReleaseTbf
                0xffffffff8816bb51                rrdAccI_TrsAbortReq
                0xffffffff8816bbad                rrdAccI_TrsT3126Exp
                0xffffffff8816bc0d                rrdAccI_TrsImmAssRej
                0xffffffff8816bd21                rrdAccI_TrsImmAss
                0xffffffff8816be4d                rrdAccI_TrsRachInd
                0xffffffff8816bf1d                DECODE_BODY_c_IMM_ASS_REJ
                0xffffffff8816c08d                DECODE_c_IMM_ASS_REJ
                0xffffffff8816c0a5                DECODE_BODY_c_IMM_ASS_EXT
                0xffffffff8816c31d                DECODE_c_IMM_ASS_EXT
                0xffffffff8816c335                DECODE_BODY_c_IMM_ASS
                0xffffffff8816c599                DECODE_c_IMM_ASS
                0xffffffff8816c5b1                rrdCond_TrsL1ErrorInd
                0xffffffff8816c5e5                DECODE_BODY_c_PHY_INFO
                0xffffffff8816c629                DECODE_c_PHY_INFO
                0xffffffff8816c641                DECODE_BODY_c_CHN_REL
                0xffffffff8816c981                DECODE_c_CHN_REL
                0xffffffff8816c999                DECODE_BODY_c_CHN_MOD_MODIFY
                0xffffffff8816cb35                DECODE_c_CHN_MOD_MODIFY
                0xffffffff8816cb4d                DECODE_BODY_c_FRQ_RDF
                0xffffffff8816ccd5                DECODE_c_FRQ_RDF
                0xffffffff8816cced                DECODE_BODY_c_HOV_CMD
                0xffffffff8816dc55                DECODE_c_HOV_CMD
                0xffffffff8816dc6d                DECODE_BODY_c_CIP_MOD_CMD
                0xffffffff8816dcf5                DECODE_c_CIP_MOD_CMD
                0xffffffff8816dd0d                DECODE_BODY_c_ASS_CMD
                0xffffffff8816e885                DECODE_c_ASS_CMD
                0xffffffff8816e89d                rrd_AiTime2Rfn
                0xffffffff8816e939                CSN1ActionFunction_rrd_1847778841
                0xffffffff8816e955                CSN1ActionFunction_rrd_2444061083
                0xffffffff8816e971                CSN1ActionFunction_rrd_1252036399
                0xffffffff8816e98d                CSN1ActionFunction_rrd_1056704180
                0xffffffff8816e9a9                CSN1ActionFunction_rrd_3096087395
                0xffffffff8816e9c5                CSN1ActionFunction_rrd_2901754476
                0xffffffff8816e9e1                CSN1ActionFunction_rrd_1402391965
                0xffffffff8816e9fd                CSN1ActionFunction_rrd_61091139
                0xffffffff8816ea19                CSN1ActionFunction_rrd_444487554
                0xffffffff8816ea35                CSN1ActionFunction_rrd_2012783832
                0xffffffff8816ea51                CSN1ActionFunction_rrd_2289505114
                0xffffffff8816ea6d                CSN1ActionFunction_rrd_1400567278
                0xffffffff8816ea89                CSN1ActionFunction_rrd_3245584694
                0xffffffff8816eaa5                CSN1ActionFunction_rrd_3857833984
                0xffffffff8816eac1                CSN1ActionFunction_rrd_656833653
                0xffffffff8816eadd                CSN1ActionFunction_rrd_1997839531
                0xffffffff8816eaf9                CSN1ActionFunction_rrd_3093738256
                0xffffffff8816eb15                CSN1ActionFunction_rrd_2632245798
                0xffffffff8816eb31                CSN1ActionFunction_rrd_3140476587
                0xffffffff8816eb4d                CSN1ActionFunction_rrd_711981000
                0xffffffff8816eb69                CSN1ActionFunction_rrd_4049736060
                0xffffffff8816eb85                CSN1ActionFunction_rrd_4062936263
                0xffffffff8816eba1                CSN1ActionFunction_rrd_1667978660
                0xffffffff8816ebbd                CSN1ActionFunction_rrd_1206453394
                0xffffffff8816ebd9                CSN1ActionFunction_rrd_250455806
                0xffffffff8816ebf5                CSN1ActionFunction_rrd_3588243530
                0xffffffff8816ec11                CSN1ActionFunction_rrd_2671884270
                0xffffffff8816ec2d                CSN1ActionFunction_rrd_3150178008
                0xffffffff8816ec49                CSN1ActionFunction_rrd_2678951837
                0xffffffff8816ec65                CSN1ActionFunction_rrd_2537534189
                0xffffffff8816ec81                CSN1ActionFunction_rrd_565487363
                0xffffffff8816ec9d                CSN1ActionFunction_rrd_1756366191
                0xffffffff8816ecb9                CSN1ActionFunction_rrd_400286796
                0xffffffff8816ecd5                CSN1ActionFunction_rrd_87488053
                0xffffffff8816ecf1                CSN1ActionFunction_rrd_389536831
                0xffffffff8816ed0d                CSN1ActionFunction_rrd_1580432979
                0xffffffff8816ed29                CSN1ActionFunction_rrd_861517178
                0xffffffff8816ed45                CSN1ActionFunction_rrd_2058432357
                0xffffffff8816ed61                CSN1ActionFunction_rrd_2235472103
                0xffffffff8816ed7d                CSN1ActionFunction_rrd_2713504209
                0xffffffff8816ed99                CSN1ActionFunction_rrd_3728412801
                0xffffffff8816edb5                CSN1ActionFunction_rrd_3015566299
                0xffffffff8816edd1                CSN1ActionFunction_rrd_4199905732
                0xffffffff8816eded                CSN1ActionFunction_rrd_4206444983
                0xffffffff8816ee09                CSN1ActionFunction_rrd_4230716097
                0xffffffff8816ee25                CSN1ActionFunction_rrd_3628462980
                0xffffffff8816ee41                CSN1ActionFunction_rrd_3426368139
                0xffffffff8816ee5d                CSN1ActionFunction_rrd_4240941746
                0xffffffff8816ee79                CSN1ActionFunction_rrd_3904400317
                0xffffffff8816ee95                CSN1ActionFunction_rrd_3400065533
                0xffffffff8816eeb1                CSN1ActionFunction_rrd_3738642674
                0xffffffff8816eecd                CSN1ActionFunction_rrd_2804814503
                0xffffffff8816eee9                CSN1ActionFunction_rrd_2209104785
                0xffffffff8816ef05                CSN1ActionFunction_rrd_3995775179
                0xffffffff8816ef21                CSN1ActionFunction_rrd_690395763
                0xffffffff8816ef3d                CSN1ActionFunction_rrd_1356832806
                0xffffffff8816ef59                CSN1ActionFunction_rrd_1151363369
                0xffffffff8816ef75                CSN1ActionFunction_rrd_1612855327
                0xffffffff8816ef91                CSN1ActionFunction_rrd_1952313616
                0xffffffff8816efad                CSN1ActionFunction_rrd_3601411569
                0xffffffff8816efc9                CSN1ActionFunction_rrd_1957808483
                0xffffffff8816efe5                CSN1ActionFunction_rrd_1035299599
                0xffffffff8816f001                CSN1ActionFunction_rrd_1345558613
                0xffffffff8816f01d                CSN1ActionFunction_rrd_228903749
                0xffffffff8816f039                CSN1ActionFunction_rrd_423049785
                0xffffffff8816f055                CSN1ActionFunction_rrd_2679271794
                0xffffffff8816f06d                CSN1ActionFunction_rrd_3140493380
                0xffffffff8816f085                CSN1ActionFunction_rrd_1614661360
                0xffffffff8816f09d                CSN1ActionFunction_rrd_341921643
                0xffffffff8816f0b5                CSN1ActionFunction_rrd_3958307049
                0xffffffff8816f0cd                CSN1ActionFunction_rrd_820190813
                0xffffffff8816f0e5                CSN1ActionFunction_rrd_2465987279
                0xffffffff8816f0fd                CSN1ActionFunction_rrd_3061427193
                0xffffffff8816f115                CSN1ActionFunction_rrd_611381025
                0xffffffff8816f12d                CSN1ActionFunction_rrd_3690944675
                0xffffffff8816f145                CSN1ActionFunction_rrd_4286384533
                0xffffffff8816f15d                CSN1ActionFunction_rrd_1240865915
                0xffffffff8816f175                CSN1ActionFunction_rrd_1836338509
                0xffffffff8816f18d                CSN1ActionFunction_rrd_1226449928
                0xffffffff8816f1a5                CSN1ActionFunction_rrd_1838708030
                0xffffffff8816f1bd                CSN1ActionFunction_rrd_2045230129
                0xffffffff8816f1d5                CSN1ActionFunction_rrd_1566960903
                0xffffffff8816f1ed                CSN1ActionFunction_rrd_15908375
                0xffffffff8816f205                CSN1ActionFunction_rrd_1246972339
                0xffffffff8816f21d                CSN1ActionFunction_rrd_1859197061
                0xffffffff8816f235                CSN1ActionFunction_rrd_1849499894
                0xffffffff8816f24d                CSN1ActionFunction_rrd_1254060480
                0xffffffff8816f265                CSN1ActionFunction_rrd_62641068
                0xffffffff8816f27d                CSN1ActionFunction_rrd_2776807507
                0xffffffff8816f295                CSN1ActionFunction_rrd_3355724553
                0xffffffff8816f2ad                CSN1ActionFunction_rrd_3968211519
                0xffffffff8816f2c5                CSN1ActionFunction_rrd_2123325159
                0xffffffff8816f2dd                CSN1ActionFunction_rrd_1510805457
                0xffffffff8816f2f5                CSN1ActionFunction_rrd_931921035
                0xffffffff8816f30d                CSN1ActionFunction_rrd_319401405
                0xffffffff8816f325                CSN1ActionFunction_rrd_2164320613
                0xffffffff8816f33d                CSN1ActionFunction_rrd_3672725872
                0xffffffff8816f355                CSN1ActionFunction_rrd_4268427334
                0xffffffff8816f36d                CSN1ActionFunction_rrd_3500588652
                0xffffffff8816f3b1                CSN1ActionFunction_rrd_528587181
                0xffffffff8816f3f5                CSN1ActionFunction_rrd_2006853871
                0xffffffff8816f43d                CSN1ActionFunction_rrd_1379398860
                0xffffffff8816f481                CSN1ActionFunction_rrd_3111607087
                0xffffffff8816f4c9                CSN1ActionFunction_rrd_3746986023
                0xffffffff8816f511                CSN1ActionFunction_rrd_2804258136
                0xffffffff8816f559                CSN1ActionFunction_rrd_4261741148
                0xffffffff8816f5a1                CSN1ActionFunction_rrd_371009464
                0xffffffff8816f5e9                CSN1ActionFunction_rrd_3860702602
                0xffffffff8816f60d                CSN1ActionFunction_rrd_1816175321
                0xffffffff8816f631                CSN1ActionFunction_rrd_3528460552
                0xffffffff8816f679                CSN1ActionFunction_rrd_3251358857
                0xffffffff8816f6c1                CSN1ActionFunction_rrd_875678573
                0xffffffff8816f709                CSN1ActionFunction_rrd_758620798
                0xffffffff8816f751                CSN1ActionFunction_rrd_312719954
                0xffffffff8816f799                CSN1ActionFunction_rrd_3466817332
                0xffffffff8816f7e1                CSN1ActionFunction_rrd_3504385127
                0xffffffff8816f829                CSN1ActionFunction_rrd_1176402565
                0xffffffff8816f871                CSN1ActionFunction_rrd_2329652229
                0xffffffff8816f8b9                CSN1ActionFunction_rrd_3401615348
                0xffffffff8816f8dd                CSN1ActionFunction_rrd_1212702238
                0xffffffff8816f901                CSN1ActionFunction_rrd_2032260957
                0xffffffff8816f949                CSN1ActionFunction_rrd_3068548146
                0xffffffff8816f991                CSN1ActionFunction_rrd_3132594304
                0xffffffff8816f9d9                CSN1ActionFunction_rrd_4007706475
                0xffffffff8816fa21                CSN1ActionFunction_rrd_2819297462
                0xffffffff8816fa7d                CSN1ActionFunction_rrd_3056860181
                0xffffffff8816fac5                CSN1ActionFunction_rrd_2994332061
                0xffffffff8816fb0d                CSN1ActionFunction_rrd_2412969979
                0xffffffff8816fb55                CSN1ActionFunction_rrd_3486522109
                0xffffffff8816fb9d                CSN1ActionFunction_rrd_2489923055
                0xffffffff8816fbe5                CSN1ActionFunction_rrd_1223096184
                0xffffffff8816fc2d                CSN1ActionFunction_rrd_367611342
                0xffffffff8816fc75                CSN1ActionFunction_rrd_2720851806
                0xffffffff8816fcd1                CSN1ActionFunction_rrd_2545748283
                0xffffffff8816fd19                CSN1ActionFunction_rrd_2127239902
                0xffffffff8816fd61                CSN1ActionFunction_rrd_378371991
                0xffffffff8816fda9                CSN1ActionFunction_rrd_162940200
                0xffffffff8816fdf1                CSN1ActionFunction_rrd_2860452829
                0xffffffff8816fe39                CSN1ActionFunction_rrd_2612609894
                0xffffffff8816fe81                CSN1ActionFunction_rrd_1958843828
                0xffffffff8816fea5                CSN1ActionFunction_rrd_2065487861
                0xffffffff8816fef1                CSN1ActionFunction_rrd_3831644075
                0xffffffff8816ff39                CSN1ActionFunction_rrd_1993282762
                0xffffffff8816ff85                CSN1ActionFunction_rrd_2131255502
                0xffffffff8816ffcd                CSN1ActionFunction_rrd_2042348747
                0xffffffff8816fff1                CSN1ActionFunction_rrd_2342353946
                0xffffffff88170039                CSN1ActionFunction_rrd_3295071691
                0xffffffff88170081                CSN1ActionFunction_rrd_2855376912
                0xffffffff881700c9                CSN1ActionFunction_rrd_3846238738
                0xffffffff88170111                CSN1ActionFunction_rrd_2770170285
                0xffffffff88170159                CSN1ActionFunction_rrd_1354286267
                0xffffffff881701d1                CSN1ActionFunction_rrd_1676974286
                0xffffffff88170219                CSN1ActionFunction_rrd_2277256880
                0xffffffff88170261                CSN1ActionFunction_rrd_4026158073
                0xffffffff881702a9                CSN1ActionFunction_rrd_127820280
                0xffffffff881702f1                CSN1ActionFunction_rrd_3289763382
                0xffffffff88170339                CSN1ActionFunction_rrd_1336578230
                0xffffffff88170381                CSN1ActionFunction_rrd_1246453319
                0xffffffff881703c9                CSN1ActionFunction_rrd_3521060345
                0xffffffff88170411                CSN1ActionFunction_rrd_1067947333
                0xffffffff88170459                CSN1ActionFunction_rrd_2196599466
                0xffffffff881704b9                CSN1ActionFunction_rrd_500936763
                0xffffffff88170519                CSN1ActionFunction_rrd_206623146
                0xffffffff88170561                CSN1ActionFunction_rrd_3954002228
                0xffffffff881705a9                CSN1ActionFunction_rrd_3813075944
                0xffffffff881705f1                CSN1ActionFunction_rrd_4236104023
                0xffffffff88170639                CSN1ActionFunction_rrd_2430886602
                0xffffffff88170681                CSN1ActionFunction_rrd_3943667231
                0xffffffff881706c9                CSN1ActionFunction_rrd_1023676628
                0xffffffff88170711                CSN1ActionFunction_rrd_3179449490
                0xffffffff88170759                CSN1ActionFunction_rrd_701879132
                0xffffffff881707a1                CSN1ActionFunction_rrd_921627107
                0xffffffff881707e9                CSN1ActionFunction_rrd_305719935
                0xffffffff8817080d                CSN1ActionFunction_rrd_2695541923
                0xffffffff88170855                CSN1ActionFunction_rrd_869243321
                0xffffffff8817089d                CSN1ActionFunction_rrd_818107967
                0xffffffff881708e5                CSN1ActionFunction_rrd_1135923121
                0xffffffff8817092d                CSN1ActionFunction_rrd_802502716
                0xffffffff8817098d                CSN1ActionFunction_rrd_3268455810
                0xffffffff881709ed                CSN1ActionFunction_rrd_1799979658
                0xffffffff88170a35                CSN1ActionFunction_rrd_4130083733
                0xffffffff88170a7d                CSN1ActionFunction_rrd_3768330895
                0xffffffff88170ac5                CSN1ActionFunction_rrd_1512249916
                0xffffffff88170b0d                CSN1ActionFunction_rrd_816369318
                0xffffffff88170b31                CSN1ActionFunction_rrd_3324313283
                0xffffffff88170b79                CSN1ActionFunction_rrd_2990339883
                0xffffffff88170bc1                CSN1ActionFunction_rrd_3032010578
                0xffffffff88170be5                CSN1ActionFunction_rrd_1031905020
                0xffffffff88170c2d                CSN1ActionFunction_rrd_4006116147
                0xffffffff88170c51                CSN1ActionFunction_rrd_418297134
                0xffffffff88170c99                CSN1ActionFunction_rrd_1181260475
                0xffffffff88170cbd                CSN1ActionFunction_rrd_2224366378
                0xffffffff88170d05                CSN1ActionFunction_rrd_899805472
                0xffffffff88170d4d                CSN1ActionFunction_rrd_3303031633
                0xffffffff88170d71                CSN1ActionFunction_rrd_2257836614
                0xffffffff88170db9                CSN1ActionFunction_rrd_2577981689
                0xffffffff88170e01                CSN1ActionFunction_rrd_2354150077
                0xffffffff88170e25                CSN1ActionFunction_rrd_940626461
                0xffffffff88170e49                CSN1ActionFunction_rrd_1843080495
                0xffffffff88170e69                CSN1ActionFunction_rrd_3615734445
                0xffffffff88170e89                CSN1ActionFunction_rrd_2940555322
                0xffffffff88170eb9                CSN1ActionFunction_rrd_3047440023
                0xffffffff88170f01                CSN1ActionFunction_rrd_745283224
                0xffffffff88170f4d                CSN1ActionFunction_rrd_96581344
                0xffffffff88170f5d                CSN1ActionFunction_rrd_3105487277
                0xffffffff88170f6d                CSN1ActionFunction_rrd_3173535371
                0xffffffff88170f7d                CSN1ActionFunction_rrd_2160226336
                0xffffffff88170f8d                CSN1ActionFunction_rrd_14819909
                0xffffffff88170f9d                CSN1ActionFunction_rrd_4050602733
                0xffffffff88170fad                CSN1ActionFunction_rrd_1285363278
                0xffffffff88170fbd                CSN1ActionFunction_rrd_1184185014
                0xffffffff88170fcd                CSN1ActionFunction_rrd_3307903284
                0xffffffff88170fdd                CSN1ActionFunction_rrd_3365294586
                0xffffffff88171011                CSN1ActionFunction_rrd_1410763817
                0xffffffff88171045                CSN1ActionFunction_rrd_4004516662
                0xffffffff88171079                CSN1ActionFunction_rrd_1889926130
                0xffffffff881710b5                CSN1ActionFunction_rrd_3360651600
                0xffffffff881710f1                CSN1ActionFunction_rrd_2287117600
                0xffffffff8817112d                CSN1ActionFunction_rrd_341599030
                0xffffffff881711a9                CSN1ActionFunction_rrd_2301433874
                0xffffffff88171225                CSN1ActionFunction_rrd_370274160
                0xffffffff8817126d                CSN1ActionFunction_rrd_3603340544
                0xffffffff881712b5                CSN1ActionFunction_rrd_2490248654
                0xffffffff88171319                DECODE_c_PTBF_Release_Msg
                0xffffffff881713e1                DECODE_c_PPDCH_Release_Msg
                0xffffffff88171465                DECODE_c_Packet_Channel_Description
                0xffffffff8817159d                DECODE_c_IAX_Rest_Octets
                0xffffffff88171641                DECODE_c_PTimeslot_Reconfigure_Msg
                0xffffffff88171df1                DECODE_c_PPwrCtrl_TA_Msg
                0xffffffff88172021                DECODE_c_TFrqList
                0xffffffff8817218d                DECODE_c_TSynchInd
                0xffffffff881721e1                DECODE_c_TStartingTime
                0xffffffff88172225                DECODE_c_TPowerCommandAccType
                0xffffffff88172279                DECODE_c_TPowerCommand
                0xffffffff881722b5                DECODE_c_TDedicatedModeOrTbf
                0xffffffff88172311                DECODE_c_TCipherModeSetting
                0xffffffff8817234d                DECODE_c_TChDesc
                0xffffffff881723e5                DECODE_c_TCellDesc
                0xffffffff88172429                DECODE_c_TSkip
                0xffffffff88172485                DECODE_c_TReqRef
                0xffffffff881724d5                DECODE_c_TFrqChnSeq
                0xffffffff88172525                rri_SendListAbort
                0xffffffff88172595                rri_SendCellList
                0xffffffff88172795                rri_Send0PlmnList
                0xffffffff881727f1                rri_SendAPlmnList
                0xffffffff88172941                rri_SendApiPsReg
                0xffffffff881729f9                rri_SendApiReg
                0xffffffff88172b0d                rri_GiveIdxBa
                0xffffffff88172b35                rri_GiveCellFromBa
                0xffffffff88172b79                rri_List2BitMap
                0xffffffff88172ba1                rri_BitMap2BaList
                0xffffffff88172c4d                rri_MarkBsicAllowed
                0xffffffff88172ced                rri_DispFullSynchQ
                0xffffffff88172d41                rri_DispGsmNCellL
                0xffffffff88172dd5                rri_DispBa
                0xffffffff88172e45                rri_NCellParElemToGsmNCellL
                0xffffffff88172e95                rri_FreeGsmNCellL
                0xffffffff88172ef5                rri_GsmNCellNotRec
                0xffffffff88172f19                rri_BuildSi2QGsmNCellL
                0xffffffff88173055                rri_ResetFreqList
                0xffffffff88173159                rri_NCellParElemToBaL
                0xffffffff88173269                rri_BuildOrderGsmNCellL
                0xffffffff8817356d                rri_GiveIdxNCell
                0xffffffff881735d1                rri_SendBaCmplte
                0xffffffff8817360d                rri_CheckBaCmplte
                0xffffffff88173635                rri_CompareBa
                0xffffffff881736f1                rri_UpdateBcchRead
                0xffffffff88173781                rri_BuildPsi3GsmNCellL
                0xffffffff881739c5                rri_ComputeBa
                0xffffffff88173b6d                rri_BaNotRec
                0xffffffff88173bd5                rri_RmvNeedTcInfo
                0xffffffff88173bf5                rri_WhichSi
                0xffffffff88173c65                rri_SetNeedTcInfo
                0xffffffff88173e51                rri_ResetReqTc
                0xffffffff88173e81                rri_ResetBaRcvTcInfo
                0xffffffff88173f69                rri_AddNeedTcInfo
                0xffffffff88174151                rri_SetNewNeedNotRcvReq
                0xffffffff8817420d                rri_SendL1BcchCfg
                0xffffffff88174379                rri_RefreshBcchCfg
                0xffffffff88174431                rri_ResetNeedTcInfo
                0xffffffff8817446d                rri_PrepCompleteBcch
                0xffffffff881744b1                rri_Switch2Bcch
                0xffffffff88174535                rri_StopTc
                0xffffffff881745dd                rri_RstBcchSch
                0xffffffff88174611                rri_ResetReqInfo
                0xffffffff88174645                rri_SetSiNotFresh
                0xffffffff88174671                rri_CleanTmpCbchCfg
                0xffffffff881746c5                rri_CleanCbchCfg
                0xffffffff88174701                rri_CleanRfl
                0xffffffff88174749                rri_CleanGMa
                0xffffffff881747a5                rri_CleanGMaArray
                0xffffffff881747d1                rri_CleanGprsServ
                0xffffffff88174881                rri_FreeServP
                0xffffffff881748c1                rri_FreeCell
                0xffffffff88174919                rri_CleanGprsCell
                0xffffffff88174985                rri_CellParInit
                0xffffffff88174999                rri_ReselParInit
                0xffffffff881749f1                rri_ServParInit
                0xffffffff88174b21                rri_NewCell
                0xffffffff88174bad                rri_ReselParCopy
                0xffffffff88174bbd                rri_GiveIdxMon
                0xffffffff88174be1                rri_CmpMonitorReq
                0xffffffff88174c19                rri_SavMonitorReq
                0xffffffff88174c3d                rri_MonCmp
                0xffffffff88174c59                rri_DispMonL
                0xffffffff88174ccd                rri_UpdateSynch
                0xffffffff88174d41                rri_SendPMeasCtrl
                0xffffffff88174dc5                rri_SendNcMonReq
                0xffffffff88174e19                rri_Serv2Neigh
                0xffffffff88174f25                rri_SynchPurge
                0xffffffff88174f39                rri_Neigh2Serv
                0xffffffff8817502d                rri_ResetMonStatus
                0xffffffff881750a9                rri_NeighPending
                0xffffffff881750ed                rri_Synchronized
                0xffffffff88175149                rri_NewSynch
                0xffffffff8817527d                rri_StopSynch
                0xffffffff88175311                rri_RemoveBaElem
                0xffffffff881753e9                rri_BuildMonList
                0xffffffff8817559d                rri_BuildExtMonList
                0xffffffff8817562d                rri_DelSynchQ
                0xffffffff88175651                rri_DispSynchQ
                0xffffffff8817570d                rrp_EncodePCCFail
                0xffffffff8817576d                rrp_EncodePResReq
                0xffffffff881759a1                cos
                0xffffffff88175a49                sin
                0xffffffff88175af1                SMS_DM_GetRange
                0xffffffff88175b09                netconn_err
                0xffffffff88175ba9                lwip_fcntl
                0xffffffff88175c71                lwip_ioctl
                0xffffffff88175d51                lwip_setsockopt
                0xffffffff88175e15                lwip_getsockopt
                0xffffffff88175fa5                lwip_netconn_is_err_msg
                0xffffffff8817659d                lwip_netconn_do_getaddr
                0xffffffff88176ded                lwip_select
                0xffffffff88177135                netbuf_ref
                0xffffffff88177195                netbuf_free
                0xffffffff881771c5                netbuf_delete
                0xffffffff88177225                netconn_gethostbyname_ext
                0xffffffff88177325                netconn_gethostbyname_addrtype
                0xffffffff88177361                netconn_send
                0xffffffff88177401                netconn_tcp_recvd
                0xffffffff88177459                netconn_listen_with_backlog
                0xffffffff881774a9                lwip_listen
                0xffffffff88177535                netconn_disconnect
                0xffffffff88177585                netconn_connect
                0xffffffff881775f9                lwip_connect
                0xffffffff881777bd                netconn_bind
                0xffffffff88177891                lwip_bind
                0xffffffff88177a3d                netconn_getaddr
                0xffffffff88177c8d                lwip_getsockname
                0xffffffff88177c9d                lwip_getpeername
                0xffffffff88177d0d                netconn_shutdown
                0xffffffff88177d35                lwip_shutdown
                0xffffffff88177db9                netconn_write_vectors_partly
                0xffffffff88177edd                lwip_sendmsg
                0xffffffff881780d1                lwip_writev
                0xffffffff881780f5                netconn_write_partly
                0xffffffff88178115                lwip_send
                0xffffffff881781d5                lwip_write
                0xffffffff881781e5                lwip_sendto
                0xffffffff881785dd                netconn_recv_tcp_pbuf_flags
                0xffffffff881787dd                netconn_recv_udp_raw_netbuf_flags
                0xffffffff88178a75                lwip_recvmsg
                0xffffffff88178be1                netconn_accept
                0xffffffff88178d2d                lwip_netconn_do_gethostbyname
                0xffffffff88178d6d                lwip_netconn_do_recv
                0xffffffff88179649                lwip_netconn_do_write
                0xffffffff881796bd                lwip_netconn_do_send
                0xffffffff88179771                lwip_netconn_do_listen
                0xffffffff881798b1                netconn_alloc
                0xffffffff88179959                netconn_new_with_proto_and_callback
                0xffffffff88179a29                lwip_netconn_do_disconnect
                0xffffffff88179a65                lwip_netconn_do_connect
                0xffffffff88179b2d                lwip_netconn_do_bind
                0xffffffff88179b89                netconn_free
                0xffffffff88179bf1                netconn_delete
                0xffffffff88179c45                lwip_socket
                0xffffffff88179d55                lwip_close
                0xffffffff88179dd1                lwip_accept
                0xffffffff8817a135                lwip_netconn_do_close
                0xffffffff8817a1a9                lwip_netconn_do_delconn
                0xffffffff8817a3cd                lwip_netconn_do_newconn
                0xffffffff8817a6c5                lwip_recvfrom
                0xffffffff8817a895                lwip_recv
                0xffffffff8817a8a9                lwip_read
                0xffffffff8817a8c1                SUL_GsmBcdToAscii
                0xffffffff8817a961                SUL_gsmbcd2asciiEx
                0xffffffff8817a9bd                SUL_hex2ascii
                0xffffffff8817aa0d                SUL_AsciiToGsmBcd
                0xffffffff8817aaad                SUL_Encode7Bit
                0xffffffff8817ab31                SUL_Decode7Bit
                0xffffffff8817ab99                mmc_MemInit
                0xffffffff8817aba9                mmc_MemFreeAll
                0xffffffff8817abe9                mmc_MemMalloc
                0xffffffff8817ac4d                tcp_bind_netif
                0xffffffff8817ac65                tcp_update_rcv_ann_wnd
                0xffffffff8817ad05                tcp_setprio
                0xffffffff8817ad0d                tcp_arg
                0xffffffff8817ad15                tcp_accept
                0xffffffff8817ad25                tcp_next_iss
                0xffffffff8817ad3d                tcp_debug_state_str
                0xffffffff8817ad4d                tcp_tcp_get_tcp_addrinfo
                0xffffffff8817ad99                tcp_pcbs_sane
                0xffffffff8817ae0d                tcp_poll
                0xffffffff8817ae41                tcp_err
                0xffffffff8817ae71                tcp_sent
                0xffffffff8817aea1                tcp_recv
                0xffffffff8817aed1                tcp_debug_print_flags
                0xffffffff8817af7d                tcp_debug_print_state
                0xffffffff8817af9d                tcp_debug_print_pcbs
                0xffffffff8817b04d                tcp_debug_print
                0xffffffff8817b22d                tcp_eff_send_mss_netif
                0xffffffff8817b295                tcp_recved
                0xffffffff8817b325                tcp_seg_copy
                0xffffffff8817b355                tcp_seg_free
                0xffffffff8817b37d                tcp_segs_free
                0xffffffff8817b399                tcp_pcb_purge
                0xffffffff8817b455                tcp_pcb_remove
                0xffffffff8817b5ad                tcp_slowtmr
                0xffffffff8817baed                tcp_abandon
                0xffffffff8817bcd1                tcp_abort
                0xffffffff8817bd6d                tcp_netif_ip_addr_changed
                0xffffffff8817be79                tcp_alloc
                0xffffffff8817c005                tcp_new_ip_type
                0xffffffff8817c039                tcp_connect
                0xffffffff8817c2d5                tcp_listen_with_backlog_and_err
                0xffffffff8817c465                tcp_bind
                0xffffffff8817c8e5                tcp_shutdown
                0xffffffff8817c94d                tcp_close
                0xffffffff8817c989                tcp_recv_null
                0xffffffff8817c9c1                tcp_process_refused_data
                0xffffffff8817caa1                tcp_fasttmr
                0xffffffff8817cb65                tcp_tmr
                0xffffffff8817cb95                tcp_init
                0xffffffff8817cbfd                tcp_trigger_input_pcb_close
                0xffffffff8817e4b1                tcp_input
                0xffffffff8817f131                tcp_rexmit
                0xffffffff8817f1c9                tcp_rexmit_fast
                0xffffffff8817f341                tcp_rst
                0xffffffff8817f5a9                tcp_enqueue_flags
                0xffffffff8817f7ad                tcp_send_fin
                0xffffffff8817f821                tcp_write
                0xffffffff8817fffd                tcp_send_empty_ack
                0xffffffff881800e9                tcp_output
                0xffffffff881807b1                tcp_rexmit_rto
                0xffffffff88180861                tcp_keepalive
                0xffffffff88180a11                tcp_zero_window_probe
                0xffffffff88180c8d                TS_GetSIMFileName
                0xffffffff88181709                TS_GetEventName
                0xffffffff88181fbd                udp_bind_netif
                0xffffffff88181fd5                udp_disconnect
                0xffffffff88182045                udp_recv
                0xffffffff8818204d                udp_debug_print
                0xffffffff881820d9                udp_netif_ip_addr_changed
                0xffffffff881821d1                udp_new
                0xffffffff88182201                udp_new_ip_type
                0xffffffff88182221                udp_remove
                0xffffffff88182259                udp_bind
                0xffffffff88182591                udp_connect
                0xffffffff88182745                udp_sendto_if_src
                0xffffffff88182985                udp_sendto_if
                0xffffffff88182a2d                udp_sendto
                0xffffffff88182ba5                udp_send
                0xffffffff88182bcd                udp_input
                0xffffffff881831b5                udp_init
                0xffffffff881831d9                vpp_AudioMP3DecSetReloadFlag
                0xffffffff881831e5                vpp_AudioMP3DecSetEqParam
                0xffffffff88183249                vpp_AudioMP3DecSetDrcModeParam
                0xffffffff881832f9                vpp_AudioJpegDecStatus
                0xffffffff8818331d                vpp_AudioJpegDecScheduleOneFrame
                0xffffffff88183455                vpp_AudioJpegDecClose
                0xffffffff88183479                vpp_AudioJpegDecOpen
                0xffffffff88183661                vpp_AudioJpegEncStatus
                0xffffffff88183685                vpp_AudioJpegEncScheduleOneFrame
                0xffffffff88183711                vpp_AudioJpegEncClose
                0xffffffff88183721                vpp_AudioJpegEncOpen
                0xffffffff881839e1                sndrec_endHandler
                0xffffffff881839f9                sndrec_halfHandler
                0xffffffff88183a11                sndrec_DrvHandler
                0xffffffff88183a49                Mmc_MicStartRecord
                0xffffffff88183b31                sndRec_writeWaveHeader
                0xffffffff88183be1                Mmc_sndRecStop
                0xffffffff88183d61                sndRec_msgHandle
                0xffffffff88183f59                Mmc_sndRecStart
                0xffffffff881840cd                get_coeffs_skip
                0xffffffff88184101                get_coeffs_peakingEQ
                0xffffffff88184369                get_coeffs_HPF
                0xffffffff88184599                get_coeffs_LPF
                0xffffffff881847c1                get_coeffs_highShelf
                0xffffffff88184b61                get_coeffs_lowShelf
                0xffffffff88184f69                get_coeffs_for_one_band
                0xffffffff88185011                calc_coeffs_for_voc
                0xffffffff881851c9                CALL_Status
                0xffffffff8818530d                CC_AsyncEventProcess
                0xffffffff881856e5                CALL_DTMF
                0xffffffff881857a1                CALL_Answer
                0xffffffff881857e5                CALL_HangUp
                0xffffffff8818580d                CALL_Dial
                0xffffffff88185905                GetCharset
                0xffffffff88185915                GSM_7BitTo8Bit
                0xffffffff88185929                GSM_8BitTo7Bit
                0xffffffff8818593d                LocalLanguage2UnicodeBigEndian
                0xffffffff88185989                LocalLanguage2Unicode
                0xffffffff881859a1                Unicode2LocalLanguageBigEndian
                0xffffffff881859ed                Unicode2LocalLanguage
                0xffffffff88185a05                API_FS_SetUseOldVersion
                0xffffffff88185a11                UnicodeToUCS2Encoding
                0xffffffff88185a3d                AsciiToUnicodeString
                0xffffffff88185ab1                API_FS_RealPath
                0xffffffff88185ac1                API_FS_CloseDir
                0xffffffff88185ad1                API_FS_RewindDir
                0xffffffff88185ae1                API_FS_SeekDir
                0xffffffff88185af1                API_FS_TellDir
                0xffffffff88185b01                API_FS_ReadDir_r
                0xffffffff88185b11                API_FS_OpenDir
                0xffffffff88185b21                API_FS_ReadDir
                0xffffffff88185b31                API_FS_GetFSInfo
                0xffffffff88185bfd                API_FS_Mkdir
                0xffffffff88185c21                FS_TCardInit
                0xffffffff88185db9                API_FS_Rmdir
                0xffffffff88185ddd                API_FS_ChangeDir
                0xffffffff88185e01                API_FS_GetCurDir
                0xffffffff88185e31                API_FS_GetDirSize
                0xffffffff88185e61                API_FS_GetFileSize
                0xffffffff88185e89                API_FS_GetFileName
                0xffffffff88185ead                API_FS_Rename
                0xffffffff88185ed1                API_FS_IsEndOfFile
                0xffffffff88185ef5                API_FS_Seek
                0xffffffff88185f25                API_FS_Delete
                0xffffffff88185f49                API_FS_Create
                0xffffffff88185f99                API_FS_Flush
                0xffffffff88185fbd                API_FS_Write
                0xffffffff88185fe1                API_FS_Read
                0xffffffff88186005                API_FS_Close
                0xffffffff88186029                API_FS_Open
                0xffffffff88186079                Battery_AsyncEventProcess
                0xffffffff881860fd                PM_Restart
                0xffffffff88186129                PM_ShutDown
                0xffffffff88186155                PM_Voltage
                0xffffffff88186165                PM_SetSysMinFreq
                0xffffffff88186179                PM_SleepMode
                0xffffffff881861a1                PM_PowerEnable
                0xffffffff881861cd                Network_GetPdpContextId
                0xffffffff881861d9                Network_SetStatusChangedCallback
                0xffffffff881861e5                CheckPdpContext
                0xffffffff881861f1                Network_GetAvailableOperatorReq
                0xffffffff88186209                Network_GetOperatorIdByName
                0xffffffff88186221                Network_GetOperatorNameById
                0xffffffff88186235                Network_GetOperatorInfo
                0xffffffff8818624d                Network_GetCurrentOperator
                0xffffffff88186261                Network_SetFrequencyBand
                0xffffffff88186281                Network_GetFlightMode
                0xffffffff881862a9                Network_SetFlightMode
                0xffffffff881862d1                Network_Register
                0xffffffff88186319                Network_DeRegister
                0xffffffff88186331                Network_GetStatusInfo
                0xffffffff88186381                Network_GetSignalQuality
                0xffffffff88186399                GPRS_ActRsp
                0xffffffff88186425                GetLocationPeocessData
                0xffffffff88186741                NW_AsyncEventProcess_GetCellInfo
                0xffffffff881868c9                Network_GetCellInfoRequst
                0xffffffff88186929                Network_GetIp
                0xffffffff8818698d                AttachResult
                0xffffffff88186a49                GPRS_AsyncEventProcess
                0xffffffff88186b49                Network_AsyncEventProcess
                0xffffffff88186f49                Network_GetActiveStatus
                0xffffffff88186f85                Network_StartDeactive
                0xffffffff88186fd5                ApiPdpContextToCFWPdpContext
                0xffffffff881870b9                Network_StartActive
                0xffffffff8818718d                Network_GetAttachStatus
                0xffffffff881871b9                Network_StartDetach
                0xffffffff881871f9                Network_StartAttach
                0xffffffff88187231                OS_GetTaskInfo
                0xffffffff88187261                OS_QueryCallbackTimer
                0xffffffff88187271                OS_StopCallbackTimer
                0xffffffff8818728d                OS_StartCallbackTimer
                0xffffffff881872a9                OS_UnlockMutex
                0xffffffff881872b9                OS_LockMutex
                0xffffffff881872c9                OS_DeleteMutex
                0xffffffff881872d9                OS_CreateMutex
                0xffffffff881872e9                OS_ReleaseSemaphore
                0xffffffff88187305                OS_WaitForSemaphore
                0xffffffff88187321                OS_DeleteSemaphore
                0xffffffff8818733d                OS_CreateSemaphore
                0xffffffff8818734d                OS_GetHeapUsageStatus
                0xffffffff88187371                OS_Free
                0xffffffff881873dd                OS_Realloc
                0xffffffff881873ed                OS_Malloc
                0xffffffff8818741d                OS_IsEventAvailable
                0xffffffff88187439                OS_ResetEventQueue
                0xffffffff88187455                OS_SendEvent
                0xffffffff8818747d                OS_WaitEvent
                0xffffffff881874ad                OS_SleepUs
                0xffffffff881874bd                OS_Sleep
                0xffffffff881874d9                OS_ResumeTask
                0xffffffff881874f5                OS_SuspendTask
                0xffffffff88187511                OS_DeleteTask
                0xffffffff8818752d                OS_StopTask
                0xffffffff8818753d                OS_StartTask
                0xffffffff8818754d                OS_CreateTask
                0xffffffff88187591                TIME_SetIsAutoUpdateRtcTime
                0xffffffff8818759d                TIME_IsAutoUpdateRtcTime
                0xffffffff881875a9                TIME_SystemTime2TimeStamp
                0xffffffff881875c1                mktime
                0xffffffff88187605                TIME_TimeStamp2SystemTime
                0xffffffff88187621                TIME_GetLocalTime
                0xffffffff88187691                timelocal
                0xffffffff88187731                TIME_SetLocalTime
                0xffffffff881877cd                TIME_SetSystemTime
                0xffffffff881877e9                TIME_SetTimeZone
                0xffffffff8818780d                TIME_SetRtcTime
                0xffffffff8818786d                TIME_GetTimeZone
                0xffffffff8818787d                TIME_GetSystemTime
                0xffffffff88187899                TIME_GetRtcTime
                0xffffffff88187929                TIME_GetTime
                0xffffffff88187939                clock
                0xffffffff88187949                LILY_AudioSetEQ
                0xffffffff88187969                LILY_AudioGetPlayInformation
                0xffffffff881879a1                LILY_AudioStop
                0xffffffff881879d1                LILY_AudioResume
                0xffffffff88187a0d                LILY_AudioPause
                0xffffffff88187a41                LILY_AudioPlay
                0xffffffff88187ab9                SETITEMS_c_Facility_IE_Invoke
                0xffffffff88187b39                SETITEMS_c_Facility_IE_Invoke_data_chargingInfo_e1_Value
                0xffffffff88187b51                SETITEMS_c_Facility_IE_Invoke_data_chargingInfo_e2_Value
                0xffffffff88187b69                SETITEMS_c_Facility_IE_Invoke_data_chargingInfo_e3_Value
                0xffffffff88187b81                SETITEMS_c_Facility_IE_Invoke_data_chargingInfo_e4_Value
                0xffffffff88187b99                SETITEMS_c_Facility_IE_Invoke_data_chargingInfo_e5_Value
                0xffffffff88187bb1                SETITEMS_c_Facility_IE_Invoke_data_chargingInfo_e6_Value
                0xffffffff88187bc9                SETITEMS_c_Facility_IE_Invoke_data_chargingInfo_e7_Value
                0xffffffff88187be1                CFW_EmodGetIMEIBCD
                0xffffffff88187c95                CFW_EmodGetIMEI
                0xffffffff88187d15                CFW_EmodAudioTestEnd
                0xffffffff88187d79                CFW_EmodAudioTestStart
                0xffffffff88187e69                CFW_EmodOutfieldTestStart
                0xffffffff88187f2d                CFW_EmodOutfieldTestEnd
                0xffffffff8818803d                CFW_GetCellInfo
                0xffffffff881880b5                CFW_EmodOutfieldTestProc
                0xffffffff88188399                __ieee754_rem_pio2
                0xffffffff88188821                fat_read_entries
                0xffffffff88188a81                fat_write_root_entries
                0xffffffff88188c5d                fat_read_root_entries
                0xffffffff88188ead                fat_write_entries
                0xffffffff8818900d                fat_add_root_entry
                0xffffffff881892f9                fat_add_entry
                0xffffffff88189799                fat_delete_fatentries
                0xffffffff88189855                fat_remove_entry
                0xffffffff88189a95                export_get_ldnumber
                0xffffffff8818a575                fatfs_vfs_mount
                0xffffffff8818ab39                fat_closedir
                0xffffffff8818af01                fat_mount
                0xffffffff8818b4c1                f_truncate
                0xffffffff8818bbb1                fat_opendir
                0xffffffff8818be81                f_mkdir
                0xffffffff8818bff9                f_unlink
                0xffffffff8818c09d                f_rename
                0xffffffff8818c1b1                f_getfree
                0xffffffff8818c295                f_sync
                0xffffffff8818c349                fat_close
                0xffffffff8818c36d                fat_lseek
                0xffffffff8818c4e9                f_write
                0xffffffff8818c6a5                fat_read
                0xffffffff8818c829                fat_open
                0xffffffff8818cbb9                f_stat
                0xffffffff8818cc05                fat_readdir
                0xffffffff8818cc59                get_fattime
                0xffffffff8818cc69                fat_wtoupper
                0xffffffff8818cd11                ff_oem2uni
                0xffffffff8818cd2d                ff_uni2oem
                0xffffffff8818cd49                FS_AsynGetFsInfoPrc
                0xffffffff8818cda5                FS_AsynWritePrc
                0xffffffff8818cde9                FS_AsynReadPrc
                0xffffffff8818ce25                BAL_AsynFsTask
                0xffffffff8818ce85                FS_AsynReadReq
                0xffffffff8818d05d                icmp_time_exceeded
                0xffffffff8818d071                icmp_dest_unreach
                0xffffffff8818d085                icmp_input
                0xffffffff8818d441                icmp6_param_problem
                0xffffffff8818d455                icmp6_dest_unreach
                0xffffffff8818d46d                icmp6_input
                0xffffffff8818d5c9                icmp6_time_exceeded_with_addrs
                0xffffffff8818d621                lwip_standard_chksum
                0xffffffff8818d68d                inet_chksum
                0xffffffff8818d6a9                inet_chksum_pbuf
                0xffffffff8818d7d5                ip6_chksum_pseudo
                0xffffffff8818d84d                inet_chksum_pseudo
                0xffffffff8818d895                ip_chksum_pseudo
                0xffffffff8818d8d1                __kernel_cos
                0xffffffff8818dad9                __kernel_rem_pio2
                0xffffffff8818e359                __kernel_sin
                0xffffffff8818e4f9                lily_getModuleState
                0xffffffff8818e515                lily_getLilyActiveState
                0xffffffff8818e529                checkModuleConflict
                0xffffffff8818e5d5                lily_changeToState
                0xffffffff8818e605                lily_exitModule
                0xffffffff8818e61d                magic_init
                0xffffffff8818e641                SETITEMS_c_RxNpduNumList_NpduValue
                0xffffffff8818e659                SETITEMS_c_RxNpduNumList_Nsapi
                0xffffffff8818e671                SETITEMS_c_Packet_Paging_Request_Page_info
                0xffffffff8818e6b1                SETITEMS_c_Packet_Paging_Request_Page_info_data_TMSI
                0xffffffff8818e6c9                SETITEMS_c_TSkip
                0xffffffff8818e6e1                SETITEMS_c_PPwrCtrl_TA_Msg_Pwr_Ctrl_Param_GAMMA
                0xffffffff8818e6f9                SETITEMS_c_PPwrCtrl_TA_Msg_Pwr_Ctrl_Param_GAMMA_p
                0xffffffff8818e711                SETITEMS_c_PTimeslot_Reconfigure_Msg_Dynamic_Alloc_GAMMA
                0xffffffff8818e729                SETITEMS_c_PTimeslot_Reconfigure_Msg_Dynamic_Alloc_USF
                0xffffffff8818e741                SETITEMS_c_PTimeslot_Reconfigure_Msg_Dynamic_Alloc_USF_p
                0xffffffff8818e759                SETITEMS_c_PTimeslot_Reconfigure_Msg_Fixed_Alloc_Pwr_Ctrl_Param_GAMMA
                0xffffffff8818e771                SETITEMS_c_PTimeslot_Reconfigure_Msg_Fixed_Alloc_Pwr_Ctrl_Param_GAMMA_p
                0xffffffff8818e789                SETITEMS_c_PTimeslot_Reconfigure_Msg_Freq_Param_Dir_enc_1_GPRS_MA_ArfcnIdxList_ArfcnIdx
                0xffffffff8818e7a1                SETITEMS_c_PTimeslot_Reconfigure_Msg_Freq_Param_Dir_enc_1_GPRS_MA_RflNbList_RflNb
                0xffffffff8818e7b9                floor
                0xffffffff8818e909                scalbn
                0xffffffff8818ea19                pow
                0xffffffff8818ea29                sqrt
                0xffffffff8818ea39                ArrayCopare
                0xffffffff8818ea61                NeighborCellDataParse
                0xffffffff8818eb99                CurrCellDataParse
                0xffffffff8818f10d                disk_ioctl
                0xffffffff8818f129                disk_write
                0xffffffff8818f13d                disk_read
                0xffffffff8818f151                disk_initialize
                0xffffffff8818f169                disk_status
                0xffffffff8818f181                __ieee754_pow
                0xffffffff8818fd39                __ieee754_sqrt
                0xffffffff8818fedd                fat_disk_set_device
                0xffffffff8818ff09                fat_disk_remove_device
                0xffffffff8818ff25                fat_disk_status
                0xffffffff8818ff45                fat_disk_initialize
                0xffffffff8818ff65                fat_disk_oem2uni
                0xffffffff8818ffa5                fat_disk_uni2oem
                0xffffffff8818ffe5                fat_disk_gettime
                0xffffffff88190031                fat_disk_ioctl
                0xffffffff8819009d                fat_disk_write
                0xffffffff881900dd                fat_disk_read
                0xffffffff8819011d                OnPlatform_SetDefaultValue
                0xffffffff8819012d                AppMain
                0xffffffff8819013d                Sdk_Init
                0xffffffff88190171                erfc
                0xffffffff88190b19                erf
                0xffffffff881914b9                strcasecmp
                0xffffffff88191529                gettimeofday
                0xffffffff881915b9                time
                0xffffffff881915e1                atan
                0xffffffff881919b1                cbrt
                0xffffffff88191b59                ceil
                0xffffffff88191ca9                copysign
                0xffffffff88191cc9                expm1
                0xffffffff881921f9                fabs
                0xffffffff88192209                finite
                0xffffffff88192221                frexp
                0xffffffff881922b9                ilogb
                0xffffffff88192329                ldexp
                0xffffffff881923a1                log1p
                0xffffffff88192879                logb
                0xffffffff881928e9                modf
                0xffffffff881929ad                nextafter
                0xffffffff88192b19                rint
                0xffffffff88192c45                significand
                0xffffffff88192c71                asinh
                0xffffffff88192df1                tan
                0xffffffff88192e61                tanh
                0xffffffff88192f99                atol
                0xffffffff88192fc1                atoll
                0xffffffff88193019                gcvt
                0xffffffff881939d5                vsscanf
                0xffffffff881939f5                sscanf
                0xffffffff88193a0d                acos
                0xffffffff88193a1d                acosh
                0xffffffff88193a2d                asin
                0xffffffff88193a3d                atan2
                0xffffffff88193a4d                atanh
                0xffffffff88193a5d                cosh
                0xffffffff88193a6d                exp
                0xffffffff88193a7d                fmod
                0xffffffff88193a8d                gamma
                0xffffffff88193aa5                hypot
                0xffffffff88193ab5                lgamma
                0xffffffff88193acd                log
                0xffffffff88193add                log10
                0xffffffff88193aed                remainder
                0xffffffff88193afd                sinh
                0xffffffff88193b0d                AUDIO_RecordStop
                0xffffffff88193bd1                AUDIO_LoopTestEnd
                0xffffffff88193be5                AUDIO_LoopTestStart
                0xffffffff88193c21                AUDIO_GetPlayInfo
                0xffffffff88193c31                AUDIO_Stop
                0xffffffff88193c49                AUDIO_Resume
                0xffffffff88193c59                AUDIO_Pause
                0xffffffff88193c69                AUDIO_SetEQ
                0xffffffff88193c79                AUDIO_Play
                0xffffffff88193d8d                AUDIO_SpeakerSetVolume
                0xffffffff88193db5                AUDIO_SpeakerClose
                0xffffffff88193dc5                AUDIO_SpeakerOpen
                0xffffffff88193dd5                AUDIO_SetMode
                0xffffffff88193de9                AUDIO_SpeakerSetMute
                0xffffffff88193e19                AUDIO_MicSetMute
                0xffffffff88193e55                AUDIO_MicClose
                0xffffffff88193e65                AUDIO_MicOpen
                0xffffffff88193e75                AUDIO_RecordStart
                0xffffffff88193f71                Trace
                0xffffffff88193fdd                MEMBLOCK_Trace
                0xffffffff88194129                API_FotaByServer
                0xffffffff881942e1                API_FotaClean
                0xffffffff88194319                API_FotaReceiveData
                0xffffffff881943c5                API_FotaInit
                0xffffffff88194479                GPS_IsOpen
                0xffffffff88194485                GPS_Close
                0xffffffff881944c5                GPS_Open
                0xffffffff881945d1                ADC_Read
                0xffffffff88194609                ADC_Close
                0xffffffff88194619                ADC_Init
                0xffffffff8819462d                I2C_Close
                0xffffffff88194641                I2C_ReadRawByte
                0xffffffff88194651                I2C_WriteRawByte
                0xffffffff88194665                I2C_WriteMem
                0xffffffff88194691                I2C_ReadMem
                0xffffffff881946bd                I2C_Receive
                0xffffffff881946d9                I2C_Transmit
                0xffffffff881946f5                I2C_Init
                0xffffffff8819476d                UART_Read
                0xffffffff88194771                UART_Close
                0xffffffff8819478d                UART_Write
                0xffffffff881947a1                UART_Init
                0xffffffff88194b09                INFO_GetIMEI
                0xffffffff88194b29                LBS_GetLocation
                0xffffffff88194fc9                MQTT_IsConnected
                0xffffffff88194fd9                MQTT_Publish
                0xffffffff88195015                MQTT_Unsubscribe
                0xffffffff88195031                MQTT_Subscribe
                0xffffffff8819504d                MQTT_SetInPubCallback
                0xffffffff8819505d                MQTT_Disconnect
                0xffffffff881950ad                MQTT_ClientDestroy
                0xffffffff881951e5                MQTT_Connect
                0xffffffff88195391                MQTT_ClientNew
                0xffffffff881953e5                SSL_Destroy
                0xffffffff88195471                SSL_Close
                0xffffffff88195491                SSL_Read
                0xffffffff881955ad                SSL_Write
                0xffffffff8819562d                SSL_Connect
                0xffffffff881957c5                SSL_Init
                0xffffffff881959f1                SYS_EnterCriticalSection
                0xffffffff881959fd                SYS_ExitCriticalSection
                0xffffffff88195a09                strtof
                0xffffffff88195a21                atof
                0xffffffff88195a31                atox
                0xffffffff88195a85                cJSON_Delete
                0xffffffff88195e41                cJSON_GetObjectItem
                0xffffffff881961e1                cJSON_ParseWithOpts
                0xffffffff881962d1                cJSON_Parse
                0xffffffff881962e5                mbedtls_ctr_drbg_init
                0xffffffff881964b9                mbedtls_ctr_drbg_reseed
                0xffffffff8819653d                mbedtls_ctr_drbg_seed_entropy_len
                0xffffffff881965a1                mbedtls_ctr_drbg_seed
                0xffffffff881965b9                mbedtls_ctr_drbg_random_with_add
                0xffffffff88196689                mbedtls_ctr_drbg_random
                0xffffffff8819669d                mbedtls_ctr_drbg_free
                0xffffffff881966c9                __ieee754_acos
                0xffffffff88196c19                __ieee754_acosh
                0xffffffff88196d79                __ieee754_asin
                0xffffffff88197201                __ieee754_atan2
                0xffffffff881973e1                __ieee754_atanh
                0xffffffff88197541                __ieee754_cosh
                0xffffffff881976d1                __ieee754_exp
                0xffffffff88197a19                __ieee754_fmod
                0xffffffff88197c69                __ieee754_gamma_r
                0xffffffff88197c79                __ieee754_hypot
                0xffffffff88197ef9                __ieee754_lgamma_r
                0xffffffff88198df9                __ieee754_log
                0xffffffff88199239                __ieee754_log10
                0xffffffff88199369                __ieee754_remainder
                0xffffffff881994f9                __ieee754_scalb
                0xffffffff88199621                __ieee754_sinh
                0xffffffff881997f1                mbedtls_entropy_add_source
                0xffffffff881998fd                mbedtls_entropy_func
                0xffffffff881999c5                mbedtls_entropy_init
                0xffffffff88199a1d                mbedtls_entropy_free
                0xffffffff88199a49                mbedtls_havege_poll
                0xffffffff88199a75                mbedtls_hardclock_poll
                0xffffffff88199aad                fotaCalcCrc
                0xffffffff88199ad5                fotaCalcFileCrc
                0xffffffff88199b69                fotaContextSize
                0xffffffff88199bfd                fotaInit
                0xffffffff88199ce1                fotaInvalidate
                0xffffffff88199e71                fotaDownloadFinished
                0xffffffff88199ea5                fotaFlashUncacheMap
                0xffffffff88199eb9                fotaFileRemove
                0xffffffff88199ec9                fotaFileRenameAtomic
                0xffffffff88199ed9                fotaFileRead
                0xffffffff88199f11                fotaFileWrite
                0xffffffff88199f49                fotaFileClose
                0xffffffff88199f59                fotaFileOpen
                0xffffffff88199f7d                gpsd_uart_register_rx_cb
                0xffffffff8819a095                GPS_UART_GetBytes
                0xffffffff8819a279                GPS_UART_PutBytes
                0xffffffff8819a39d                gpsd_uart_close
                0xffffffff8819a415                gpsd_uart_set_dcb_config
                0xffffffff8819a5ed                gpsd_uart_open
                0xffffffff8819a79d                user_uart_close
                0xffffffff8819a7b9                user_uart_open
                0xffffffff8819bc6d                mbedtls_havege_random
                0xffffffff8819bce1                mbedtls_havege_init
                0xffffffff8819bd01                mbedtls_havege_free
                0xffffffff8819bd19                cg_http_api_response
                0xffffffff8819bf11                http_dns_analysis
                0xffffffff8819bfb9                Http_init
                0xffffffff8819c1b5                Http_get
                0xffffffff8819c241                mupnp_http_headerlist_get
                0xffffffff8819c27d                mupnp_http_headerlist_getvalue
                0xffffffff8819c299                mupnp_http_headerlist_set
                0xffffffff8819c2dd                mupnp_http_headerlist_delete
                0xffffffff8819c2fd                mupnp_http_headerlist_new
                0xffffffff8819c321                mupnp_http_packet_read_chunk
                0xffffffff8819c3b9                mupnp_http_packet_read_headers
                0xffffffff8819c471                mupnp_http_packet_getheadervalue
                0xffffffff8819c481                mupnp_http_packet_getheaderssizet
                0xffffffff8819c49d                mupnp_http_packet_print
                0xffffffff8819c4cd                mupnp_http_packet_post
                0xffffffff8819c5c1                mupnp_http_packet_setheadervalue
                0xffffffff8819c5d1                mupnp_http_packet_sethost
                0xffffffff8819c665                mupnp_http_packet_setheaderssizet
                0xffffffff8819c691                mupnp_http_packet_read_body
                0xffffffff8819c841                mupnp_http_packet_clear
                0xffffffff8819c865                mupnp_http_packet_read
                0xffffffff8819c8a1                mupnp_http_packet_clean
                0xffffffff8819c8bd                mupnp_http_packet_init
                0xffffffff8819c8d9                mupnp_http_request_setsocket
                0xffffffff8819c8dd                mupnp_http_request_print
                0xffffffff8819c8ed                mupnp_http_request_geturi
                0xffffffff8819c8fd                mupnp_http_request_getuseragent
                0xffffffff8819c90d                mupnp_http_request_getversion
                0xffffffff8819c91d                mupnp_http_request_getmethod
                0xffffffff8819c92d                mupnp_http_request_seturi
                0xffffffff8819c93d                mupnp_http_request_setuseragent
                0xffffffff8819c94d                mupnp_http_request_setversion
                0xffffffff8819c95d                mupnp_http_request_setmethod
                0xffffffff8819c96d                mupnp_http_request_clear
                0xffffffff8819c9a5                mupnp_http_request_delete
                0xffffffff8819c9e5                mupnp_http_request_new
                0xffffffff8819ca55                mupnp_http_response_getstatuscode
                0xffffffff8819ca59                mupnp_http_response_setreasonphrase
                0xffffffff8819ca69                mupnp_http_response_setversion
                0xffffffff8819ca79                mupnp_http_response_setstatuscode
                0xffffffff8819ca99                mupnp_http_response_clear
                0xffffffff8819cacd                mupnp_http_response_read
                0xffffffff8819cb8d                mupnp_http_response_delete
                0xffffffff8819cbb5                mupnp_http_response_new
                0xffffffff8819cc09                __kernel_tan
                0xffffffff8819d089                mupnp_list_header_init
                0xffffffff8819d099                mupnp_list_node_init
                0xffffffff8819d0a9                mupnp_list_insert
                0xffffffff8819d0bd                mupnp_list_add
                0xffffffff8819d0d5                mupnp_list_remove
                0xffffffff8819d0f1                mupnp_list_next
                0xffffffff8819d105                mupnp_list_clear
                0xffffffff8819d141                mupnp_log_set_separator
                0xffffffff8819d16d                mupnp_log_add_target
                0xffffffff8819d1f5                mupnp_log_print
                0xffffffff8819d31d                lwip_mqtt_client_is_connected
                0xffffffff8819d385                lwip_mqtt_set_inpub_callback
                0xffffffff8819d3c5                lwip_mqtt_disconnect
                0xffffffff8819d41d                lwip_mqtt_sub_unsub
                0xffffffff8819d4a9                lwip_mqtt_publish
                0xffffffff8819d54d                lwip_mqtt_connect
                0xffffffff8819d6dd                mbedtls_debug_set_threshold
                0xffffffff8819d701                mbedtls_debug_print_mpi
                0xffffffff8819d891                mbedtls_debug_print_ecp
                0xffffffff8819d911                mbedtls_debug_print_ret
                0xffffffff8819d975                mbedtls_debug_print_buf
                0xffffffff8819dae1                mbedtls_debug_print_msg
                0xffffffff8819db49                mbedtls_debug_print_crt
                0xffffffff8819dea5                mqtt_client_is_connected
                0xffffffff8819dfbd                mqtt_set_inpub_callback
                0xffffffff8819e155                mqtt_disconnect
                0xffffffff8819e1c5                mqtt_client_connect
                0xffffffff8819ea4d                mqtt_sub_unsub
                0xffffffff8819ebb1                mqtt_publish
                0xffffffff8819f12d                mupnp_net_uri_clear
                0xffffffff8819f181                mupnp_net_uri_setvalue
                0xffffffff8819f419                mupnp_net_uri_delete
                0xffffffff8819f475                mupnp_net_uri_new
                0xffffffff8819f4d9                mupnp_net_isipv6address
                0xffffffff8819f501                mbedtls_net_init
                0xffffffff8819f509                mbedtls_net_free
                0xffffffff8819f55d                mbedtls_net_send
                0xffffffff8819f5a9                mbedtls_net_recv
                0xffffffff8819f5f5                mbedtls_net_recv_timeout
                0xffffffff8819f699                mbedtls_net_connect
                0xffffffff8819f731                mbedtls_pk_init
                0xffffffff8819f73d                mbedtls_pk_info_from_type
                0xffffffff8819f755                mbedtls_pk_setup
                0xffffffff8819f791                mbedtls_pk_can_do
                0xffffffff8819f7b1                mbedtls_pk_encrypt
                0xffffffff8819f7e9                mbedtls_pk_get_bitlen
                0xffffffff8819f805                mbedtls_pk_debug
                0xffffffff8819f82d                mbedtls_pk_get_name
                0xffffffff8819f841                mbedtls_pk_get_type
                0xffffffff8819f87d                mbedtls_pk_sign
                0xffffffff8819f8d5                mbedtls_pk_verify
                0xffffffff8819f925                mbedtls_pk_verify_ext
                0xffffffff8819f9d9                mbedtls_pk_free
                0xffffffff881a0535                mbedtls_pk_parse_key
                0xffffffff881a0771                mbedtls_pk_parse_subpubkey
                0xffffffff881a08a9                mbedtls_platform_set_calloc_free
                0xffffffff881a0909                mbedtls_rsa_set_padding
                0xffffffff881a0915                mbedtls_rsa_free
                0xffffffff881a0991                mbedtls_rsa_init
                0xffffffff881a0a65                mbedtls_rsa_check_pubkey
                0xffffffff881a0ac9                mbedtls_rsa_public
                0xffffffff881a0b49                mbedtls_rsa_private
                0xffffffff881a0e19                mbedtls_rsa_rsassa_pkcs1_v15_verify
                0xffffffff881a1001                mbedtls_rsa_rsassa_pss_verify_ext
                0xffffffff881a121d                mbedtls_rsa_rsassa_pss_verify
                0xffffffff881a124d                mbedtls_rsa_pkcs1_verify
                0xffffffff881a1299                mbedtls_rsa_rsassa_pkcs1_v15_sign
                0xffffffff881a1441                mbedtls_rsa_rsassa_pss_sign
                0xffffffff881a15c5                mbedtls_rsa_pkcs1_sign
                0xffffffff881a1611                mbedtls_rsa_rsaes_pkcs1_v15_decrypt
                0xffffffff881a175d                mbedtls_rsa_rsaes_oaep_decrypt
                0xffffffff881a1939                mbedtls_rsa_pkcs1_decrypt
                0xffffffff881a1991                mbedtls_rsa_rsaes_pkcs1_v15_encrypt
                0xffffffff881a1a7d                mbedtls_rsa_rsaes_oaep_encrypt
                0xffffffff881a1bb1                mbedtls_rsa_pkcs1_encrypt
                0xffffffff881a1bfd                mbedtls_rsa_check_privkey
                0xffffffff881a1e0d                mbedtls_rsa_check_pub_priv
                0xffffffff881a1e59                mbedtls_sha512_clone
                0xffffffff881a1e69                mbedtls_sha512_starts
                0xffffffff881a1f81                mbedtls_sha512_process
                0xffffffff881a306d                mbedtls_sha512_update
                0xffffffff881a3125                mbedtls_sha512_finish
                0xffffffff881a3355                mbedtls_sha512_init
                0xffffffff881a3369                mbedtls_sha512_free
                0xffffffff881a3381                mbedtls_sha512
                0xffffffff881a33c5                mupnp_socket_startup
                0xffffffff881a33d5                mupnp_socket_cleanup
                0xffffffff881a33e5                mupnp_socket_isbound
                0xffffffff881a33f1                mupnp_socket_setid
                0xffffffff881a33f5                mupnp_socket_tosockaddrinfo
                0xffffffff881a3475                mupnp_socket_settimeout
                0xffffffff881a34c1                mupnp_socket_write
                0xffffffff881a3539                http_socket_read
                0xffffffff881a363d                mupnp_socket_read
                0xffffffff881a3661                mupnp_socket_readline
                0xffffffff881a3721                mupnp_socket_connect
                0xffffffff881a37a5                mupnp_socket_close
                0xffffffff881a3855                mupnp_socket_delete
                0xffffffff881a387d                mupnp_socket_new
                0xffffffff881a390d                mbedtls_ssl_update_handshake_status
                0xffffffff881a3965                mbedtls_ssl_dtls_replay_check
                0xffffffff881a39ed                mbedtls_ssl_dtls_replay_update
                0xffffffff881a3abd                mbedtls_ssl_conf_endpoint
                0xffffffff881a3ad5                mbedtls_ssl_conf_transport
                0xffffffff881a3af1                mbedtls_ssl_conf_authmode
                0xffffffff881a3b0d                mbedtls_ssl_conf_rng
                0xffffffff881a3b15                mbedtls_ssl_conf_dbg
                0xffffffff881a3b1d                mbedtls_ssl_set_bio
                0xffffffff881a3b29                mbedtls_ssl_conf_read_timeout
                0xffffffff881a3b31                mbedtls_ssl_conf_cert_profile
                0xffffffff881a3b81                mbedtls_ssl_conf_own_cert
                0xffffffff881a3b91                mbedtls_ssl_conf_ca_chain
                0xffffffff881a3b99                mbedtls_ssl_conf_sig_hashes
                0xffffffff881a3b9d                mbedtls_ssl_conf_max_version
                0xffffffff881a3ba9                mbedtls_ssl_conf_min_version
                0xffffffff881a3bb5                mbedtls_ssl_get_bytes_avail
                0xffffffff881a3bc1                mbedtls_ssl_get_verify_result
                0xffffffff881a3bd5                mbedtls_ssl_get_max_frag_len
                0xffffffff881a3c05                mbedtls_ssl_pk_alg_from_sig
                0xffffffff881a3c25                mbedtls_ssl_sig_hash_set_const_hash
                0xffffffff881a3c2d                mbedtls_ssl_md_alg_from_hash
                0xffffffff881a3c4d                mbedtls_ssl_hash_from_md_alg
                0xffffffff881a3c65                mbedtls_ssl_check_curve
                0xffffffff881a3c81                mbedtls_ssl_check_sig_hash
                0xffffffff881a3c9d                mbedtls_ssl_write_version
                0xffffffff881a3cb9                mbedtls_ssl_read_version
                0xffffffff881a3d25                mbedtls_ssl_set_timer_cb
                0xffffffff881a3d3d                mbedtls_ssl_recv_flight_completed
                0xffffffff881a3d95                mbedtls_ssl_optimize_checksum
                0xffffffff881a3dc1                mbedtls_ssl_send_flight_completed
                0xffffffff881a4321                mbedtls_ssl_check_cert_usage
                0xffffffff881a439d                mbedtls_ssl_sig_from_pk
                0xffffffff881a43cd                mbedtls_ssl_config_free
                0xffffffff881a4445                mbedtls_ssl_config_init
                0xffffffff881a4459                mbedtls_ssl_init
                0xffffffff881a446d                mbedtls_ssl_session_init
                0xffffffff881a4481                mbedtls_ssl_config_defaults
                0xffffffff881a45a5                mbedtls_ssl_session_free
                0xffffffff881a45dd                mbedtls_ssl_handshake_free
                0xffffffff881a4691                mbedtls_ssl_transform_free
                0xffffffff881a46cd                mbedtls_ssl_free
                0xffffffff881a4835                mbedtls_ssl_handshake_wrapup
                0xffffffff881a4919                mbedtls_ssl_flush_output
                0xffffffff881a4a71                mbedtls_ssl_set_hostname
                0xffffffff881a4b7d                mbedtls_ssl_reset_checksum
                0xffffffff881a4d69                mbedtls_ssl_setup
                0xffffffff881a4ef9                mbedtls_ssl_handshake_step
                0xffffffff881a4f29                mbedtls_ssl_handshake
                0xffffffff881a502d                mbedtls_ssl_renegotiate
                0xffffffff881a5135                mbedtls_ssl_write_record
                0xffffffff881a5a79                mbedtls_ssl_write
                0xffffffff881a5b81                mbedtls_ssl_write_finished
                0xffffffff881a5d19                mbedtls_ssl_write_change_cipher_spec
                0xffffffff881a5d99                mbedtls_ssl_write_certificate
                0xffffffff881a5f3d                mbedtls_ssl_send_alert_message
                0xffffffff881a5ff9                mbedtls_ssl_close_notify
                0xffffffff881a6089                mbedtls_ssl_resend
                0xffffffff881a61ad                mbedtls_ssl_prepare_handshake_record
                0xffffffff881a66ed                mbedtls_ssl_handle_message_type
                0xffffffff881a67a9                mbedtls_ssl_fetch_input
                0xffffffff881a6aed                mbedtls_ssl_read_record_layer
                0xffffffff881a77e5                mbedtls_ssl_read_record
                0xffffffff881a78a5                mbedtls_ssl_parse_finished
                0xffffffff881a7a19                mbedtls_ssl_parse_change_cipher_spec
                0xffffffff881a7b61                mbedtls_ssl_parse_certificate
                0xffffffff881a8009                mbedtls_ssl_read
                0xffffffff881a8319                mbedtls_ssl_psk_derive_premaster
                0xffffffff881a8845                mbedtls_ssl_derive_keys
                0xffffffff881a8e5d                mupnp_string_getvalue
                0xffffffff881a8e69                mupnp_string_length
                0xffffffff881a8e79                mupnp_string_new
                0xffffffff881a8e95                mupnp_string_clear
                0xffffffff881a8eb9                mupnp_string_setpointervalue
                0xffffffff881a8ee1                mupnp_string_delete
                0xffffffff881a8f01                mupnp_string_naddvalue
                0xffffffff881a8f6d                mupnp_string_addvalue
                0xffffffff881a8f91                mupnp_string_setnvalue
                0xffffffff881a8fd9                mupnp_string_setvalue
                0xffffffff881a9001                mupnp_ssizet2str
                0xffffffff881a9025                mupnp_strstr
                0xffffffff881a9049                mupnp_strcasecmp
                0xffffffff881a9065                mupnp_strcaseeq
                0xffffffff881a9081                mupnp_strcmp
                0xffffffff881a909d                mupnp_streq
                0xffffffff881a90b9                mupnp_strlen
                0xffffffff881a90cd                mupnp_strrtrim
                0xffffffff881a9115                mupnp_strrchr
                0xffffffff881a9161                mupnp_strchr
                0xffffffff881a91a9                mupnp_strdup
                0xffffffff881a91dd                mupnp_string_tokenizer_hasmoretoken
                0xffffffff881a91e1                mupnp_string_tokenizer_nexttoken
                0xffffffff881a9279                mupnp_string_tokenizer_nextalltoken
                0xffffffff881a92a1                mupnp_string_tokenizer_delete
                0xffffffff881a92c5                mupnp_string_tokenizer_new
                0xffffffff881a932d                mupnp_wait
                0xffffffff881a9351                mbedtls_timing_get_timer
                0xffffffff881a939d                mbedtls_timing_get_delay
                0xffffffff881a93d1                mbedtls_timing_set_delay
                0xffffffff881a93e9                mbedtls_timing_hardclock
                0xffffffff881a9435                gmult
                0xffffffff881a946d                coef_add
                0xffffffff881a9491                coef_mult
                0xffffffff881a95d5                Rcon
                0xffffffff881a9621                add_round_key
                0xffffffff881a9665                mix_columns
                0xffffffff881a96c9                inv_mix_columns
                0xffffffff881a972d                shift_rows
                0xffffffff881a976d                inv_shift_rows
                0xffffffff881a97a9                sub_bytes
                0xffffffff881a97f5                inv_sub_bytes
                0xffffffff881a9841                sub_word
                0xffffffff881a986d                rot_word
                0xffffffff881a9885                key_expansion
                0xffffffff881a992d                cipher
                0xffffffff881a99dd                inv_cipher
                0xffffffff881a9a89                aesECB128Decrypt
                0xffffffff881a9b19                aesDestroy
                0xffffffff881a9b51                aesECB128Encrypt
                0xffffffff881a9c15                invSboxInit
                0xffffffff881a9c41                aesInit
                0xffffffff881a9c71                sboxAssign
                0xffffffff881aa339                invSboxAssign
                0xffffffff881aaa11                mbedtls_x509_crl_free
                0xffffffff881aaab1                mbedtls_x509_crl_init
                0xffffffff881aaac5                mbedtls_x509_crl_parse_der
                0xffffffff881aae79                mbedtls_x509_crl_parse
                0xffffffff881aaf61                mbedtls_x509_crt_check_key_usage
                0xffffffff881aafe1                mbedtls_x509_crt_free
                0xffffffff881ab0cd                mbedtls_x509_crt_init
                0xffffffff881ab235                mbedtls_x509_crt_check_extended_key_usage
                0xffffffff881ab2e1                mbedtls_x509_crt_is_revoked
                0xffffffff881ab885                mbedtls_x509_crt_verify_with_profile
                0xffffffff881aba4d                mbedtls_x509_crt_verify_info
                0xffffffff881abadd                mbedtls_x509_crt_info
                0xffffffff881ac211                mbedtls_x509_crt_parse_der
                0xffffffff881ac875                mbedtls_x509_crt_parse
                0xffffffff881acbc1                mbedtls_aes_setkey_enc
                0xffffffff881ace1d                mbedtls_internal_aes_encrypt
                0xffffffff881ad369                mbedtls_internal_aes_decrypt
                0xffffffff881ad8b9                mbedtls_aes_crypt_ecb
                0xffffffff881ad8d9                mbedtls_aes_crypt_cfb128
                0xffffffff881ad969                mbedtls_aes_crypt_ctr
                0xffffffff881ad9d9                mbedtls_aes_crypt_cbc
                0xffffffff881ada99                mbedtls_aes_init
                0xffffffff881adaad                mbedtls_aes_free
                0xffffffff881adac5                mbedtls_aes_setkey_dec
                0xffffffff881adbcd                altcp_arg
                0xffffffff881adbd5                altcp_accept
                0xffffffff881adbdd                altcp_recv
                0xffffffff881adbe5                altcp_sent
                0xffffffff881adbed                altcp_poll
                0xffffffff881adc11                altcp_err
                0xffffffff881adc19                altcp_recved
                0xffffffff881adc39                altcp_bind
                0xffffffff881adc5d                altcp_connect
                0xffffffff881adc81                altcp_listen_with_backlog_and_err
                0xffffffff881adca1                altcp_abort
                0xffffffff881adcb9                altcp_close
                0xffffffff881adcd9                altcp_shutdown
                0xffffffff881adcf9                altcp_write
                0xffffffff881add29                altcp_output
                0xffffffff881add49                altcp_mss
                0xffffffff881add65                altcp_sndbuf
                0xffffffff881add81                altcp_sndqueuelen
                0xffffffff881add9d                altcp_nagle_disable
                0xffffffff881addb5                altcp_nagle_enable
                0xffffffff881addcd                altcp_nagle_disabled
                0xffffffff881adde9                altcp_setprio
                0xffffffff881ade05                altcp_get_tcp_addrinfo
                0xffffffff881ade25                altcp_get_ip
                0xffffffff881ade41                altcp_get_port
                0xffffffff881ade5d                altcp_dbg_get_tcp_state
                0xffffffff881ade79                altcp_default_bind
                0xffffffff881ade9d                altcp_default_shutdown
                0xffffffff881adeb9                altcp_default_output
                0xffffffff881aded5                altcp_default_sndbuf
                0xffffffff881adef1                altcp_default_sndqueuelen
                0xffffffff881adf0d                altcp_default_nagle_disable
                0xffffffff881adf25                altcp_default_nagle_enable
                0xffffffff881adf3d                altcp_default_nagle_disabled
                0xffffffff881adf59                altcp_default_setprio
                0xffffffff881adf75                altcp_default_get_tcp_addrinfo
                0xffffffff881adf91                altcp_default_get_ip
                0xffffffff881adfad                altcp_default_get_port
                0xffffffff881adfc9                altcp_default_dbg_get_tcp_state
                0xffffffff881adfe5                altcp_free
                0xffffffff881ae00d                altcp_alloc
                0xffffffff881ae749                altcp_tcp_new_ip_type
                0xffffffff881af091                altcp_tls_new
                0xffffffff881af23d                altcp_tls_free_config3
                0xffffffff881af291                altcp_tls_create_config_client3
                0xffffffff881af521                altcp_mbedtls_free_config
                0xffffffff881af545                altcp_mbedtls_free
                0xffffffff881af57d                altcp_mbedtls_alloc_config
                0xffffffff881af591                altcp_mbedtls_alloc
                0xffffffff881af5b1                altcp_mbedtls_mem_init
                0xffffffff881af645                mbedtls_asn1_get_len
                0xffffffff881af6f5                mbedtls_asn1_get_tag
                0xffffffff881af721                mbedtls_asn1_get_bool
                0xffffffff881af75d                mbedtls_asn1_get_int
                0xffffffff881af7b1                mbedtls_asn1_get_bitstring
                0xffffffff881af809                mbedtls_asn1_get_bitstring_null
                0xffffffff881af841                mbedtls_asn1_get_sequence_of
                0xffffffff881af8d5                mbedtls_asn1_get_alg
                0xffffffff881af979                mbedtls_asn1_get_alg_null
                0xffffffff881af9a5                mbedtls_asn1_get_mpi
                0xffffffff881af9d9                mbedtls_base64_decode
                0xffffffff881afb25                mbedtls_mpi_init
                0xffffffff881afb35                mbedtls_mpi_free
                0xffffffff881afb69                mbedtls_mpi_get_bit
                0xffffffff881afb89                mbedtls_mpi_lsb
                0xffffffff881afbc5                mbedtls_mpi_bitlen
                0xffffffff881afc11                mbedtls_mpi_size
                0xffffffff881afc6d                mbedtls_mpi_cmp_abs
                0xffffffff881afcd1                mbedtls_mpi_cmp_mpi
                0xffffffff881afd5d                mbedtls_mpi_cmp_int
                0xffffffff881b0231                mbedtls_mpi_write_binary
                0xffffffff881b03b1                mbedtls_mpi_grow
                0xffffffff881b0419                mbedtls_mpi_shift_l
                0xffffffff881b04c1                mbedtls_mpi_set_bit
                0xffffffff881b0529                mbedtls_mpi_lset
                0xffffffff881b0575                mbedtls_mpi_shift_r
                0xffffffff881b0605                mbedtls_mpi_read_binary
                0xffffffff881b0685                mbedtls_mpi_fill_random
                0xffffffff881b06d1                mbedtls_mpi_safe_cond_swap
                0xffffffff881b0791                mbedtls_mpi_safe_cond_assign
                0xffffffff881b0829                mbedtls_mpi_copy
                0xffffffff881b08a1                mbedtls_mpi_mul_mpi
                0xffffffff881b0999                mbedtls_mpi_mul_int
                0xffffffff881b09b5                mbedtls_mpi_sub_abs
                0xffffffff881b0a3d                mbedtls_mpi_gcd
                0xffffffff881b0b3d                mbedtls_mpi_add_abs
                0xffffffff881b0bf9                mbedtls_mpi_sub_mpi
                0xffffffff881b0c61                mbedtls_mpi_sub_int
                0xffffffff881b0c8d                mbedtls_mpi_add_mpi
                0xffffffff881b0cf5                mbedtls_mpi_add_int
                0xffffffff881b0d21                mbedtls_mpi_shrink
                0xffffffff881b0da9                mbedtls_mpi_read_string
                0xffffffff881b0f05                mbedtls_mpi_div_mpi
                0xffffffff881b128d                mbedtls_mpi_mod_mpi
                0xffffffff881b1301                mbedtls_mpi_inv_mod
                0xffffffff881b156d                mbedtls_mpi_exp_mod
                0xffffffff881b1a8d                mbedtls_cipher_info_from_type
                0xffffffff881b1aa5                mbedtls_cipher_info_from_values
                0xffffffff881b1acd                mbedtls_cipher_setkey
                0xffffffff881b1b1d                mbedtls_cipher_reset
                0xffffffff881b1d41                mbedtls_cipher_finish
                0xffffffff881b1e05                mbedtls_cipher_set_padding_mode
                0xffffffff881b1e8d                mbedtls_cipher_auth_decrypt
                0xffffffff881b1f19                mbedtls_cipher_auth_encrypt
                0xffffffff881b1f9d                mbedtls_cipher_update
                0xffffffff881b21a9                mbedtls_cipher_set_iv
                0xffffffff881b21f5                mbedtls_cipher_crypt
                0xffffffff881b2245                mbedtls_cipher_setup
                0xffffffff881b228d                mbedtls_cipher_init
                0xffffffff881b22a1                mbedtls_cipher_free
                0xffffffff881b27ed                mbedtls_des_free
                0xffffffff881b2801                mbedtls_des3_free
                0xffffffff881b2819                mbedtls_des_setkey
                0xffffffff881b2ba5                mbedtls_des_setkey_enc
                0xffffffff881b2bb9                mbedtls_des_setkey_dec
                0xffffffff881b2c5d                mbedtls_des3_set2key_enc
                0xffffffff881b2c81                mbedtls_des3_set2key_dec
                0xffffffff881b2d21                mbedtls_des3_set3key_enc
                0xffffffff881b2d45                mbedtls_des3_set3key_dec
                0xffffffff881b2d6d                mbedtls_des_crypt_ecb
                0xffffffff881b2ff5                mbedtls_des3_crypt_ecb
                0xffffffff881b3529                mbedtls_des3_crypt_cbc
                0xffffffff881b35e9                mbedtls_des_crypt_cbc
                0xffffffff881b36a9                mbedtls_des3_init
                0xffffffff881b36bd                mbedtls_des_init
                0xffffffff881b3735                mbedtls_dhm_make_public
                0xffffffff881b37f1                mbedtls_dhm_calc_secret
                0xffffffff881b3a05                mbedtls_dhm_read_params
                0xffffffff881b3a75                mbedtls_dhm_init
                0xffffffff881b3a89                mbedtls_dhm_free
                0xffffffff881b3af9                mupnp_dictionary_delete
                0xffffffff881b3b19                mupnp_dictionary_element_delete
                0xffffffff881b3b49                mbedtls_ecdh_get_params
                0xffffffff881b3ba5                mbedtls_ecdh_read_params
                0xffffffff881b3bdd                mbedtls_ecdh_free
                0xffffffff881b3c39                mbedtls_ecdh_init
                0xffffffff881b3c4d                mbedtls_ecdh_compute_shared
                0xffffffff881b3cb1                mbedtls_ecdh_calc_secret
                0xffffffff881b3d19                mbedtls_ecdh_gen_public
                0xffffffff881b3d2d                mbedtls_ecdh_make_public
                0xffffffff881b3d85                mbedtls_ecdsa_free
                0xffffffff881b3d95                mbedtls_ecdsa_init
                0xffffffff881b3da5                mbedtls_ecdsa_from_keypair
                0xffffffff881b3e59                mbedtls_ecdsa_verify
                0xffffffff881b3fa1                mbedtls_ecdsa_read_signature
                0xffffffff881b403d                mbedtls_ecdsa_sign
                0xffffffff881b41d9                mbedtls_ecdsa_sign_det
                0xffffffff881b4279                mbedtls_ecdsa_write_signature
                0xffffffff881b4331                mbedtls_ecp_curve_list
                0xffffffff881b433d                mbedtls_ecp_grp_id_list
                0xffffffff881b437d                mbedtls_ecp_curve_info_from_grp_id
                0xffffffff881b43a1                mbedtls_ecp_curve_info_from_tls_id
                0xffffffff881b43c9                mbedtls_ecp_tls_read_group
                0xffffffff881b4415                mbedtls_ecp_group_copy
                0xffffffff881b4425                mbedtls_ecp_is_zero
                0xffffffff881b443d                mbedtls_ecp_check_privkey
                0xffffffff881b44b9                mbedtls_ecp_point_init
                0xffffffff881b44e1                mbedtls_ecp_point_free
                0xffffffff881b4599                mbedtls_ecp_check_pubkey
                0xffffffff881b473d                mbedtls_ecp_copy
                0xffffffff881b4c49                mbedtls_ecp_set_zero
                0xffffffff881b4ff9                mbedtls_ecp_point_read_binary
                0xffffffff881b5071                mbedtls_ecp_tls_read_point
                0xffffffff881b5895                mbedtls_ecp_mul
                0xffffffff881b5d89                mbedtls_ecp_gen_keypair_base
                0xffffffff881b5e91                mbedtls_ecp_gen_keypair
                0xffffffff881b5f35                mbedtls_ecp_muladd
                0xffffffff881b5fa5                mbedtls_ecp_group_init
                0xffffffff881b5fb9                mbedtls_ecp_keypair_init
                0xffffffff881b5fe5                mbedtls_ecp_point_write_binary
                0xffffffff881b608d                mbedtls_ecp_tls_write_point
                0xffffffff881b60c5                mbedtls_ecp_group_free
                0xffffffff881b6141                mbedtls_ecp_keypair_free
                0xffffffff881b616d                mbedtls_ecp_check_pub_priv
                0xffffffff881b62b9                mbedtls_ecp_group_load
                0xffffffff881b7855                mbedtls_gcm_free
                0xffffffff881b7875                mbedtls_gcm_finish
                0xffffffff881b7971                mbedtls_gcm_init
                0xffffffff881b7985                mbedtls_gcm_update
                0xffffffff881b7a91                mbedtls_gcm_starts
                0xffffffff881b7c25                mbedtls_gcm_crypt_and_tag
                0xffffffff881b7c65                mbedtls_gcm_auth_decrypt
                0xffffffff881b7cd5                mbedtls_gcm_setkey
                0xffffffff881b7ed5                mbedtls_hmac_drbg_update
                0xffffffff881b7f79                mbedtls_hmac_drbg_reseed
                0xffffffff881b7ff1                mbedtls_hmac_drbg_random_with_add
                0xffffffff881b80c1                mbedtls_hmac_drbg_random
                0xffffffff881b80d5                mbedtls_hmac_drbg_seed_buf
                0xffffffff881b8131                mbedtls_hmac_drbg_init
                0xffffffff881b8145                mbedtls_hmac_drbg_free
                0xffffffff881b816d                mupnp_http_statuscode2reasonphrase
                0xffffffff881b8391                mupnp_http_header_getvalue
                0xffffffff881b83a1                mupnp_http_header_getname
                0xffffffff881b83b1                mupnp_http_header_setvalue
                0xffffffff881b83c1                mupnp_http_header_setname
                0xffffffff881b83d1                mupnp_http_header_delete
                0xffffffff881b83f9                mupnp_http_header_new
                0xffffffff881b8455                mupnp_mbedtlssocket_connect
                0xffffffff881b876d                mbedtls_md_info_from_type
                0xffffffff881b8785                mbedtls_md_free
                0xffffffff881b87c9                mbedtls_md_setup
                0xffffffff881b8821                mbedtls_md_starts
                0xffffffff881b8841                mbedtls_md_update
                0xffffffff881b8861                mbedtls_md_finish
                0xffffffff881b8881                mbedtls_md
                0xffffffff881b88a1                mbedtls_md_hmac_update
                0xffffffff881b88c5                mbedtls_md_hmac_finish
                0xffffffff881b8931                mbedtls_md_hmac_reset
                0xffffffff881b896d                mbedtls_md_process
                0xffffffff881b898d                mbedtls_md_get_size
                0xffffffff881b8999                mbedtls_md_get_name
                0xffffffff881b89a5                mbedtls_md_hmac_starts
                0xffffffff881b8a85                mbedtls_md_init
                0xffffffff881b8a91                mbedtls_md5_clone
                0xffffffff881b8aa1                mbedtls_md5_starts
                0xffffffff881b8ac9                mbedtls_md5_process
                0xffffffff881b9855                mbedtls_md5_update
                0xffffffff881b98f5                mbedtls_md5_finish
                0xffffffff881b99a9                mbedtls_md5_init
                0xffffffff881b99bd                mbedtls_md5_free
                0xffffffff881b99d5                mbedtls_md5
                0xffffffff881b9df1                mbedtls_oid_get_oid_by_md
                0xffffffff881b9e15                mbedtls_oid_get_pkcs12_pbe_alg
                0xffffffff881b9e6d                mbedtls_oid_get_md_alg
                0xffffffff881b9ebd                mbedtls_oid_get_cipher_alg
                0xffffffff881b9f0d                mbedtls_oid_get_ec_grp
                0xffffffff881b9f5d                mbedtls_oid_get_pk_alg
                0xffffffff881b9fe9                mbedtls_oid_get_sig_alg
                0xffffffff881ba015                mbedtls_oid_get_sig_alg_desc
                0xffffffff881ba035                mbedtls_oid_get_extended_key_usage
                0xffffffff881ba085                mbedtls_oid_get_x509_ext_type
                0xffffffff881ba0d5                mbedtls_oid_get_attr_short_name
                0xffffffff881ba135                mbedtls_pem_free
                0xffffffff881ba1e1                mbedtls_pem_init
                0xffffffff881ba369                mbedtls_pem_read_buffer
                0xffffffff881ba701                mbedtls_pkcs12_derivation
                0xffffffff881ba9c9                mbedtls_pkcs12_pbe
                0xffffffff881baa91                mbedtls_pkcs12_pbe_sha1_rc4_128
                0xffffffff881baaf9                mbedtls_pkcs5_pbkdf2_hmac
                0xffffffff881babf9                mbedtls_pkcs5_pbes2
                0xffffffff881badcd                mbedtls_ripemd160_clone
                0xffffffff881baddd                mbedtls_ripemd160_starts
                0xffffffff881bae0d                mbedtls_ripemd160_process
                0xffffffff881bd04d                mbedtls_ripemd160_update
                0xffffffff881bd0ed                mbedtls_ripemd160_finish
                0xffffffff881bd1b5                mbedtls_ripemd160_init
                0xffffffff881bd1c9                mbedtls_ripemd160_free
                0xffffffff881bd1e1                mbedtls_ripemd160
                0xffffffff881bd225                mbedtls_sha1_clone
                0xffffffff881bd235                mbedtls_sha1_starts
                0xffffffff881bd265                mbedtls_sha1_process
                0xffffffff881be9b5                mbedtls_sha1_update
                0xffffffff881bea55                mbedtls_sha1_finish
                0xffffffff881beb1d                mbedtls_sha1_init
                0xffffffff881beb31                mbedtls_sha1_free
                0xffffffff881beb49                mbedtls_sha1
                0xffffffff881beb8d                mbedtls_sha256_clone
                0xffffffff881beb9d                mbedtls_sha256_starts
                0xffffffff881bec29                mbedtls_sha256_process
                0xffffffff881bf8fd                mbedtls_sha256_update
                0xffffffff881bf99d                mbedtls_sha256_finish
                0xffffffff881bfaa1                mbedtls_sha256_init
                0xffffffff881bfab5                mbedtls_sha256_free
                0xffffffff881bfacd                mbedtls_sha256
                0xffffffff881bfb11                mbedtls_ssl_ciphersuite_from_id
                0xffffffff881bfb29                mbedtls_ssl_list_ciphersuites
                0xffffffff881bfb85                mbedtls_ssl_get_ciphersuite_name
                0xffffffff881bfba1                mbedtls_ssl_get_ciphersuite_sig_pk_alg
                0xffffffff881bfbbd                mbedtls_ssl_ciphersuite_uses_psk
                0xffffffff881c1899                mbedtls_ssl_handshake_client_step
                0xffffffff881c29f1                mbedtls_x509_time_is_past
                0xffffffff881c29f5                mbedtls_x509_time_is_future
                0xffffffff881c29f9                mbedtls_x509_key_size_helper
                0xffffffff881c2a25                mbedtls_x509_serial_gets
                0xffffffff881c2ad9                mbedtls_x509_sig_alg_gets
                0xffffffff881c2b99                mbedtls_x509_dn_gets
                0xffffffff881c2ca5                mbedtls_x509_get_ext
                0xffffffff881c2d05                mbedtls_x509_get_sig
                0xffffffff881c2d51                mbedtls_x509_get_time
                0xffffffff881c2ea9                mbedtls_x509_get_name
                0xffffffff881c2fd1                mbedtls_x509_get_serial
                0xffffffff881c302d                mbedtls_x509_get_alg
                0xffffffff881c3049                mbedtls_x509_get_alg_null
                0xffffffff881c3065                mbedtls_x509_get_rsassa_pss_params
                0xffffffff881c324d                mbedtls_x509_get_sig_alg
                0xffffffff881c32d9                mbedtls_arc4_setup
                0xffffffff881c3335                mbedtls_arc4_crypt
                0xffffffff881c33a1                mbedtls_arc4_init
                0xffffffff881c33b5                mbedtls_arc4_free
                0xffffffff881c33cd                mbedtls_asn1_write_len
                0xffffffff881c34b9                mbedtls_asn1_write_tag
                0xffffffff881c34d5                mbedtls_asn1_write_mpi
                0xffffffff881c3609                mbedtls_blowfish_setkey
                0xffffffff881c3705                mbedtls_blowfish_crypt_ecb
                0xffffffff881c37bd                mbedtls_blowfish_crypt_cfb64
                0xffffffff881c384d                mbedtls_blowfish_crypt_ctr
                0xffffffff881c38bd                mbedtls_blowfish_crypt_cbc
                0xffffffff881c397d                mbedtls_blowfish_init
                0xffffffff881c3991                mbedtls_blowfish_free
                0xffffffff881c3a85                mbedtls_camellia_crypt_ecb
                0xffffffff881c3c05                mbedtls_camellia_crypt_cfb128
                0xffffffff881c3c95                mbedtls_camellia_crypt_ctr
                0xffffffff881c3d05                mbedtls_camellia_crypt_cbc
                0xffffffff881c3dc5                mbedtls_camellia_setkey_enc
                0xffffffff881c42bd                mbedtls_camellia_init
                0xffffffff881c42d1                mbedtls_camellia_free
                0xffffffff881c42e9                mbedtls_camellia_setkey_dec
                0xffffffff881c4395                mbedtls_ccm_init
                0xffffffff881c46c5                mbedtls_ccm_auth_decrypt
                0xffffffff881c4735                mbedtls_ccm_encrypt_and_tag
                0xffffffff881c4769                mbedtls_ccm_free
                0xffffffff881c4785                mbedtls_ccm_setkey
                0xffffffff881c47d9                mbedtls_md4_clone
                0xffffffff881c47e9                mbedtls_md4_starts
                0xffffffff881c4811                mbedtls_md4_process
                0xffffffff881c5139                mbedtls_md4_update
                0xffffffff881c51d9                mbedtls_md4_finish
                0xffffffff881c528d                mbedtls_md4_init
                0xffffffff881c52a1                mbedtls_md4_free
                0xffffffff881c52b9                mbedtls_md4
                0xffffffff881c52fd                GIZWITS_GetSocket
                0xffffffff881c5321                cloud_do_one_packet
                0xffffffff881c538d                GIZWITS_Close
                0xffffffff881c5409                GIZWITS_Ping
                0xffffffff881c543d                GIZWITS_DoReceive
                0xffffffff881c5481                GIZWITS_Send
                0xffffffff881c550d                GIZWITS_Connect
                0xffffffff881c5561                GIZWITS_GetConfig
                0xffffffff881c558d                cloud_push_ota
                0xffffffff881c5645                cloud_send_data
                0xffffffff881c5845                cloud_mqtt_connect
                0xffffffff881c5ba5                send_packet
                0xffffffff881c5bb9                cloud_trans_data
                0xffffffff881c5c99                get_one_cloud_packet
                0xffffffff881c6009                cloud_do_mqtt
                0xffffffff881c620d                cloud_mqtt_ping
                0xffffffff881c62b9                cloud_register_safe
                0xffffffff881c66d9                cloud_provision_safe
                0xffffffff881c6c61                cloud_init
                0xffffffff881c6e91                emqtt_num_rem_len_bytes
                0xffffffff881c6eb5                emqtt_parse_rem_len
                0xffffffff881c6edd                emqtt_parse_msg_id
                0xffffffff881c6f35                emqtt_set_alive
                0xffffffff881c6f49                emqtt_ping
                0xffffffff881c6fa1                emqtt_subscribe
                0xffffffff881c70d9                emqtt_publish_with_qos
                0xffffffff881c72bd                emqtt_connect
                0xffffffff881c74e9                emqtt_init_auth
                0xffffffff881c7521                emqtt_init
                0xffffffff881c7599                HexToStr
                0xffffffff881c7611                StrToHex_noSpace
                0xffffffff881c769d                mqtt_length2bytes
                0xffffffff881c76cd                write_config
                0xffffffff881c7721                parse_config
                0xffffffff881c7785                readn
                0xffffffff881c77c1                set_sock_time
                0xffffffff881c7831                sock_connect_by_domain
                0xffffffff881c799d                writen
                0xffffffff881c79ed                log_debug

.irqsram        0xffffffff81c00280      0x2e0 load address 0xffffffff88014330
 hex/gps/SW_V2131_csdk.elf(.irqsram)
 .irqsram       0xffffffff81c00280      0x2e0 hex/gps/SW_V2131_csdk.elf
                0xffffffff81c00280                _sxr_Irq_handler

.bcpu_rom_version_number
                0xffffffff81e97ff8        0x4
 hex/gps/SW_V2131_csdk.elf(.bcpu_rom_version_number)
 .bcpu_rom_version_number
                0xffffffff81e97ff8        0x4 hex/gps/SW_V2131_csdk.elf
                0xffffffff81e97ff8                _bcpu_rom_version_number
                0xffffffff81e97ff8                g_bcpuRomVersionNumber

.ucbackup       0xffffffffa2056e00       0x10
 hex/gps/SW_V2131_csdk.elf(.ucbackup)
 .ucbackup      0xffffffffa2056e00       0x10 hex/gps/SW_V2131_csdk.elf
                0xffffffffa2056e04                g_stackAutoCallStruct

.main_entry_section
                0xffffffff88013ed0      0x460
 hex/gps/SW_V2131_csdk.elf(.main_entry_section)
 .main_entry_section
                0xffffffff88013ed0      0x460 hex/gps/SW_V2131_csdk.elf
                0xffffffff88013ed0                _code_base
                0xffffffff88013ed0                boot_LoaderEnter
                0xffffffff88013f0c                boot_FlashProgrammed
                0xffffffff88013f28                boot_BreakBootMain
                0xffffffff88013f5c                boot_Loader
                0xffffffff88014330                _board_config_end
                0xffffffff88014330                _board_config_start

.boot_sector_struct
                0xffffffff81c00220       0x1c
 hex/gps/SW_V2131_csdk.elf(.boot_sector_struct)
 .boot_sector_struct
                0xffffffff81c00220       0x1c hex/gps/SW_V2131_csdk.elf

.ucbss          0xffffffffa2056e20    0x24140
 hex/gps/SW_V2131_csdk.elf(.ucbss)
 .ucbss         0xffffffffa2056e20    0x24140 hex/gps/SW_V2131_csdk.elf
                0xffffffffa2056e20                g_pxts_buffer
                0xffffffffa2074080                g_UsbBulkOut
                0xffffffffa2076080                g_UsbBulkIn
                0xffffffffa2078080                g_calibUsedSw
                0xffffffffa2078100                g_calibHstOpInfo
                0xffffffffa2078108                g_calibHstXcv
                0xffffffffa20781b0                g_calibHstPa
                0xffffffffa20793dc                g_calibHstSw
                0xffffffffa207945c                g_calibHstBb
                0xffffffffa2079de8                g_calibHstIIR
                0xffffffffa2079ed8                g_calibStubGlobalCtxPtr
                0xffffffffa2079edc                g_calibStubGlobalCtx
                0xffffffffa207a3f4                g_calibStubGlobalNstCtx
                0xffffffffa207af54                g_calibStubGlobalNstCtxPtr

.bbsram_patch_data
                0xffffffff81987880       0x30 load address 0xffffffff880126a0
 hex/gps/SW_V2131_csdk.elf(.bbsram_patch_data)
 .bbsram_patch_data
                0xffffffff81987880       0x30 hex/gps/SW_V2131_csdk.elf
                0xffffffff81987880                Copy_ChModeSaic
                0xffffffff81987880                _bb_sram_patch_data_start
                0xffffffff81987884                Rx_q_CCHSaic
                0xffffffff819878a4                Rx_CS_Saic
                0xffffffff819878a8                decodedUsfSaic
                0xffffffff819878ac                gUsfDistance
                0xffffffff819878ae                gDistance_max
                0xffffffff819878b0                _bb_sram_patch_data_end

.bcpu_rotext    0xffffffff88011100      0x510
 hex/gps/SW_V2131_csdk.elf(.bcpu_rotext)
 .bcpu_rotext   0xffffffff88011100      0x510 hex/gps/SW_V2131_csdk.elf
                0xffffffff88011101                bcpu_main
                0xffffffff880114d1                patch_Open
                0xffffffff88011535                patch_GetLocation
                0xffffffff8801155d                patch_Enable
                0xffffffff88011581                patch_ReplaceFunction

.ucdata         0xffffffffa2017110      0x230 load address 0xffffffff88031e50
 hex/gps/SW_V2131_csdk.elf(.ucdata)
 .ucdata        0xffffffffa2017110      0x230 hex/gps/SW_V2131_csdk.elf
                0xffffffffa2017110                g_halLpsForceNoSleep
                0xffffffffa2017110                _ram_uncached_data_start
                0xffffffffa2017114                g_halTraceSwitchPortCmd
                0xffffffffa2017118                g_pmdMapVersion
                0xffffffffa2017128                g_pmdMapAccess
                0xffffffffa201718c                g_sxsDebugIdleHookEnable
                0xffffffffa2017190                g_voisMapVersion
                0xffffffffa20171a0                g_vppMapVersion
                0xffffffffa20171b0                g_vppMapAccess
                0xffffffffa20171b0                g_arsMapVersion
                0xffffffffa20171c0                g_audMapVersion
                0xffffffffa20171c0                g_arsMapAccess
                0xffffffffa20171d0                g_calibCalibration
                0xffffffffa20171d0                g_audMapAccess
                0xffffffffa2017220                hal_cacheFlushLine
                0xffffffffa2017260                g_halMapVersion
                0xffffffffa2017270                g_palMapVersion
                0xffffffffa2017280                g_palMapAccess
                0xffffffffa2017280                g_cswMapVersion
                0xffffffffa2017280                g_rfdMapAccess
                0xffffffffa2017290                g_stdMapVersion
                0xffffffffa2017290                g_cswMapAccess
                0xffffffffa20172a0                g_sxMapVersion
                0xffffffffa20172a0                g_stdMapAccess
                0xffffffffa20172b0                g_sxMapAccess
                0xffffffffa20172d0                g_voisCtx

.data           0xffffffff82017340    0x3fa20 load address 0xffffffff88032080
 hex/gps/SW_V2131_csdk.elf(.data)
 .data          0xffffffff82017340    0x3fa20 hex/gps/SW_V2131_csdk.elf
                0xffffffff82017340                _ram_cached_data_start
                0xffffffff82017348                g_voiceMuteEnabled
                0xffffffff820173d8                pal_low_rla_var
                0xffffffff820173d9                pal_snr_factor_var
                0xffffffff820173da                pal_pll_lock_time
                0xffffffff820173dc                g_pmdChargerInIrqEnabled
                0xffffffff82017430                sim_ElementaryFileAddress
                0xffffffff82017784                sim_FilePath
                0xffffffff82017c84                sim_FilePathLength
                0xffffffff82017d5c                g_F
                0xffffffff82017d7c                g_D
                0xffffffff82017d8c                g_sim_status
                0xffffffff82017d90                Dummy_SST_StatusData
                0xffffffff82017da0                Dummy_SST_BinaryData
                0xffffffff82017dac                Dummy_AD_StatusData
                0xffffffff82017dbc                Dummy_LOCI_StatusData
                0xffffffff82017dcc                Dummy_LOCI_BinaryData
                0xffffffff82017dd8                Dummy_ACC_BinaryData
                0xffffffff82017ddc                default_content
                0xffffffff82017e5c                sm_Fsm
                0xffffffff82017fbc                snd_Fsm
                0xffffffff8201811c                ss_Fsm
                0xffffffff8201812c                sxr_ProfileCfg
                0xffffffff82018130                g_sxTraceEnabled
                0xffffffff82018134                g_tgtPmdCfg
                0xffffffff82018288                pstr_remind
                0xffffffff820182e4                g_vppSpeechMainCode
                0xffffffff82018e74                g_vppHrCode
                0xffffffff8201d1a0                g_vppEfrAmrCode
                0xffffffff8201eee0                g_vppFrCode
                0xffffffff82020cec                g_vppAmrCode
                0xffffffff82021f18                g_vppEfrCode
                0xffffffff82023020                g_vppAmrEncCode475
                0xffffffff82023fcc                g_vppAmrEncCode515
                0xffffffff82024cac                g_vppAmrEncCode59
                0xffffffff82025950                g_vppAmrEncCode67
                0xffffffff820266c4                g_vppAmrEncCode74
                0xffffffff820273c0                g_vppAmrEncCode795
                0xffffffff82028364                g_vppAmrEncCode102
                0xffffffff820292a4                g_vppAmrEncCode122
                0xffffffff8202a268                g_vppAmrDecCode475
                0xffffffff8202a760                g_vppAmrDecCode515
                0xffffffff8202ac3c                g_vppAmrDecCode59
                0xffffffff8202b130                g_vppAmrDecCode67
                0xffffffff8202b4e4                g_vppAmrDecCode74
                0xffffffff8202b798                g_vppAmrDecCode795
                0xffffffff8202bac8                g_vppAmrDecCode102
                0xffffffff8202be80                g_vppAmrDecCode122
                0xffffffff8202c378                g_vppEfrAmrConstX
                0xffffffff8202ef00                g_vppEfrAmrConstY
                0xffffffff82032cf0                g_vppHrConstX
                0xffffffff8203413c                g_vppHrConstY
                0xffffffff82036a58                g_vppAecConstantX
                0xffffffff82036cb8                g_vppAecCode
                0xffffffff82039124                g_vppNoiseSuppressCode
                0xffffffff8203af74                g_vppNoiseSuppressConstantX
                0xffffffff8203be68                g_vppAgcCode
                0xffffffff8203d014                g_vppAgcConstantX
                0xffffffff8203d1a4                g_api_mm_t3302_default_value
                0xffffffff8203d1a8                g_api_sm_t3380_value
                0xffffffff8203d1a9                g_api_sm_t3390_value
                0xffffffff8203d1aa                g_api_sm_t3380_maxcount
                0xffffffff8203d1ab                g_api_sm_t3390_maxcount
                0xffffffff8203d1ac                Api_Fsm
                0xffffffff8203d1cc                musicItf
                0xffffffff8203d1e1                turn_key
                0xffffffff8203d1e2                g_calibStubTaskId
                0xffffffff8203d1e3                g_calibStubMbx
                0xffffffff8203d1e4                cb_Fsm
                0xffffffff8203d204                ccStateTab
                0xffffffff8203d210                cc_Fsm
                0xffffffff8203d220                g_BUZZER_set
                0xffffffff8203d224                GPIO_VIBRATING
                0xffffffff8203d225                BzVolume
                0xffffffff8203d228                DM_Note_Table
                0xffffffff8203d288                uLcdLevel
                0xffffffff8203d289                uKeyLevel
                0xffffffff8203d28c                gTone_Audio_Total_time
                0xffffffff8203d290                g_mic_gain
                0xffffffff8203d294                term_slefdefine
                0xffffffff8203d2a4                selfdefine_tone
                0xffffffff8203d2ac                cii_tone_sate
                0xffffffff8203d2b0                gAudio_mode
                0xffffffff8203d2b4                audio_cfg
                0xffffffff8203d2c4                audioStream
                0xffffffff8203d2e0                spkLevelBackup
                0xffffffff8203d2e4                micLevelBackup
                0xffffffff8203d2e8                PowerOn_Cause
                0xffffffff8203d2ec                g_rfdILossInit
                0xffffffff8203d334                dtmfValid
                0xffffffff8203d338                col_threshold
                0xffffffff8203d33c                dtmf_dt_flag
                0xffffffff8203d340                g_fs_sem
                0xffffffff8203d344                g_fs_cfg
                0xffffffff8203dfd8                g_halSdmmcWriteCh
                0xffffffff8203dfd9                g_halSdmmcReadCh
                0xffffffff8203e11c                l1_PUlDumCtrl
                0xffffffff8203e134                l1s_L2FillFrame
                0xffffffff8203e150                lap_Fsm
                0xffffffff8203e190                lle_Fsm
                0xffffffff8203e2ac                TmsiInvalid
                0xffffffff8203e2b0                LaiInvalid
                0xffffffff8203e2b4                PTmsiSignInvalid
                0xffffffff8203e2b8                mmc_Fsm
                0xffffffff8203e2d8                mmp_Fsm
                0xffffffff8203e2f8                g_Sim0VoltLevel
                0xffffffff8203e2f9                g_Sim1VoltLevel
                0xffffffff8203e2fa                g_Sim2VoltLevel
                0xffffffff8203e2fb                g_Sim3VoltLevel
                0xffffffff8203e2fc                g_palEtuClkInvFlag
                0xffffffff8203e300                g_TS
                0xffffffff8203e304                g_palSimList
                0xffffffff8203e318                g_rfdMapVersion
                0xffffffff8203e328                rldDataSizeCS
                0xffffffff8203e32c                rlu_Fsm
                0xffffffff8203e388                rr_MultislotCap
                0xffffffff8203e3ac                rrd_Fsm
                0xffffffff8203e3cc                rri_CFsm
                0xffffffff8203e3ec                rri_PFsm
                0xffffffff8203e40c                rrp_PRachCause
                0xffffffff8203e414                sap_StackCfgDefal
                0xffffffff8203e46c                sap_StackDynCfgVal
                0xffffffff8203e470                GsimUnaware
                0xffffffff8203e490                smc_MO_Fsm
                0xffffffff8203e4b0                smc_MT_Fsm
                0xffffffff8203e4d0                smr_MO_Fsm
                0xffffffff8203e4f0                smr_MT_Fsm
                0xffffffff8203e510                g_stackMapVersion
                0xffffffff8203e520                g_stackMapAccess
                0xffffffff8203e534                g_GcScane
                0xffffffff8203e64c                g_amplitude
                0xffffffff8203e650                g_durationnum
                0xffffffff8203e654                g_silencennum
                0xffffffff8203e680                sl1_L2FillFrame
                0xffffffff8203e6a0                CSN1Action_cc_444111116_Actions
                0xffffffff8203e6c4                CSN1Action_cc_931186599_Actions
                0xffffffff8203e708                CSN1Action_cc_400867018_Actions
                0xffffffff8203e72c                CSN1Action_cc_1201086337_Actions
                0xffffffff8203e750                CSN1Action_cc_3815527810_Actions
                0xffffffff8203e794                CSN1Action_cc_4122251973_Actions
                0xffffffff8203e7b8                CSN1Action_cc_3248223767_Actions
                0xffffffff8203e7dc                CSN1Action_cc_2858390854_Actions
                0xffffffff8203e800                CSN1Action_cc_2573661299_Actions
                0xffffffff8203e824                CSN1Action_cc_2151347776_Actions
                0xffffffff8203e848                CSN1Action_cc_3003357045_Actions
                0xffffffff8203e86c                CSN1Action_cc_133130082_Actions
                0xffffffff8203e890                CSN1Action_cc_3775613770_Actions
                0xffffffff8203e8b4                CSN1Action_cc_1725880936_Actions
                0xffffffff8203e8d8                CSN1Action_cc_3108273707_Actions
                0xffffffff8203e8fc                CSN1Action_cc_1075303956_Actions
                0xffffffff8203e920                CSN1Action_cc_49129937_Actions
                0xffffffff8203e944                CSN1Action_cc_2659164212_Actions
                0xffffffff8203e968                CSN1Action_cc_634812366_Actions
                0xffffffff8203e98c                CSN1Action_cc_1706666803_Actions
                0xffffffff8203e9b0                CSN1Action_cc_820373715_Actions
                0xffffffff8203e9d4                CSN1Action_cc_2242778983_Actions
                0xffffffff8203ea18                CSN1Action_cc_3797123900_Actions
                0xffffffff8203ea3c                CSN1Action_cc_626852723_Actions
                0xffffffff8203ea60                CSN1Action_cc_4124638579_Actions
                0xffffffff8203ea84                CSN1Action_cc_852917564_Actions
                0xffffffff8203eaa8                CSN1Action_cc_3910935046_Actions
                0xffffffff8203eab4                CSN1Action_cc_1841477667_Actions
                0xffffffff8203eadc                CSN1Action_cc_3603190230_Actions
                0xffffffff8203eaec                CSN1Action_cc_2000878133_Actions
                0xffffffff8203eb7c                CSN1Action_cc_1551163954_Actions
                0xffffffff8203ebc4                CSN1Action_cc_2988756088_Actions
                0xffffffff8203ebd0                CSN1Action_cc_1299413427_Actions
                0xffffffff8203ebdc                CSN1Action_cc_1370079816_Actions
                0xffffffff8203ebe4                CSN1Action_cc_2668768181_Actions
                0xffffffff8203ebf4                CSN1Action_cc_275842905_Actions
                0xffffffff8203ec08                CSN1Action_cc_2888958485_Actions
                0xffffffff8203ec30                CSN1Action_cc_532227770_Actions
                0xffffffff8203ec3c                CSN1Action_cc_1707433197_Actions
                0xffffffff8203ec48                CSN1Action_cc_813585101_Actions
                0xffffffff8203ec54                CSN1Action_cc_2686291257_Actions
                0xffffffff8203ec60                CSN1Action_cc_2986951842_Actions
                0xffffffff8203ec6c                CSN1Action_cc_3974991088_Actions
                0xffffffff8203ec78                CSN1Action_cc_2128213795_Actions
                0xffffffff8203ec84                CSN1Action_cc_727906563_Actions
                0xffffffff8203ec90                CSN1Action_cc_1754470270_Actions
                0xffffffff8203ec9c                CSN1Action_cc_193127317_Actions
                0xffffffff8203eccc                CSN1Action_cc_3375202559_Actions
                0xffffffff8203ecf8                CSN1Action_cc_1245712084_Actions
                0xffffffff8203ed28                CSN1Action_cc_3266869057_Actions
                0xffffffff8203ed3c                CSN1Action_cc_1476502180_Actions
                0xffffffff8203ed4c                CSN1Action_cc_3353783689_Actions
                0xffffffff8203ed58                CSN1Action_cc_1653083693_Actions
                0xffffffff8203ed60                CSN1Action_cc_681416798_Actions
                0xffffffff8203ed6c                CSN1Action_cc_796677307_Actions
                0xffffffff8203ed78                CSN1Action_cc_2766579062_Actions
                0xffffffff8203ed84                CSN1Action_cc_1420649506_Actions
                0xffffffff8203ed90                CSN1Action_cc_827491236_Actions
                0xffffffff8203ed9c                CSN1Action_cc_262541364_Actions
                0xffffffff8203edb0                CSN1Action_cc_2207852933_Actions
                0xffffffff8203edc0                CSN1Action_cc_3020789524_Actions
                0xffffffff8203edcc                CSN1Action_cc_4197697887_Actions
                0xffffffff8203ede0                CSN1Action_cc_1303189246_Actions
                0xffffffff8203ede8                CSN1Action_cc_3201809906_Actions
                0xffffffff8203edf0                CSN1Action_cc_4051522621_Actions
                0xffffffff8203ee04                CSN1Action_cc_3409003004_Actions
                0xffffffff8203ee10                CSN1Action_cc_4073983436_Actions
                0xffffffff8203ee1c                CSN1Action_cc_3664392443_Actions
                0xffffffff8203ee28                CSN1Action_cc_3703184713_Actions
                0xffffffff8203ee34                CSN1Action_cc_3445233437_Actions
                0xffffffff8203ee40                CSN1Action_cc_840315633_Actions
                0xffffffff8203ee54                CSN1Action_cc_2024367848_Actions
                0xffffffff8203eec8                CSN1Action_cc_1465459865_Actions
                0xffffffff8203eef8                CSN1Action_cc_3501688733_Actions
                0xffffffff8203ef0c                CSN1Action_cc_377527041_Actions
                0xffffffff8203ef20                CSN1Action_cc_3331057133_Actions
                0xffffffff8203ef34                CSN1Action_cc_2226886432_Actions
                0xffffffff8203ef54                CSN1Action_cc_2934334830_Actions
                0xffffffff8203ef60                CSN1Action_cc_3400590874_Actions
                0xffffffff8203ef6c                CSN1Action_cc_3382778295_Actions
                0xffffffff8203ef78                CSN1Action_cc_67122536_Actions
                0xffffffff8203ef84                CSN1Action_cc_2294833426_Actions
                0xffffffff8203ef90                CSN1Action_cc_4208198203_Actions
                0xffffffff8203ef9c                CSN1Action_cc_3555498293_Actions
                0xffffffff8203efa8                CSN1Action_cc_1671890077_Actions
                0xffffffff8203efbc                CSN1Action_cc_2762580295_Actions
                0xffffffff8203efe4                CSN1Action_cc_2473740054_Actions
                0xffffffff8203eff4                CSN1Action_cc_2266540147_Actions
                0xffffffff8203f040                CSN1Action_cc_3536840962_Actions
                0xffffffff8203f070                CSN1Action_cc_843726042_Actions
                0xffffffff8203f0b8                CSN1Action_cc_3710005275_Actions
                0xffffffff8203f0c4                CSN1Action_cc_3749297656_Actions
                0xffffffff8203f0d0                CSN1Action_cc_1897139565_Actions
                0xffffffff8203f0dc                CSN1Action_cc_410193901_Actions
                0xffffffff8203f0e8                CSN1Action_cc_2385887278_Actions
                0xffffffff8203f0f4                CSN1Action_cc_4224949542_Actions
                0xffffffff8203f0fc                CSN1Action_cc_3605156616_Actions
                0xffffffff8203f124                CSN1Action_cc_4182485271_Actions
                0xffffffff8203f134                CSN1Action_cc_1040633023_Actions
                0xffffffff8203f1a8                CSN1Action_cc_210500043_Actions
                0xffffffff8203f1d0                CSN1Action_cc_2213595614_Actions
                0xffffffff8203f1e0                CSN1Action_cc_1683811483_Actions
                0xffffffff8203f210                CSN1Action_cc_607771889_Actions
                0xffffffff8203f258                CSN1Action_cc_4010734005_Actions
                0xffffffff8203f268                CSN1Action_cc_3570087538_Actions
                0xffffffff8203f290                CSN1Action_cc_3766743187_Actions
                0xffffffff8203f2a0                CSN1Action_cc_2826991294_Actions
                0xffffffff8203f330                CSN1Action_cc_907963356_Actions
                0xffffffff8203f378                CSN1Action_cc_809346664_Actions
                0xffffffff8203f384                CSN1Action_cc_4172668897_Actions
                0xffffffff8203f390                CSN1Action_cc_1713566261_Actions
                0xffffffff8203f39c                CSN1Action_cc_3170572631_Actions
                0xffffffff8203f3a8                CSN1Action_cc_1897261891_Actions
                0xffffffff8203f3b4                CSN1Action_cc_988398749_Actions
                0xffffffff8203f3c0                CSN1Action_cc_137022685_Actions
                0xffffffff8203f3cc                CSN1Action_cc_2947784073_Actions
                0xffffffff8203f3d4                CSN1Action_cc_2079062065_Actions
                0xffffffff8203f3e8                CSN1Action_cc_1681691394_Actions
                0xffffffff8203f3f4                CSN1Action_cc_2635619618_Actions
                0xffffffff8203f400                CSN1Action_cc_1456211332_Actions
                0xffffffff8203f414                CSN1Action_cc_3752490235_Actions
                0xffffffff8203f41c                CSN1Action_cc_1352558557_Actions
                0xffffffff8203f424                CSN1Action_cc_3675174633_Actions
                0xffffffff8203f434                CSN1Action_cc_2705093056_Actions
                0xffffffff8203f448                CSN1Action_cc_215255762_Actions
                0xffffffff8203f478                CSN1Action_cc_310141753_Actions
                0xffffffff8203f4a8                CSN1Action_cc_866215047_Actions
                0xffffffff8203f4d0                CSN1Action_cc_3942000816_Actions
                0xffffffff8203f4e0                CSN1Action_cc_2547294548_Actions
                0xffffffff8203f52c                CSN1Action_cc_599709352_Actions
                0xffffffff8203f55c                CSN1Action_cc_3446269274_Actions
                0xffffffff8203f5a4                CSN1Action_cc_3414644666_Actions
                0xffffffff8203f5cc                CSN1Action_cc_3686771038_Actions
                0xffffffff8203f5dc                CSN1Action_cc_1301849335_Actions
                0xffffffff8203f650                IND_EVENT_general
                0xffffffff8203f654                MemoryInfo
                0xffffffff8203f678                gprs_flow_ctrl_G
                0xffffffff8203f67c                nonIpMtu
                0xffffffff8203f684                nMEProfileSIM
                0xffffffff8203f6a8                nMEProfileUSIM
                0xffffffff8203f6cc                gSimStatus
                0xffffffff8203f6e4                gTempPin
                0xffffffff8203f6f0                CommandDetails
                0xffffffff8203f6fc                DeviceIdentities
                0xffffffff8203f704                CallControlDownload
                0xffffffff8203f70c                gSatPollTimer
                0xffffffff8203f714                g_cfw_sms_max_num
                0xffffffff8203f718                gSmsService
                0xffffffff8203f734                CSN1Action_FAIL
                0xffffffff8203f738                CSN1Action_SUCCESS
                0xffffffff8203f73c                CSN1Action_NULL
                0xffffffff8203f80c                e2p_HRSupported
                0xffffffff8203f810                g_halOverlayOwners
                0xffffffff8203f818                CSN1Action_mm_1623356742
                0xffffffff8203f81c                CSN1Action_mm_812881617
                0xffffffff8203f820                CSN1Action_mm_2109956447
                0xffffffff8203f824                CSN1Action_mm_3106624490
                0xffffffff8203f828                CSN1Action_mm_3793200950_Actions
                0xffffffff8203f834                CSN1Action_mm_3793200950
                0xffffffff8203f83c                CSN1Action_mm_452156319
                0xffffffff8203f840                CSN1Action_mm_3915230450
                0xffffffff8203f844                CSN1Action_mm_1949137066
                0xffffffff8203f848                CSN1Action_mm_2687984519
                0xffffffff8203f84c                CSN1Action_mm_3454008772
                0xffffffff8203f850                CSN1Action_mm_2497997005
                0xffffffff8203f854                CSN1Action_mm_906338781_Actions
                0xffffffff8203f85c                CSN1Action_mm_906338781
                0xffffffff8203f864                CSN1Action_mm_3458707629
                0xffffffff8203f868                CSN1Action_mm_3089161910
                0xffffffff8203f86c                CSN1Action_mm_4219277482
                0xffffffff8203f870                CSN1Action_mm_3473561638
                0xffffffff8203f874                CSN1Action_mm_378923677
                0xffffffff8203f878                CSN1Action_mm_2828025132_Actions
                0xffffffff8203f884                CSN1Action_mm_2828025132
                0xffffffff8203f88c                CSN1Action_mm_3663591043
                0xffffffff8203f89c                CSN1Action_mm_305719935
                0xffffffff8203f8a0                CSN1Action_mm_1031329792
                0xffffffff8203f8b0                CSN1Action_mm_816369318
                0xffffffff8203f8b4                CSN1Action_mm_898331810_Actions
                0xffffffff8203f8bc                CSN1Action_mm_898331810
                0xffffffff8203f8c4                CSN1Action_mm_2519741375
                0xffffffff8203f8c8                CSN1Action_mm_3047440023
                0xffffffff8203f8cc                CSN1Action_mm_2940555322
                0xffffffff8203f8d0                CSN1Action_mm_102177801
                0xffffffff8203f8d4                CSN1Action_mm_2228969384
                0xffffffff8203f8d8                CSN1Action_mm_2690191006
                0xffffffff8203f8dc                CSN1Action_mm_1896178442
                0xffffffff8203f8e0                CSN1Action_mm_2069162026
                0xffffffff8203f8e4                CSN1Action_mm_382868336
                0xffffffff8203f8e8                CSN1Action_mm_852952723
                0xffffffff8203f8f0                CSN1Action_mm_1588104227_Actions
                0xffffffff8203f8fc                CSN1Action_mm_1588104227
                0xffffffff8203f904                CSN1Action_mm_1426301634
                0xffffffff8203f908                CSN1Action_mm_1714678469
                0xffffffff8203f90c                CSN1Action_mm_745283224
                0xffffffff8203f910                CSN1Action_mm_3648354277
                0xffffffff8203f914                CSN1Action_mm_1019069955
                0xffffffff8203f918                CSN1Action_mm_2349324667_Actions
                0xffffffff8203f924                CSN1Action_mm_2349324667
                0xffffffff8203f92c                CSN1Action_mm_2983985688
                0xffffffff8203f93c                CSN1Action_mm_1051650937
                0xffffffff8203f940                CSN1Action_mm_3624339234_Actions
                0xffffffff8203f954                CSN1Action_mm_3624339234
                0xffffffff8203f95c                CSN1Action_mm_3243020998
                0xffffffff8203f96c                CSN1Action_mm_4006116147
                0xffffffff8203f970                CSN1Action_mm_1329795257
                0xffffffff8203f974                CSN1Action_mm_2040935313
                0xffffffff8203f978                CSN1Action_mm_1285208213_Actions
                0xffffffff8203f984                CSN1Action_mm_1285208213
                0xffffffff8203f98c                CSN1Action_mm_705805430
                0xffffffff8203f990                CSN1Action_mm_740434718_Actions
                0xffffffff8203f9a0                CSN1Action_mm_740434718
                0xffffffff8203f9a8                CSN1Action_mm_2226064234
                0xffffffff8203f9b8                CSN1Action_mm_2864229810
                0xffffffff8203f9c8                CSN1Action_mm_3264869494_Actions
                0xffffffff8203f9d0                CSN1Action_mm_3264869494
                0xffffffff8203f9d8                CSN1Action_mm_976167061
                0xffffffff8203f9dc                CSN1Action_mm_2383332620
                0xffffffff8203f9e0                CSN1Action_mm_348479049
                0xffffffff8203f9e4                CSN1Action_mm_1105332698
                0xffffffff8203f9f4                CSN1Action_mm_3925280648
                0xffffffff8203f9f8                CSN1Action_mm_1748033528_Actions
                0xffffffff8203fa04                CSN1Action_mm_1748033528
                0xffffffff8203fa0c                CSN1Action_mm_2354150077
                0xffffffff8203fa10                CSN1Action_mm_3307903284
                0xffffffff8203fa14                CSN1Action_mm_2490248654
                0xffffffff8203fa18                CSN1Action_mm_3587088796
                0xffffffff8203fa1c                CSN1Action_mm_503608320_Actions
                0xffffffff8203fa3c                CSN1Action_mm_503608320
                0xffffffff8203fa44                CSN1Action_mm_2904529805
                0xffffffff8203fa48                CSN1Action_mm_3603340544
                0xffffffff8203fa4c                CSN1Action_mm_445249957
                0xffffffff8203fa50                CSN1Action_mm_370274160
                0xffffffff8203fa54                CSN1Action_mm_1286476466
                0xffffffff8203fa58                CSN1Action_mm_2430021842
                0xffffffff8203fa5c                CSN1Action_mm_791498803
                0xffffffff8203fa60                CSN1Action_mm_390578230
                0xffffffff8203fa64                CSN1Action_mm_4139192109
                0xffffffff8203fa68                CSN1Action_mm_64959846
                0xffffffff8203fa6c                CSN1Action_mm_2387339982
                0xffffffff8203fa70                CSN1Action_mm_1690988736_Actions
                0xffffffff8203fa7c                CSN1Action_mm_1690988736
                0xffffffff8203fa84                CSN1Action_mm_2335260607
                0xffffffff8203fa88                CSN1Action_mm_313259946
                0xffffffff8203fa8c                CSN1Action_mm_392853104
                0xffffffff8203fa90                CSN1Action_mm_2067045791
                0xffffffff8203fa94                CSN1Action_mm_992909587
                0xffffffff8203fa98                CSN1Action_mm_3501535647
                0xffffffff8203fa9c                CSN1Action_mm_2421815279
                0xffffffff8203faac                CSN1Action_mm_3557132037
                0xffffffff8203fab0                CSN1Action_mm_4018032394
                0xffffffff8203fab4                CSN1Action_mm_3417461136
                0xffffffff8203fac4                CSN1Action_mm_4035434035
                0xffffffff8203fac8                CSN1Action_mm_3863658337_Actions
                0xffffffff8203fae8                CSN1Action_mm_3863658337
                0xffffffff8203faf0                CSN1Action_mm_3368039029
                0xffffffff8203faf4                CSN1Action_mm_2814179522_Actions
                0xffffffff8203fb00                CSN1Action_mm_2814179522
                0xffffffff8203fb08                CSN1Action_mm_1980997949
                0xffffffff8203fb18                CSN1Action_mm_2634098025
                0xffffffff8203fb1c                CSN1Action_mm_2470336396
                0xffffffff8203fb20                CSN1Action_mm_1446670203
                0xffffffff8203fb24                CSN1Action_mm_1150058242
                0xffffffff8203fb28                CSN1Action_mm_165832568
                0xffffffff8203fb2c                CSN1Action_mm_815343711
                0xffffffff8203fb30                CSN1Action_mm_654552679
                0xffffffff8203fb34                CSN1Action_mm_3103887201
                0xffffffff8203fb44                CSN1Action_mm_3112399967
                0xffffffff8203fb48                g_MmcMciMutex
                0xffffffff8203fb4c                g_WAVFILESIZE
                0xffffffff8203fb50                M51
                0xffffffff8203fb54                seed
                0xffffffff8203fb58                reachable_time
                0xffffffff8203fb5c                retrans_timer
                0xffffffff8203fb64                CSN1Action_rrd_745283224
                0xffffffff8203fb68                CSN1Action_rrd_940626461
                0xffffffff8203fb6c                CSN1Action_rrd_3047440023
                0xffffffff8203fb70                CSN1Action_rrd_2940555322
                0xffffffff8203fb74                CSN1Action_rrd_2354150077
                0xffffffff8203fb78                CSN1Action_rrd_3307903284
                0xffffffff8203fb7c                CSN1Action_rrd_2490248654
                0xffffffff8203fb80                CSN1Action_rrd_725173356_Actions
                0xffffffff8203fb90                CSN1Action_rrd_725173356
                0xffffffff8203fb98                CSN1Action_rrd_2577981689
                0xffffffff8203fb9c                CSN1Action_rrd_1887681871_Actions
                0xffffffff8203fba8                CSN1Action_rrd_1887681871
                0xffffffff8203fbb0                CSN1Action_rrd_1306676725
                0xffffffff8203fbc0                CSN1Action_rrd_4268427334
                0xffffffff8203fbc4                CSN1Action_rrd_2257836614
                0xffffffff8203fbc8                CSN1Action_rrd_4161943267_Actions
                0xffffffff8203fbd4                CSN1Action_rrd_4161943267
                0xffffffff8203fbdc                CSN1Action_rrd_1108116186
                0xffffffff8203fbec                CSN1Action_rrd_3672725872
                0xffffffff8203fbf0                CSN1Action_rrd_3169105553_Actions
                0xffffffff8203fc04                CSN1Action_rrd_3169105553
                0xffffffff8203fc0c                CSN1Action_rrd_721057967
                0xffffffff8203fc1c                CSN1Action_rrd_2164320613
                0xffffffff8203fc20                CSN1Action_rrd_1381379278
                0xffffffff8203fc30                CSN1Action_rrd_319401405
                0xffffffff8203fc34                CSN1Action_rrd_3303031633
                0xffffffff8203fc38                CSN1Action_rrd_3947361250
                0xffffffff8203fc48                CSN1Action_rrd_931921035
                0xffffffff8203fc4c                CSN1Action_rrd_899805472
                0xffffffff8203fc50                CSN1Action_rrd_18114464_Actions
                0xffffffff8203fc5c                CSN1Action_rrd_18114464
                0xffffffff8203fc64                CSN1Action_rrd_2224366378
                0xffffffff8203fc68                CSN1Action_rrd_1407900845_Actions
                0xffffffff8203fc80                CSN1Action_rrd_1407900845
                0xffffffff8203fc88                CSN1Action_rrd_682135444
                0xffffffff8203fc98                CSN1Action_rrd_1510805457
                0xffffffff8203fc9c                CSN1Action_rrd_1181260475
                0xffffffff8203fca0                CSN1Action_rrd_1724648138
                0xffffffff8203fcb0                CSN1Action_rrd_2123325159
                0xffffffff8203fcb4                CSN1Action_rrd_418297134
                0xffffffff8203fcb8                CSN1Action_rrd_3906137386_Actions
                0xffffffff8203fcc4                CSN1Action_rrd_3906137386
                0xffffffff8203fccc                CSN1Action_rrd_1594171974
                0xffffffff8203fcdc                CSN1Action_rrd_3968211519
                0xffffffff8203fce0                CSN1Action_rrd_4006116147
                0xffffffff8203fce4                CSN1Action_rrd_1031905020
                0xffffffff8203fce8                CSN1Action_rrd_4222995185_Actions
                0xffffffff8203fcf8                CSN1Action_rrd_4222995185
                0xffffffff8203fd00                CSN1Action_rrd_4071547402
                0xffffffff8203fd10                CSN1Action_rrd_3355724553
                0xffffffff8203fd14                CSN1Action_rrd_3032010578
                0xffffffff8203fd18                CSN1Action_rrd_3692219366_Actions
                0xffffffff8203fd28                CSN1Action_rrd_3692219366
                0xffffffff8203fd30                CSN1Action_rrd_3957363716
                0xffffffff8203fd40                CSN1Action_rrd_583545013
                0xffffffff8203fd50                CSN1Action_rrd_2776807507
                0xffffffff8203fd54                CSN1Action_rrd_2990339883
                0xffffffff8203fd58                CSN1Action_rrd_3603340544
                0xffffffff8203fd5c                CSN1Action_rrd_370274160
                0xffffffff8203fd60                CSN1Action_rrd_3324313283
                0xffffffff8203fd64                CSN1Action_rrd_2219928662_Actions
                0xffffffff8203fd70                CSN1Action_rrd_2219928662
                0xffffffff8203fd78                CSN1Action_rrd_1461877897
                0xffffffff8203fd88                CSN1Action_rrd_62641068
                0xffffffff8203fd8c                CSN1Action_rrd_816369318
                0xffffffff8203fd90                CSN1Action_rrd_1184185014
                0xffffffff8203fd94                CSN1Action_rrd_1512249916
                0xffffffff8203fd98                CSN1Action_rrd_343369592_Actions
                0xffffffff8203fdac                CSN1Action_rrd_343369592
                0xffffffff8203fdb4                CSN1Action_rrd_3768330895
                0xffffffff8203fdb8                CSN1Action_rrd_2247000875_Actions
                0xffffffff8203fdc4                CSN1Action_rrd_2247000875
                0xffffffff8203fdcc                CSN1Action_rrd_135794089
                0xffffffff8203fddc                CSN1Action_rrd_1254060480
                0xffffffff8203fde0                CSN1Action_rrd_4130083733
                0xffffffff8203fde4                CSN1Action_rrd_861538626_Actions
                0xffffffff8203fdf4                CSN1Action_rrd_861538626
                0xffffffff8203fdfc                CSN1Action_rrd_2516376418
                0xffffffff8203fe0c                CSN1Action_rrd_1849499894
                0xffffffff8203fe10                CSN1Action_rrd_2003684985
                0xffffffff8203fe20                CSN1Action_rrd_1859197061
                0xffffffff8203fe24                CSN1Action_rrd_1586180840_Actions
                0xffffffff8203fe30                CSN1Action_rrd_1586180840
                0xffffffff8203fe38                CSN1Action_rrd_1799979658
                0xffffffff8203fe3c                CSN1Action_rrd_2207976254_Actions
                0xffffffff8203fe48                CSN1Action_rrd_2207976254
                0xffffffff8203fe50                CSN1Action_rrd_3896439917
                0xffffffff8203fe60                CSN1Action_rrd_3465879629_Actions
                0xffffffff8203fe6c                CSN1Action_rrd_3465879629
                0xffffffff8203fe74                CSN1Action_rrd_1452974428
                0xffffffff8203fe84                CSN1Action_rrd_3268455810
                0xffffffff8203fe88                CSN1Action_rrd_802502716
                0xffffffff8203fe8c                CSN1Action_rrd_1135923121
                0xffffffff8203fe90                CSN1Action_rrd_37342690_Actions
                0xffffffff8203fe9c                CSN1Action_rrd_37342690
                0xffffffff8203fea4                CSN1Action_rrd_3046323748
                0xffffffff8203feb4                CSN1Action_rrd_1246972339
                0xffffffff8203feb8                CSN1Action_rrd_1285363278
                0xffffffff8203febc                CSN1Action_rrd_818107967
                0xffffffff8203fec0                CSN1Action_rrd_852952723
                0xffffffff8203fec8                CSN1Action_rrd_869243321
                0xffffffff8203fecc                CSN1Action_rrd_4050602733
                0xffffffff8203fed0                CSN1Action_rrd_2695541923
                0xffffffff8203fed4                CSN1Action_rrd_1212410099_Actions
                0xffffffff8203fef4                CSN1Action_rrd_1212410099
                0xffffffff8203fefc                CSN1Action_rrd_605288451
                0xffffffff8203ff0c                CSN1Action_rrd_15908375
                0xffffffff8203ff10                CSN1Action_rrd_305719935
                0xffffffff8203ff14                CSN1Action_rrd_2694151951
                0xffffffff8203ff24                CSN1Action_rrd_1566960903
                0xffffffff8203ff28                CSN1Action_rrd_43453491
                0xffffffff8203ff38                CSN1Action_rrd_2045230129
                0xffffffff8203ff3c                CSN1Action_rrd_688123492
                0xffffffff8203ff4c                CSN1Action_rrd_1838708030
                0xffffffff8203ff50                CSN1Action_rrd_2110697282
                0xffffffff8203ff60                CSN1Action_rrd_1226449928
                0xffffffff8203ff64                CSN1Action_rrd_2176988567
                0xffffffff8203ff74                CSN1Action_rrd_1836338509
                0xffffffff8203ff78                CSN1Action_rrd_220527403
                0xffffffff8203ff88                CSN1Action_rrd_1240865915
                0xffffffff8203ff8c                CSN1Action_rrd_2154547747_Actions
                0xffffffff8203ff9c                CSN1Action_rrd_2154547747
                0xffffffff8203ffa4                CSN1Action_rrd_921627107
                0xffffffff8203ffa8                CSN1Action_rrd_374799880_Actions
                0xffffffff8203ffb4                CSN1Action_rrd_374799880
                0xffffffff8203ffbc                CSN1Action_rrd_2955119003
                0xffffffff8203ffcc                CSN1Action_rrd_4286384533
                0xffffffff8203ffd0                CSN1Action_rrd_701879132
                0xffffffff8203ffd4                CSN1Action_rrd_4179589784_Actions
                0xffffffff8203ffe4                CSN1Action_rrd_4179589784
                0xffffffff8203ffec                CSN1Action_rrd_533810775
                0xffffffff8203fffc                CSN1Action_rrd_3690944675
                0xffffffff82040000                CSN1Action_rrd_1314420743
                0xffffffff82040010                CSN1Action_rrd_611381025
                0xffffffff82040014                CSN1Action_rrd_3179449490
                0xffffffff82040018                CSN1Action_rrd_1552518112_Actions
                0xffffffff82040028                CSN1Action_rrd_1552518112
                0xffffffff82040030                CSN1Action_rrd_3025564689
                0xffffffff82040040                CSN1Action_rrd_3061427193
                0xffffffff82040044                CSN1Action_rrd_691585214
                0xffffffff82040054                CSN1Action_rrd_2465987279
                0xffffffff82040058                CSN1Action_rrd_1023676628
                0xffffffff8204005c                CSN1Action_rrd_1136111960
                0xffffffff8204006c                CSN1Action_rrd_820190813
                0xffffffff82040070                CSN1Action_rrd_3943667231
                0xffffffff82040074                CSN1Action_rrd_771026597_Actions
                0xffffffff82040080                CSN1Action_rrd_771026597
                0xffffffff82040088                CSN1Action_rrd_1218195568
                0xffffffff82040098                CSN1Action_rrd_3958307049
                0xffffffff8204009c                CSN1Action_rrd_2961404821
                0xffffffff820400ac                CSN1Action_rrd_341921643
                0xffffffff820400b0                CSN1Action_rrd_4293703913
                0xffffffff820400c0                CSN1Action_rrd_957768310_Actions
                0xffffffff820400d0                CSN1Action_rrd_957768310
                0xffffffff820400d8                CSN1Action_rrd_2515158594
                0xffffffff820400e8                CSN1Action_rrd_1614661360
                0xffffffff820400ec                CSN1Action_rrd_4052952432
                0xffffffff820400fc                CSN1Action_rrd_3140493380
                0xffffffff82040100                CSN1Action_rrd_1730304484
                0xffffffff82040110                CSN1Action_rrd_2679271794
                0xffffffff82040114                CSN1Action_rrd_2430886602
                0xffffffff82040118                CSN1Action_rrd_102973751_Actions
                0xffffffff82040124                CSN1Action_rrd_102973751
                0xffffffff8204012c                CSN1Action_rrd_3869353196_Actions
                0xffffffff82040158                CSN1Action_rrd_3869353196
                0xffffffff82040160                CSN1Action_rrd_1981945723
                0xffffffff82040170                CSN1Action_rrd_423049785
                0xffffffff82040174                CSN1Action_rrd_1946900287
                0xffffffff82040184                CSN1Action_rrd_228903749
                0xffffffff82040188                CSN1Action_rrd_1896258710
                0xffffffff82040198                CSN1Action_rrd_1345558613
                0xffffffff8204019c                CSN1Action_rrd_128733942
                0xffffffff820401ac                CSN1Action_rrd_1035299599
                0xffffffff820401b0                CSN1Action_rrd_4236104023
                0xffffffff820401b4                CSN1Action_rrd_2994658505_Actions
                0xffffffff820401c0                CSN1Action_rrd_2994658505
                0xffffffff820401c8                CSN1Action_rrd_102635966
                0xffffffff820401d8                CSN1Action_rrd_1957808483
                0xffffffff820401dc                CSN1Action_rrd_3813075944
                0xffffffff820401e0                CSN1Action_rrd_988764005_Actions
                0xffffffff820401ec                CSN1Action_rrd_988764005
                0xffffffff820401f4                CSN1Action_rrd_1503952678
                0xffffffff82040204                CSN1Action_rrd_3601411569
                0xffffffff82040208                CSN1Action_rrd_294902814
                0xffffffff82040218                CSN1Action_rrd_1952313616
                0xffffffff8204021c                CSN1Action_rrd_3954002228
                0xffffffff82040220                CSN1Action_rrd_192561310_Actions
                0xffffffff8204022c                CSN1Action_rrd_192561310
                0xffffffff82040234                CSN1Action_rrd_1968255028
                0xffffffff82040244                CSN1Action_rrd_1612855327
                0xffffffff82040248                CSN1Action_rrd_206623146
                0xffffffff8204024c                CSN1Action_rrd_98495214_Actions
                0xffffffff82040258                CSN1Action_rrd_98495214
                0xffffffff82040260                CSN1Action_rrd_1995359580
                0xffffffff82040270                CSN1Action_rrd_1151363369
                0xffffffff82040274                CSN1Action_rrd_2961858479_Actions
                0xffffffff82040280                CSN1Action_rrd_2961858479
                0xffffffff82040288                CSN1Action_rrd_134145214
                0xffffffff82040298                CSN1Action_rrd_1356832806
                0xffffffff8204029c                CSN1Action_rrd_500936763
                0xffffffff820402a0                CSN1Action_rrd_2196599466
                0xffffffff820402a4                CSN1Action_rrd_1067947333
                0xffffffff820402a8                CSN1Action_rrd_2609845649_Actions
                0xffffffff820402b4                CSN1Action_rrd_2609845649
                0xffffffff820402bc                CSN1Action_rrd_1285800502
                0xffffffff820402cc                CSN1Action_rrd_690395763
                0xffffffff820402d0                CSN1Action_rrd_14819909
                0xffffffff820402d4                CSN1Action_rrd_3521060345
                0xffffffff820402d8                CSN1Action_rrd_1246453319
                0xffffffff820402dc                CSN1Action_rrd_2160226336
                0xffffffff820402e0                CSN1Action_rrd_1336578230
                0xffffffff820402e4                CSN1Action_rrd_3289763382
                0xffffffff820402e8                CSN1Action_rrd_3173535371
                0xffffffff820402ec                CSN1Action_rrd_127820280
                0xffffffff820402f0                CSN1Action_rrd_83782761_Actions
                0xffffffff82040300                CSN1Action_rrd_83782761
                0xffffffff82040308                CSN1Action_rrd_4026158073
                0xffffffff8204030c                CSN1Action_rrd_211161005_Actions
                0xffffffff82040318                CSN1Action_rrd_211161005
                0xffffffff82040320                CSN1Action_rrd_3505515953
                0xffffffff82040330                CSN1Action_rrd_3995775179
                0xffffffff82040334                CSN1Action_rrd_2277256880
                0xffffffff82040338                CSN1Action_rrd_570169241_Actions
                0xffffffff82040348                CSN1Action_rrd_570169241
                0xffffffff82040350                CSN1Action_rrd_2874891695
                0xffffffff82040360                CSN1Action_rrd_2209104785
                0xffffffff82040364                CSN1Action_rrd_2148942108
                0xffffffff82040374                CSN1Action_rrd_2804814503
                0xffffffff82040378                CSN1Action_rrd_1676974286
                0xffffffff8204037c                CSN1Action_rrd_4033811768_Actions
                0xffffffff8204038c                CSN1Action_rrd_4033811768
                0xffffffff82040394                CSN1Action_rrd_1254969784
                0xffffffff820403a4                CSN1Action_rrd_3738642674
                0xffffffff820403a8                CSN1Action_rrd_1327730987
                0xffffffff820403b8                CSN1Action_rrd_3400065533
                0xffffffff820403bc                CSN1Action_rrd_137408325_Actions
                0xffffffff820403c8                CSN1Action_rrd_137408325
                0xffffffff820403d0                CSN1Action_rrd_606676690
                0xffffffff820403e0                CSN1Action_rrd_3904400317
                0xffffffff820403e4                CSN1Action_rrd_1354286267
                0xffffffff820403e8                CSN1Action_rrd_830738382_Actions
                0xffffffff820403f8                CSN1Action_rrd_830738382
                0xffffffff82040400                CSN1Action_rrd_2514385061
                0xffffffff82040410                CSN1Action_rrd_4240941746
                0xffffffff82040414                CSN1Action_rrd_1442630865_Actions
                0xffffffff82040424                CSN1Action_rrd_1442630865
                0xffffffff8204042c                CSN1Action_rrd_795736949
                0xffffffff8204043c                CSN1Action_rrd_3426368139
                0xffffffff82040440                CSN1Action_rrd_2716306697_Actions
                0xffffffff82040450                CSN1Action_rrd_2716306697
                0xffffffff82040458                CSN1Action_rrd_3148755953
                0xffffffff82040468                CSN1Action_rrd_3628462980
                0xffffffff8204046c                CSN1Action_rrd_1910817308_Actions
                0xffffffff8204047c                CSN1Action_rrd_1910817308
                0xffffffff82040484                CSN1Action_rrd_3809203309
                0xffffffff82040494                CSN1Action_rrd_4230716097
                0xffffffff82040498                CSN1Action_rrd_1331779826_Actions
                0xffffffff820404a8                CSN1Action_rrd_1331779826
                0xffffffff820404b0                CSN1Action_rrd_1323989918
                0xffffffff820404c0                CSN1Action_rrd_4206444983
                0xffffffff820404c4                CSN1Action_rrd_1896850844
                0xffffffff820404d4                CSN1Action_rrd_4199905732
                0xffffffff820404d8                CSN1Action_rrd_2770170285
                0xffffffff820404dc                CSN1Action_rrd_74559072_Actions
                0xffffffff820404ec                CSN1Action_rrd_74559072
                0xffffffff820404f4                CSN1Action_rrd_3160594213
                0xffffffff82040504                CSN1Action_rrd_3015566299
                0xffffffff82040508                CSN1Action_rrd_3846238738
                0xffffffff8204050c                CSN1Action_rrd_2443672996_Actions
                0xffffffff82040518                CSN1Action_rrd_2443672996
                0xffffffff82040520                CSN1Action_rrd_3955384520
                0xffffffff82040530                CSN1Action_rrd_3728412801
                0xffffffff82040534                CSN1Action_rrd_1398664390_Actions
                0xffffffff82040540                CSN1Action_rrd_1398664390
                0xffffffff82040548                CSN1Action_rrd_3418953735
                0xffffffff82040558                CSN1Action_rrd_2713504209
                0xffffffff8204055c                CSN1Action_rrd_554940704
                0xffffffff8204056c                CSN1Action_rrd_2235472103
                0xffffffff82040570                CSN1Action_rrd_2461632642_Actions
                0xffffffff82040580                CSN1Action_rrd_2461632642
                0xffffffff82040588                CSN1Action_rrd_2913546902
                0xffffffff82040598                CSN1Action_rrd_2058432357
                0xffffffff8204059c                CSN1Action_rrd_2855376912
                0xffffffff820405a0                CSN1Action_rrd_4188853535_Actions
                0xffffffff820405ac                CSN1Action_rrd_4188853535
                0xffffffff820405b4                CSN1Action_rrd_2821246457
                0xffffffff820405c4                CSN1Action_rrd_861517178
                0xffffffff820405c8                CSN1Action_rrd_3295071691
                0xffffffff820405cc                CSN1Action_rrd_3159481994_Actions
                0xffffffff820405d8                CSN1Action_rrd_3159481994
                0xffffffff820405e0                CSN1Action_rrd_2342353946
                0xffffffff820405e4                CSN1Action_rrd_1156163123_Actions
                0xffffffff820405f0                CSN1Action_rrd_1156163123
                0xffffffff820405f8                CSN1Action_rrd_789570462
                0xffffffff82040608                CSN1Action_rrd_1580432979
                0xffffffff8204060c                CSN1Action_rrd_3736931631_Actions
                0xffffffff8204061c                CSN1Action_rrd_3736931631
                0xffffffff82040624                CSN1Action_rrd_3632617170
                0xffffffff82040634                CSN1Action_rrd_2287117600
                0xffffffff82040638                CSN1Action_rrd_1475689821
                0xffffffff82040648                CSN1Action_rrd_389536831
                0xffffffff8204064c                CSN1Action_rrd_2268793185_Actions
                0xffffffff82040654                CSN1Action_rrd_2268793185
                0xffffffff8204065c                CSN1Action_rrd_4004516662
                0xffffffff82040660                CSN1Action_rrd_2042348747
                0xffffffff82040664                CSN1Action_rrd_1499184372_Actions
                0xffffffff8204066c                CSN1Action_rrd_1499184372
                0xffffffff82040674                CSN1Action_rrd_3752349296_Actions
                0xffffffff82040680                CSN1Action_rrd_3752349296
                0xffffffff82040688                CSN1Action_rrd_3266119808
                0xffffffff82040698                CSN1Action_rrd_87488053
                0xffffffff8204069c                CSN1Action_rrd_2131255502
                0xffffffff820406a0                CSN1Action_rrd_2071733023_Actions
                0xffffffff820406ac                CSN1Action_rrd_2071733023
                0xffffffff820406b4                CSN1Action_rrd_1993282762
                0xffffffff820406b8                CSN1Action_rrd_657403020_Actions
                0xffffffff820406c0                CSN1Action_rrd_657403020
                0xffffffff820406c8                CSN1Action_rrd_3338436673_Actions
                0xffffffff820406d4                CSN1Action_rrd_3338436673
                0xffffffff820406dc                CSN1Action_rrd_531806091
                0xffffffff820406ec                CSN1Action_rrd_400286796
                0xffffffff820406f0                CSN1Action_rrd_3831644075
                0xffffffff820406f4                CSN1Action_rrd_2644140889_Actions
                0xffffffff82040700                CSN1Action_rrd_2644140889
                0xffffffff82040708                CSN1Action_rrd_2065487861
                0xffffffff8204070c                CSN1Action_rrd_2437170820_Actions
                0xffffffff82040720                CSN1Action_rrd_2437170820
                0xffffffff82040728                CSN1Action_rrd_154954186
                0xffffffff82040738                CSN1Action_rrd_1756366191
                0xffffffff8204073c                CSN1Action_rrd_3884916139
                0xffffffff8204074c                CSN1Action_rrd_565487363
                0xffffffff82040750                CSN1Action_rrd_1783068221
                0xffffffff82040760                CSN1Action_rrd_3360651600
                0xffffffff82040764                CSN1Action_rrd_3511221349
                0xffffffff82040774                CSN1Action_rrd_2537534189
                0xffffffff82040778                CSN1Action_rrd_1707319245_Actions
                0xffffffff82040780                CSN1Action_rrd_1707319245
                0xffffffff82040788                CSN1Action_rrd_1410763817
                0xffffffff8204078c                CSN1Action_rrd_1958843828
                0xffffffff82040790                CSN1Action_rrd_2612609894
                0xffffffff82040794                CSN1Action_rrd_730981422_Actions
                0xffffffff820407b8                CSN1Action_rrd_730981422
                0xffffffff820407c0                CSN1Action_rrd_3615734445
                0xffffffff820407c4                CSN1Action_rrd_1124905692
                0xffffffff820407d4                CSN1Action_rrd_2678951837
                0xffffffff820407d8                CSN1Action_rrd_2860452829
                0xffffffff820407dc                CSN1Action_rrd_1517254419_Actions
                0xffffffff820407ec                CSN1Action_rrd_1517254419
                0xffffffff820407f4                CSN1Action_rrd_1788477443
                0xffffffff82040804                CSN1Action_rrd_3150178008
                0xffffffff82040808                CSN1Action_rrd_1511184675
                0xffffffff82040818                CSN1Action_rrd_2671884270
                0xffffffff8204081c                CSN1Action_rrd_3039752853
                0xffffffff8204082c                CSN1Action_rrd_3588243530
                0xffffffff82040830                CSN1Action_rrd_162940200
                0xffffffff82040834                CSN1Action_rrd_2442720496_Actions
                0xffffffff82040840                CSN1Action_rrd_2442720496
                0xffffffff82040848                CSN1Action_rrd_3236281908
                0xffffffff82040858                CSN1Action_rrd_250455806
                0xffffffff8204085c                CSN1Action_rrd_378371991
                0xffffffff82040860                CSN1Action_rrd_420052828_Actions
                0xffffffff8204086c                CSN1Action_rrd_420052828
                0xffffffff82040874                CSN1Action_rrd_3086744707
                0xffffffff82040884                CSN1Action_rrd_1206453394
                0xffffffff82040888                CSN1Action_rrd_2127239902
                0xffffffff8204088c                CSN1Action_rrd_3878419657_Actions
                0xffffffff82040898                CSN1Action_rrd_3878419657
                0xffffffff820408a0                CSN1Action_rrd_2610768679
                0xffffffff820408b0                CSN1Action_rrd_1667978660
                0xffffffff820408b4                CSN1Action_rrd_2545748283
                0xffffffff820408b8                CSN1Action_rrd_2720851806
                0xffffffff820408bc                CSN1Action_rrd_1035585519
                0xffffffff820408cc                CSN1Action_rrd_4062936263
                0xffffffff820408d0                CSN1Action_rrd_367611342
                0xffffffff820408d4                CSN1Action_rrd_3183967548_Actions
                0xffffffff820408e4                CSN1Action_rrd_3183967548
                0xffffffff820408ec                CSN1Action_rrd_1752418164
                0xffffffff820408fc                CSN1Action_rrd_4049736060
                0xffffffff82040900                CSN1Action_rrd_2829314208
                0xffffffff82040910                CSN1Action_rrd_711981000
                0xffffffff82040914                CSN1Action_rrd_2850852071
                0xffffffff82040924                CSN1Action_rrd_3140476587
                0xffffffff82040928                CSN1Action_rrd_4095745213
                0xffffffff82040938                CSN1Action_rrd_1223096184
                0xffffffff8204093c                CSN1Action_rrd_2489923055
                0xffffffff82040940                CSN1Action_rrd_1768190373_Actions
                0xffffffff8204094c                CSN1Action_rrd_1768190373
                0xffffffff82040954                CSN1Action_rrd_1112211269
                0xffffffff82040964                CSN1Action_rrd_1466427016
                0xffffffff82040974                CSN1Action_rrd_4279342406
                0xffffffff82040984                CSN1Action_rrd_1110806973_Actions
                0xffffffff820409a4                CSN1Action_rrd_1110806973
                0xffffffff820409ac                CSN1Action_rrd_1843080495
                0xffffffff820409b0                CSN1Action_rrd_483363292
                0xffffffff820409c0                CSN1Action_rrd_3486522109
                0xffffffff820409c4                CSN1Action_rrd_2381861864_Actions
                0xffffffff820409d4                CSN1Action_rrd_2381861864
                0xffffffff820409dc                CSN1Action_rrd_4038189668
                0xffffffff820409ec                CSN1Action_rrd_507223965
                0xffffffff820409fc                CSN1Action_rrd_2952912004
                0xffffffff82040a0c                CSN1Action_rrd_2412969979
                0xffffffff82040a10                CSN1Action_rrd_334853886_Actions
                0xffffffff82040a1c                CSN1Action_rrd_334853886
                0xffffffff82040a24                CSN1Action_rrd_2317991597
                0xffffffff82040a34                CSN1Action_rrd_2994332061
                0xffffffff82040a38                CSN1Action_rrd_1246317353_Actions
                0xffffffff82040a44                CSN1Action_rrd_1246317353
                0xffffffff82040a4c                CSN1Action_rrd_198831330
                0xffffffff82040a5c                CSN1Action_rrd_3056860181
                0xffffffff82040a60                CSN1Action_rrd_2819297462
                0xffffffff82040a64                CSN1Action_rrd_3148479826
                0xffffffff82040a74                CSN1Action_rrd_4007706475
                0xffffffff82040a78                CSN1Action_rrd_1931385926_Actions
                0xffffffff82040a88                CSN1Action_rrd_1931385926
                0xffffffff82040a90                CSN1Action_rrd_248884930
                0xffffffff82040aa0                CSN1Action_rrd_3749016525
                0xffffffff82040ab0                CSN1Action_rrd_3090839876
                0xffffffff82040ac0                CSN1Action_rrd_1794889550
                0xffffffff82040ad0                CSN1Action_rrd_3132594304
                0xffffffff82040ad4                CSN1Action_rrd_3068548146
                0xffffffff82040ad8                CSN1Action_rrd_2030131668_Actions
                0xffffffff82040ae4                CSN1Action_rrd_2030131668
                0xffffffff82040aec                CSN1Action_rrd_451415012
                0xffffffff82040afc                CSN1Action_rrd_3085223348
                0xffffffff82040b0c                CSN1Action_rrd_501623148
                0xffffffff82040b1c                CSN1Action_rrd_2032260957
                0xffffffff82040b20                CSN1Action_rrd_3581718616_Actions
                0xffffffff82040b2c                CSN1Action_rrd_3581718616
                0xffffffff82040b34                CSN1Action_rrd_2301433874
                0xffffffff82040b38                CSN1Action_rrd_2632245798
                0xffffffff82040b3c                CSN1Action_rrd_1212702238
                0xffffffff82040b40                CSN1Action_rrd_760487328_Actions
                0xffffffff82040b4c                CSN1Action_rrd_760487328
                0xffffffff82040b54                CSN1Action_rrd_341599030
                0xffffffff82040b58                CSN1Action_rrd_3093738256
                0xffffffff82040b5c                CSN1Action_rrd_3401615348
                0xffffffff82040b60                CSN1Action_rrd_274780630_Actions
                0xffffffff82040b70                CSN1Action_rrd_274780630
                0xffffffff82040b78                CSN1Action_rrd_2329652229
                0xffffffff82040b7c                CSN1Action_rrd_2342405214_Actions
                0xffffffff82040b98                CSN1Action_rrd_2342405214
                0xffffffff82040ba0                CSN1Action_rrd_1176402565
                0xffffffff82040ba4                CSN1Action_rrd_264773991_Actions
                0xffffffff82040bb0                CSN1Action_rrd_264773991
                0xffffffff82040bb8                CSN1Action_rrd_1541952114
                0xffffffff82040bc8                CSN1Action_rrd_1997839531
                0xffffffff82040bcc                CSN1Action_rrd_2045584149_Actions
                0xffffffff82040bd8                CSN1Action_rrd_2045584149
                0xffffffff82040be0                CSN1Action_rrd_965469091
                0xffffffff82040bf0                CSN1Action_rrd_656833653
                0xffffffff82040bf4                CSN1Action_rrd_3654314478
                0xffffffff82040c04                CSN1Action_rrd_3857833984
                0xffffffff82040c08                CSN1Action_rrd_225237873
                0xffffffff82040c18                CSN1Action_rrd_3245584694
                0xffffffff82040c1c                CSN1Action_rrd_3504385127
                0xffffffff82040c20                CSN1Action_rrd_3447149479_Actions
                0xffffffff82040c34                CSN1Action_rrd_3447149479
                0xffffffff82040c3c                CSN1Action_rrd_408796126
                0xffffffff82040c4c                CSN1Action_rrd_1400567278
                0xffffffff82040c50                CSN1Action_rrd_351339013
                0xffffffff82040c60                CSN1Action_rrd_2289505114
                0xffffffff82040c64                CSN1Action_rrd_3360767682
                0xffffffff82040c74                CSN1Action_rrd_2012783832
                0xffffffff82040c78                CSN1Action_rrd_3466817332
                0xffffffff82040c7c                CSN1Action_rrd_3114596985_Actions
                0xffffffff82040c88                CSN1Action_rrd_3114596985
                0xffffffff82040c90                CSN1Action_rrd_96542679
                0xffffffff82040ca0                CSN1Action_rrd_444487554
                0xffffffff82040ca4                CSN1Action_rrd_1943730191_Actions
                0xffffffff82040cc4                CSN1Action_rrd_1943730191
                0xffffffff82040ccc                CSN1Action_rrd_312719954
                0xffffffff82040cd0                CSN1Action_rrd_1751255976_Actions
                0xffffffff82040cdc                CSN1Action_rrd_1751255976
                0xffffffff82040ce4                CSN1Action_rrd_1691172885
                0xffffffff82040cf4                CSN1Action_rrd_61091139
                0xffffffff82040cf8                CSN1Action_rrd_3154444110
                0xffffffff82040d08                CSN1Action_rrd_1823283407
                0xffffffff82040d18                CSN1Action_rrd_758620798
                0xffffffff82040d1c                CSN1Action_rrd_1027217481_Actions
                0xffffffff82040d30                CSN1Action_rrd_1027217481
                0xffffffff82040d38                CSN1Action_rrd_2573199844
                0xffffffff82040d48                CSN1Action_rrd_2198201317
                0xffffffff82040d58                CSN1Action_rrd_519562849
                0xffffffff82040d68                CSN1Action_rrd_875678573
                0xffffffff82040d6c                CSN1Action_rrd_2599842611_Actions
                0xffffffff82040d78                CSN1Action_rrd_2599842611
                0xffffffff82040d80                CSN1Action_rrd_3321212140
                0xffffffff82040d90                CSN1Action_rrd_1483226791_Actions
                0xffffffff82040d9c                CSN1Action_rrd_1483226791
                0xffffffff82040da4                CSN1Action_rrd_465287089
                0xffffffff82040db4                CSN1Action_rrd_1110837773
                0xffffffff82040dc4                CSN1Action_rrd_1402391965
                0xffffffff82040dc8                CSN1Action_rrd_3251358857
                0xffffffff82040dcc                CSN1Action_rrd_2818920680_Actions
                0xffffffff82040dd8                CSN1Action_rrd_2818920680
                0xffffffff82040de0                CSN1Action_rrd_3528460552
                0xffffffff82040de4                CSN1Action_rrd_137419891_Actions
                0xffffffff82040df8                CSN1Action_rrd_137419891
                0xffffffff82040e00                CSN1Action_rrd_3643433079
                0xffffffff82040e10                CSN1Action_rrd_2901754476
                0xffffffff82040e14                CSN1Action_rrd_3527408420
                0xffffffff82040e24                CSN1Action_rrd_1889926130
                0xffffffff82040e28                CSN1Action_rrd_1816175321
                0xffffffff82040e2c                CSN1Action_rrd_606156793
                0xffffffff82040e3c                CSN1Action_rrd_3096087395
                0xffffffff82040e40                CSN1Action_rrd_2028206836_Actions
                0xffffffff82040e48                CSN1Action_rrd_2028206836
                0xffffffff82040e50                CSN1Action_rrd_3365294586
                0xffffffff82040e54                CSN1Action_rrd_3489445354_Actions
                0xffffffff82040e60                CSN1Action_rrd_3489445354
                0xffffffff82040e68                CSN1Action_rrd_2463003367
                0xffffffff82040e78                CSN1Action_rrd_3860702602
                0xffffffff82040e7c                CSN1Action_rrd_3105487277
                0xffffffff82040e80                CSN1Action_rrd_371009464
                0xffffffff82040e84                CSN1Action_rrd_3481058681
                0xffffffff82040e94                CSN1Action_rrd_1056704180
                0xffffffff82040e98                CSN1Action_rrd_2067698156_Actions
                0xffffffff82040ea0                CSN1Action_rrd_2067698156
                0xffffffff82040ea8                CSN1Action_rrd_4261741148
                0xffffffff82040eac                CSN1Action_rrd_96581344
                0xffffffff82040eb0                CSN1Action_rrd_2804258136
                0xffffffff82040eb4                CSN1Action_rrd_3746986023
                0xffffffff82040eb8                CSN1Action_rrd_2696491744
                0xffffffff82040ec8                CSN1Action_rrd_1252036399
                0xffffffff82040ecc                CSN1Action_rrd_3111607087
                0xffffffff82040ed0                CSN1Action_rrd_1877292183_Actions
                0xffffffff82040edc                CSN1Action_rrd_1877292183
                0xffffffff82040ee4                CSN1Action_rrd_2015990617
                0xffffffff82040ef4                CSN1Action_rrd_2444061083
                0xffffffff82040ef8                CSN1Action_rrd_4138463979
                0xffffffff82040f08                CSN1Action_rrd_1847778841
                0xffffffff82040f0c                CSN1Action_rrd_1712146324
                0xffffffff82040f1c                CSN1Action_rrd_1379398860
                0xffffffff82040f20                CSN1Action_rrd_2006853871
                0xffffffff82040f24                CSN1Action_rrd_528587181
                0xffffffff82040f28                CSN1Action_rrd_3500588652
                0xffffffff82040f34                G_VppCommonDecCode
                0xffffffff820412c8                G_VppAacDecCode
                0xffffffff82043da0                G_VppAacDecConstY
                0xffffffff82045880                G_VppMp3DecCode
                0xffffffff82048e54                G_VppMp3DecConstX
                0xffffffff82049fac                G_VppMp3DecConstY
                0xffffffff8204ae94                G_VppMp3Layer12Dec_DMA_ConstY
                0xffffffff8204b350                G_VppMp3Dec_EQ_DMA_ConstY
                0xffffffff8204b470                G_VppSBCCode
                0xffffffff8204c630                G_VppSBCConstX
                0xffffffff8204e0b8                G_VppDRCCode
                0xffffffff8204e9d4                G_VppDRCConst
                0xffffffff8204ee18                G_VppCommonEncCode
                0xffffffff8204f014                G_VppAmrJpegEncCode
                0xffffffff82053464                G_VppAmrJpegEncConstX
                0xffffffff8205370c                G_VppAmrJpegEncConstY
                0xffffffff820566d4                G_VppAudJpegMainCodeSize
                0xffffffff820566e0                G_vocYUVRomateCode
                0xffffffff82056c00                recHandle
                0xffffffff82056c04                mmc_Reccodec
                0xffffffff82056c08                mmcRecFormat
                0xffffffff82056c0c                IF1Table_size
                0xffffffff82056c1c                IF1_table
                0xffffffff82056cd0                mbedtls_calloc
                0xffffffff82056cd4                mbedtls_free
                0xffffffff8205ed40                _gp

.bootsramdata   0xffffffff81c01f80       0x80 load address 0xffffffff88014a40
 hex/gps/SW_V2131_csdk.elf(.bootsramdata)
 .bootsramdata  0xffffffff81c01f80       0x80 hex/gps/SW_V2131_csdk.elf
                0xffffffff81c01f80                g_bootSysCsAddress
                0xffffffff81c01f84                g_halSysCsAddress
                0xffffffff81c01f88                g_halSysSystemFreq
                0xffffffff81c01f98                g_spiflash_ID
                0xffffffff81c01fa4                g_spiCfg
                0xffffffff81c01fec                g_ddrIndex
                0xffffffff81c01fee                memd_cfg_done
                0xffffffff81c01ff4                g_ddrConfig
                0xffffffff81c01ff8                g_ddr_table_size
                0xffffffff81c01ffc                memd_cfg

.boot_sector_struct_ptr
                0xffffffff81c00278        0x4
 hex/gps/SW_V2131_csdk.elf(.boot_sector_struct_ptr)
 .boot_sector_struct_ptr
                0xffffffff81c00278        0x4 hex/gps/SW_V2131_csdk.elf
                0xffffffff81c00278                g_bootSectorStructPtr

.sys_sram_overlay_5
                0xffffffff81c096e0       0x10 load address 0xffffffff8801b830
 hex/gps/SW_V2131_csdk.elf(.sys_sram_overlay_5)
 .sys_sram_overlay_5
                0xffffffff81c096e0       0x10 hex/gps/SW_V2131_csdk.elf
                0xffffffff81c0fffc                _sys_sram_non_romed_top

.bootramtext    0xffffffff82000b00     0x1320 load address 0xffffffff8801b840
 hex/gps/SW_V2131_csdk.elf(.bootramtext)
 .bootramtext   0xffffffff82000b00     0x1320 hex/gps/SW_V2131_csdk.elf
                0xffffffff82000ce1                hal_SpiFlashGetID
                0xffffffff82000cf9                hal_SpiFlashSetLockCallback
                0xffffffff82000d05                hal_SpiFlashLock
                0xffffffff82000d1d                hal_SpiFlashUnlock
                0xffffffff82000d35                hal_SpiFlashSetUnlockCallback
                0xffffffff82000d41                hal_SpiFlashSleep
                0xffffffff82000d71                hal_SpiFlashMapUncacheAddress
                0xffffffff82000d7d                hal_SpiFlashOffset
                0xffffffff82000d89                hal_SpiFlashSetCheckIrq
                0xffffffff82000d95                hal_SpiFlashGetPageSize
                0xffffffff82000d9d                hal_SpiFlashGetSectorSize
                0xffffffff82000da5                hal_SpiFlashGetBlockSize
                0xffffffff82000db1                hal_SpiFlashGetSize
                0xffffffff82000dc1                hal_SpiFlashWakeup
                0xffffffff82000dfd                hal_SpiFlashReset
                0xffffffff82000f3d                hal_SpiFlashReadStatusRegister
                0xffffffff82001099                hal_SpiFlashReadStatusRegisterEx
                0xffffffff82001125                hal_SpiFlashWriteVolatileStatusRegisterEx
                0xffffffff82001205                hal_SpiFlashSecurityRead
                0xffffffff820012cd                hal_SpiFlashChipErase
                0xffffffff8200141d                hal_SpiFlashErase
                0xffffffff820014cd                hal_SpiFlashWrite
                0xffffffff82001639                hal_SpiFlashSecurityWrite
                0xffffffff82001695                hal_SpiFlashSecurityErase
                0xffffffff820016f9                hal_SpiFlashWriteStatusRegisterEx
                0xffffffff82001775                hal_SpiFlashWriteStatusRegister
                0xffffffff820017f1                hal_SpiFlashClose
                0xffffffff8200185d                hal_SpiFlashOpen
                0xffffffff82001945                memd_FlashGetSectorLimits
                0xffffffff82001a11                memd_SetFramsIrqIgnore
                0xffffffff82001a15                memd_SysIsIdle
                0xffffffff82001a19                memd_FlashGetUserFieldInfo
                0xffffffff82001a51                memd_FlashErase2SuspendTime
                0xffffffff82001a55                memd_SuspendEnable
                0xffffffff82001a61                memd_SuspendDisable
                0xffffffff82001a6d                memd_SuspendIsEnable
                0xffffffff82001a81                memd_FlashRst
                0xffffffff82001a91                memd_FlashGetGlobalAddress
                0xffffffff82001aa9                memd_FlashRead
                0xffffffff82001af1                memd_FlashOpen
                0xffffffff82001b41                memd_FlashWrite_Respond_Irq
                0xffffffff82001b79                memd_FlashWrite
                0xffffffff82001bb1                memd_FlashErase
                0xffffffff82001c61                memd_FlashErase_Respond_Irq
                0xffffffff82001d11                memd_DdrGetTiming
                0xffffffff82001d5d                memd_AdjustRamClk
                0xffffffff82001dec                g_memdFlashBankLayout
                0xffffffff82001e08                g_memdFlashLayout

.spi_reg_debug  0xffffffffa2000000      0x980
 hex/gps/SW_V2131_csdk.elf(.spi_reg_debug)
 .spi_reg_debug
                0xffffffffa2000000      0x980 hex/gps/SW_V2131_csdk.elf
                0xffffffffa2000000                g_rfdXcvRegValue
                0xffffffffa2000000                _spi_reg_debug_start
                0xffffffffa2000500                g_abbSpiRegValue
                0xffffffffa2000840                g_pmdSpiRegValue

.misc           0xffffffff88215f40       0x20
 hex/gps/SW_V2131_csdk.elf(.misc)
 .misc          0xffffffff88215f40       0x20 hex/gps/SW_V2131_csdk.elf
                0xffffffff88215f41                hal_clk_dump
                0xffffffff883f6000                _user_data_start
                0xffffffff883fa000                _calib_start
                0xffffffff883fe000                _factory_start

.bbsram_patch_text
                0xffffffff81986800     0x1080 load address 0xffffffff88011620
 hex/gps/SW_V2131_csdk.elf(.bbsram_patch_text)
 .bbsram_patch_text
                0xffffffff81986800     0x1080 hex/gps/SW_V2131_csdk.elf
                0xffffffff81986800                _bb_sram_patch_text_start
                0xffffffff81986801                patch_spc_CCHRxProcess
                0xffffffff81987019                patch_spp_EqualizeNBurstSaic
                0xffffffff81987431                patch_spp_EqualizeNBurst
                0xffffffff81987880                _bb_sram_patch_text_end

.bcpu_sramtext  0xffffffff81c00680     0x1490 load address 0xffffffff880129f0
 hex/gps/SW_V2131_csdk.elf(.bcpu_sramtext)
 .bcpu_sramtext
                0xffffffff81c00680     0x1490 hex/gps/SW_V2131_csdk.elf
                0xffffffff81c00680                _bcpu_sys_sram_txt_start
                0xffffffff81c00681                spc_CchDump
                0xffffffff81c0069d                patch_spc_UpdateSaicStatus
                0xffffffff81c00739                patch_spc_IrqHandler
                0xffffffff81c00a99                patch_spc_BfiFilter
                0xffffffff81c00c25                patch_spc_TCHRxProcess
                0xffffffff81c014f5                patch_spp_GetUSF1
                0xffffffff81c015f5                patch_spp_SearchFcch

.boot_sector_reload_struct_ptr
                0xffffffff81c00274        0x4
 hex/gps/SW_V2131_csdk.elf(.boot_sector_reload_struct_ptr)
 .boot_sector_reload_struct_ptr
                0xffffffff81c00274        0x4 hex/gps/SW_V2131_csdk.elf
                0xffffffff81c00274                g_bootSectorReloadStructPtr

.bbsram_patch_ucdata
                0xffffffffa19878b0      0x320 load address 0xffffffff880126d0
 hex/gps/SW_V2131_csdk.elf(.bbsram_patch_ucdata)
 .bbsram_patch_ucdata
                0xffffffffa19878b0      0x320 hex/gps/SW_V2131_csdk.elf
                0xffffffffa19878b0                g_RxSaicEnFlag
                0xffffffffa19878b0                _bb_sram_patch_ucdata_start
                0xffffffffa19878b4                NBlockDataOutSaic
                0xffffffffa19879cc                g_rx_Saic_Bfi_Last_ind
                0xffffffffa19879d0                SACCHSaic
                0xffffffffa1987bd0                _bb_sram_patch_ucdata_end

.boot_rom_version_number
                0xffffffff81e05ff8        0x4
 hex/gps/SW_V2131_csdk.elf(.boot_rom_version_number)
 .boot_rom_version_number
                0xffffffff81e05ff8        0x4 hex/gps/SW_V2131_csdk.elf
                0xffffffff81e05ff8                _int_rom_version_number
                0xffffffff81e05ff8                g_bootRomVersionNumber

.cust_rodata    0xffffffff88242300      0x520
 hex/gps/gps.elf(.cust_rodata)
 .cust_rodata   0xffffffff88242300      0x520 hex/gps/gps.elf
                0xffffffff88242774                GPS_CMD_BINARY_HEADER
                0xffffffff88242778                Hex_Str

.bbsram_globals
                0xffffffff81986640      0x1b9
 hex/gps/SW_V2131_csdk.elf(.bbsram_globals)
 .bbsram_globals
                0xffffffff81986640      0x1b9 hex/gps/SW_V2131_csdk.elf
                0xffffffff81986640                _bb_sram_romed_globals_start
                0xffffffff81986640                bcpu_error_code
                0xffffffff81986644                bcpu_error_status
                0xffffffff81986648                bcpu_sp_context
                0xffffffff8198664c                bcpu_stack_base
                0xffffffff81986650                bcpu_main_entry
                0xffffffff81986654                spal_GdbGData
                0xffffffff8198665c                g_spalIrqRegistry
                0xffffffff81986660                g_spalProfileControl
                0xffffffff8198668c                g_spcAmrState
                0xffffffff81986694                g_spcCtxAmrCfgTxChg
                0xffffffff81986698                g_spcRxCountTcu
                0xffffffff8198669c                g_spcSwTxFifo
                0xffffffff81986788                g_sppGlobalParams
                0xffffffff819867c0                g_sppA53CountInit
                0xffffffff819867c4                g_sppCipherCipherA53Nb
                0xffffffff819867c8                g_sppCipherDecipherA53Nb
                0xffffffff819867f8                g_sppFullBurstReady
                0xffffffff819867f9                _bb_sram_romed_globals_end

.bcpu_bss       0xffffffff82000a00       0x10
 hex/gps/SW_V2131_csdk.elf(.bcpu_bss)
 .bcpu_bss      0xffffffff82000a00       0x10 hex/gps/SW_V2131_csdk.elf

.bbsramu        0xffffffffa1981e00     0x1bf0
 hex/gps/SW_V2131_csdk.elf(.bbsramu)
 .bbsramu       0xffffffffa1981e00     0x1bf0 hex/gps/SW_V2131_csdk.elf
                0xffffffffa1981e00                g_spcStaticBufTabSaic
                0xffffffffa1981e00                _mbbsramu
                0xffffffffa1981e00                _bb_sram_romed_uncached_start
                0xffffffffa19822f0                g_spcStaticBufTab

.bcpu_rom.crc   0xffffffff81e97ffc        0x4
 hex/gps/SW_V2131_csdk.elf(.bcpu_rom.crc)
 .bcpu_rom.crc  0xffffffff81e97ffc        0x4 hex/gps/SW_V2131_csdk.elf
                0xffffffff81e97ffc                __bcpu_rom_crc
                0x00000000000001b9                _bb_sram_not_romed_globals_end
                0x00000000000001b9                _bb_sram_not_romed_globals_start

.bcpu_rom_text  0xffffffffa1e80000    0x137b0 load address 0xffffffff81e80000
 hex/gps/SW_V2131_csdk.elf(.bcpu_rom_text)
 .bcpu_rom_text
                0xffffffffa1e80000    0x137b0 hex/gps/SW_V2131_csdk.elf
                0xffffffffa1e80000                __bcpu_start
                0xffffffffa1e80000                __bcpu_rom_main
                0xffffffffa1e80024                __bcpu_init
                0xffffffffa1e80060                spal_InvalidateDcache
                0xffffffffa1e80090                spal_InvalidateCache
                0xffffffffa1e800c1                spal_Open
                0xffffffffa1e800f0                spp_DummyPCH_DisAsm
                0xffffffffa1e80141                spp_Open
                0xffffffffa1e80180                __bb_int_handler
                0xffffffffa1e80438                spal_BbGetSp
                0xffffffffa1e80440                spal_IrqInit
                0xffffffffa1e80471                spp_CipherA53Open
                0xffffffffa1e80491                spp_CipherDecipherNb
                0xffffffffa1e804e1                spp_CipherCipherNb
                0xffffffffa1e80531                spp_CipherStart
                0xffffffffa1e80581                spp_CipherCountInit
                0xffffffffa1e805d0                spp_FcchDetectAsm
                0xffffffffa1e80921                spp_GetAmrIc
                0xffffffffa1e80a51                spp_GetAmrMetric
                0xffffffffa1e80b41                spp_SearchAmrMarker
                0xffffffffa1e80fb1                spp_ReorderFR_EFR
                0xffffffffa1e813e1                spp_DecodeBlock
                0xffffffffa1e82881                spp_QrDecomposition
                0xffffffffa1e82aa1                spp_ComputePrefilter
                0xffffffffa1e82cd1                spp_HardDecisionToSym
                0xffffffffa1e82df1                spp_8tapDetectGsm
                0xffffffffa1e82ef1                spp_InterfereDetect
                0xffffffffa1e82f11                spp_EqShiftParam
                0xffffffffa1e82f81                spp_EqSoftShift
                0xffffffffa1e83071                spp_TofSearch
                0xffffffffa1e83191                spp_DcocProcess
                0xffffffffa1e83271                spp_FofEstimation
                0xffffffffa1e834e1                spp_SaicProstep2
                0xffffffffa1e83bd1                spp_SaicPro
                0xffffffffa1e84b81                spp_DigitalAgc
                0xffffffffa1e84c71                spp_Equalize_saic
                0xffffffffa1e84e31                spp_Equalize
                0xffffffffa1e85441                spp_Chest
                0xffffffffa1e854f1                spp_ChannelEstimation
                0xffffffffa1e85811                spp_EqualizeDecodeSch
                0xffffffffa1e859c1                spp_EqualizeNBurstSaic
                0xffffffffa1e85dd1                spp_ChannelEstimation8taps
                0xffffffffa1e860d1                spp_TapsShorten
                0xffffffffa1e861f1                spp_GaussSeidel
                0xffffffffa1e86351                spp_ChannelTracking
                0xffffffffa1e864f1                spp_EqualizeNBurst
                0xffffffffa1e86961                spp_GetUSF
                0xffffffffa1e86a81                spp_DecodeStealingBits
                0xffffffffa1e86bd1                spp_GetChannelType
                0xffffffffa1e86dd1                spp_GetMonPower
                0xffffffffa1e86e21                spp_DeinterleaveBlock
                0xffffffffa1e86e71                spp_SearchFcchFilter
                0xffffffffa1e87371                spp_SearchFcch
                0xffffffffa1e87931                spp_Modulation
                0xffffffffa1e87c81                spp_BuildNBurst
                0xffffffffa1e87d41                spp_EncodeABurst
                0xffffffffa1e87eb1                spp_EncodeBlock
                0xffffffffa1e89681                spp_10log10
                0xffffffffa1e89741                spp_Log2
                0xffffffffa1e89801                spp_DivL
                0xffffffffa1e898b1                spp_Sqrt
                0xffffffffa1e89921                spp_FullBurstReady
                0xffffffffa1e89931                spp_ResetFullBurstReady
                0xffffffffa1e89941                spp_OneFullBurstReady
                0xffffffffa1e89971                spp_OneFullBurstDone
                0xffffffffa1e899a1                spp_DetectDummyPCH
                0xffffffffa1e89b30                spp_FcchDetectFilterAsm
                0xffffffffa1e89d51                spal_DbgPxtsProfileTask
                0xffffffffa1e89e21                spal_DbgHstSendEvent
                0xffffffffa1e89e81                spal_DbgPxtsProfilePulse
                0xffffffffa1e89f51                spal_DbgPxtsProfileFunctionEnter
                0xffffffffa1e8a021                spal_DbgPxtsProfileFunctionExit
                0xffffffffa1e8a0f1                spal_DbgPxtsProfileWindowEnter
                0xffffffffa1e8a1c1                spal_DbgPxtsProfileWindowExit
                0xffffffffa1e8a291                spal_DbgGdbHstSendEvent
                0xffffffffa1e8a2d1                spal_GdbOpen
                0xffffffffa1e8a311                spal_GdbBreaks
                0xffffffffa1e8a341                spal_GdbBreakPrint
                0xffffffffa1e8a3f1                spal_GdbPrepare
                0xffffffffa1e8a411                spal_GdbSendcmd
                0xffffffffa1e8a471                spal_Gdb16Step
                0xffffffffa1e8a801                spal_Gdb32Step
                0xffffffffa1e8aa61                spal_Gdb16EndStep
                0xffffffffa1e8aa91                spal_Gdb32EndStep
                0xffffffffa1e8aab1                spal_GdbLoop
                0xffffffffa1e8ae11                spal_GdbException
                0xffffffffa1e8aeb1                spal_GdbIrqDebug
                0xffffffffa1e8af41                spal_GdbBreakRaise
                0xffffffffa1e8aff1                spal_GdbBreakSoftBreakPoint
                0xffffffffa1e8b091                spal_GdbBreakBreakPoint
                0xffffffffa1e8b121                spal_GdbBreakDivBy0
                0xffffffffa1e8b1e1                spal_IrqSetMask
                0xffffffffa1e8b201                spal_IrqHandler
                0xffffffffa1e8b361                spal_ItlvBusy
                0xffffffffa1e8b371                spal_ItlvItlv
                0xffffffffa1e8b3c1                spal_ItlvDitlv
                0xffffffffa1e8b411                spal_ItlvIntClear
                0xffffffffa1e8b421                spal_VitacBusy
                0xffffffffa1e8b441                spal_VitacEqualize
                0xffffffffa1e8b531                spal_VitacFullDecoding
                0xffffffffa1e8b6a1                spal_XcorResetFchFilterParam
                0xffffffffa1e8b6c1                spal_XcorTscxcNb
                0xffffffffa1e8b6f1                spal_XcorTscxcSch
                0xffffffffa1e8b721                spal_XcorBiterror
                0xffffffffa1e8b751                spal_XcorChest
                0xffffffffa1e8b7d1                spal_XcorSrec
                0xffffffffa1e8b821                spal_XcorBmsum
                0xffffffffa1e8b931                spal_XcorErrCalc
                0xffffffffa1e8b961                spal_XcorIcorCalc
                0xffffffffa1e8b991                spal_XcorHvextract
                0xffffffffa1e8b9c1                spal_XcorDcoc
                0xffffffffa1e8bb71                spal_XcorDcocHburst
                0xffffffffa1e8bbe1                spal_XcorFchxc_Delay
                0xffffffffa1e8bd71                spal_XcorChest8taps
                0xffffffffa1e8bdf1                spal_XcorFchxc_AutoCorr
                0xffffffffa1e8be41                spal_XcorFchxc
                0xffffffffa1e8bf91                spal_XcorFchFilter
                0xffffffffa1e8c100                spal_XcorFchFilterAsm
                0xffffffffa1e8c2a0                spal_CapDecodeCrc
                0xffffffffa1e8c360                spal_CapEncodeCrc
                0xffffffffa1e8c420                spal_CapConvoluate
                0xffffffffa1e8c510                spal_CapConvSrc
                0xffffffffa1e8c5d0                spal_CapFireCorrection
                0xffffffffa1e8c6a1                spal_CholkBusy
                0xffffffffa1e8c6c1                spal_CholkCgStep1
                0xffffffffa1e8c741                spal_CholkCg
                0xffffffffa1e8c7d1                spal_CipherCountInit
                0xffffffffa1e8c7f1                spal_CipherStart
                0xffffffffa1e8c841                spal_CipherCipherNb
                0xffffffffa1e8c891                spal_CipherDecipherNb
                0xffffffffa1e8c8c1                spal_CipherA53CountInit
                0xffffffffa1e8c911                spal_CipherA53Start
                0xffffffffa1e8c941                spal_CipherCipherA53Nb
                0xffffffffa1e8c971                spal_CipherDecipherA53Nb
                0xffffffffa1e8c9d1                spal_CordicAngle
                0xffffffffa1e8ca01                spal_XcorBmmlZf
                0xffffffffa1e8ca81                spal_XcorComplexPower16
                0xffffffffa1e8cb01                spal_XcorComplexPower32
                0xffffffffa1e8cb51                spal_XcorDerotate
                0xffffffffa1e8cbd1                spal_XcorDcIqCompensate
                0xffffffffa1e8cc41                spal_XcorSrecPSK8
                0xffffffffa1e8ccd1                spal_XcorComplexConvolution
                0xffffffffa1e8cd91                spal_XcorComplexMatrixMultiply
                0xffffffffa1e8ce31                spal_ExcorIQShift
                0xffffffffa1e8ce81                spal_ExcorEgprsRotate
                0xffffffffa1e8cf01                spal_XcorFastConvolutionInit
                0xffffffffa1e8cf31                spal_XcorFastConvolutionSet
                0xffffffffa1e8cf71                spal_XcorFastMatrixMultiplySet
                0xffffffffa1e8cff1                spal_XcorFastMatrixMultiplyInit
                0xffffffffa1e8d021                spal_XcorFastMatrixMultiplyS
                0xffffffffa1e8d061                spal_XcorFastMatrixMultiply
                0xffffffffa1e8d0f1                spal_XcorFastConvolution
                0xffffffffa1e8d181                spal_ExcorIrRecombine
                0xffffffffa1e8d510                spal_DbgGdbPrintf
                0xffffffffa1e8d521                spal_IfcTxFifoReset
                0xffffffffa1e8d531                spal_IfcTxFifoSetup
                0xffffffffa1e8d551                spal_IfcDisableRf
                0xffffffffa1e8d561                spal_IfcParamRf
                0xffffffffa1e8d581                spc_AHSencoding
                0xffffffffa1e8d991                spc_AFSencoding
                0xffffffffa1e8dc61                spc_UpdateAmrCfg
                0xffffffffa1e8ddc1                spc_RetrieveCodecMode
                0xffffffffa1e8de81                spc_AmrEncode
                0xffffffffa1e8e0b1                spc_AmrFrameFilter
                0xffffffffa1e8e0e1                spc_UpdateCMR
                0xffffffffa1e8e1b1                spc_AHSdecoding
                0xffffffffa1e8e851                spc_AFSdecoding
                0xffffffffa1e8ecd1                spc_AmrRatscch
                0xffffffffa1e8ee11                spc_AmrDecode
                0xffffffffa1e8f421                bb_prog_rx_win
                0xffffffffa1e8f681                spc_IrqHandler
                0xffffffffa1e8fad1                spc_SppToMboxSpeechMode
                0xffffffffa1e8fb31                spc_CheckLoopMode
                0xffffffffa1e8fc91                spc_BfiFilter
                0xffffffffa1e8fe71                spc_SetFacch
                0xffffffffa1e8ff91                spc_VocBfiFilter
                0xffffffffa1e90111                spc_UpdateSpeechDec
                0xffffffffa1e90281                spc_TCHRxProcess
                0xffffffffa1e90b21                spc_CCHRxProcess
                0xffffffffa1e91321                spc_NBurstProcess
                0xffffffffa1e91381                spc_SchProcess
                0xffffffffa1e91461                spc_MonitoringProcess
                0xffffffffa1e914c1                spc_FcchProcess
                0xffffffffa1e91621                spc_RxProcess
                0xffffffffa1e918b1                spc_GnrlReset
                0xffffffffa1e91c01                spc_SchedulerMain
                0xffffffffa1e91de1                spc_MboxToSppSpeechMode
                0xffffffffa1e91ed1                spc_UpdateSpeechEnc
                0xffffffffa1e920b1                spc_ResetCodec
                0xffffffffa1e921a1                spc_DataFacch
                0xffffffffa1e922b1                spc_DataEncode
                0xffffffffa1e92421                spc_TCHTxProcess
                0xffffffffa1e92891                spc_CCHTxProcess
                0xffffffffa1e92ab1                spc_RACHTxProcess
                0xffffffffa1e92bb1                spc_TxProcess
                0xffffffffa1e92c71                spc_UpdateOnFint

.bootsramtext   0xffffffff81c01b50      0x430 load address 0xffffffff88014610
 hex/gps/SW_V2131_csdk.elf(.bootsramtext)
 .bootsramtext  0xffffffff81c01b50      0x430 hex/gps/SW_V2131_csdk.elf
                0xffffffff81c01b50                boot_SysSetupPLL
                0xffffffff81c01bdc                boot_SysShutdownPLL
                0xffffffff81c01c25                boot_SysGetChipId
                0xffffffff81c01c69                hal_HstSendEvent
                0xffffffff81c01cc5                hal_SysSetSpiFlashClkToFast
                0xffffffff81c01ce9                hal_SysWaitMicrosecond
                0xffffffff81c01d25                hal_TimDelay
                0xffffffff81c01d3d                hal_TimGetUpTime
                0xffffffff81c01d49                boot_EbcCsSetupWithCallback
                0xffffffff81c01d91                hal_DisableUsbDp
                0xffffffff81c01da5                hal_IspiRegWrite
                0xffffffff81c01e09                hal_IspiTxFinished
                0xffffffff81c01e19                hal_IspiTxFifoAvail
                0xffffffff81c01e29                hal_IspiSendData
                0xffffffff81c01e61                memd_FlashWakeup
                0xffffffff81c01e71                memd_FlashSleep
                0xffffffff81c01e81                memd_GetCfgDDRIndex

.internal_rom.crc
                0xffffffff81e05ffc        0x4
 hex/gps/SW_V2131_csdk.elf(.internal_rom.crc)
 .internal_rom.crc
                0xffffffff81e05ffc        0x4 hex/gps/SW_V2131_csdk.elf
                0xffffffff81e05ffc                __int_rom_crc
                0xffffffffa1b00000                _dualport_sram_uncached_data_end
                0xffffffffa1b00000                _dualport_sram_uncached_data_start
                0xffffffff81b00000                _dualport_sram_cached_data_end
                0xffffffff81b00000                _dualport_sram_text_end
                0xffffffff81b00000                _dualport_sram_cached_data_start
                0xffffffff81b00000                _dualport_sram_text_start

.rodata         0xffffffff881c7a60    0x4e4e0
 hex/gps/SW_V2131_csdk.elf(.rodata)
 .rodata        0xffffffff881c7a60    0x4e4e0 hex/gps/SW_V2131_csdk.elf
                0xffffffff881c7a60                g_calibMapVersion
                0xffffffff881c7a70                g_memdMapVersion
                0xffffffff881c7a80                g_memdMapAccess
                0xffffffff881c7aec                __clz_tab
                0xffffffff881c7f84                g_halHostUsbInterface
                0xffffffff881c81a8                sxs_TaskCfg
                0xffffffff881c82e8                sxs_TaskIdleDesc
                0xffffffff881c82f8                sxs_UsrInitTaskCfg
                0xffffffff881c834c                sim_TaskParse
                0xffffffff881c8550                sim_ResetReq_Evt
                0xffffffff881c8560                sim_RunGsmAlgoReq_Evt
                0xffffffff881c8570                sim_ReadBinaryReq_Evt
                0xffffffff881c8580                sim_UpdateBinaryReq_Evt
                0xffffffff881c8590                sim_ReadRecordReq_Evt
                0xffffffff881c85a0                sim_UpdateRecordReq_Evt
                0xffffffff881c85b0                sim_InvalidateReq_Evt
                0xffffffff881c85c0                sim_RehabilitateReq_Evt
                0xffffffff881c85d0                sim_VerifyCHVReq_Evt
                0xffffffff881c85e0                sim_ChangeCHVReq_Evt
                0xffffffff881c85f0                sim_DisableCHVRe_Evt
                0xffffffff881c8600                sim_EnableCHVReq_Evt
                0xffffffff881c8610                sim_UnblockCHVRe_Evt
                0xffffffff881c8620                sim_SeekReq_Evt
                0xffffffff881c8630                sim_IncreaseReq_Evt
                0xffffffff881c8640                sim_ElemFileStatusReq_Evt
                0xffffffff881c8650                sim_DedicFileStatusReq_Evt
                0xffffffff881c8660                sim_StatusTimer_Evt
                0xffffffff881c8670                sim_TerminalProfileReq_Evt
                0xffffffff881c8680                sim_EnvelopeReq_Evt
                0xffffffff881c8690                sim_TerminalResponseReq_Evt
                0xffffffff881c86a0                sim_StopReq_Evt
                0xffffffff881c86b0                sim_PollReq_Evt
                0xffffffff881c86c0                sim_PollOffReq_Evt
                0xffffffff881c86d0                sim_SelectApplicationReq_Evt
                0xffffffff881c86e0                sim_RunUmtsAlgoReq_Evt
                0xffffffff881c86f0                sim_SetUsimPbkReq_Evt
                0xffffffff881c8700                sim_PowerOffReq_Evt
                0xffffffff881c8710                sim_RetryReq_Evt
                0xffffffff881c8720                sim_SeekAllReq_Evt
                0xffffffff881c8730                sim_SendCmdReq_Evt
                0xffffffff881c8740                sim_ManageChannelReq_Evt
                0xffffffff881c8750                sim_EvtList
                0xffffffff881c8bac                sm_TaskParse
                0xffffffff881c8ee8                sm_apiCtxActivateReqEvt
                0xffffffff881c8ef8                sm_apiInCtxActivateRejEvt
                0xffffffff881c8f08                sm_apiCtxDeactivateReqEvt
                0xffffffff881c8f18                sm_apiCtxModifyReqEvt
                0xffffffff881c8f28                sm_apiCtxModifyAccEvt
                0xffffffff881c8f38                sm_apiCtxModifyRejEvt
                0xffffffff881c8f48                sm_sndActivateRspEvt
                0xffffffff881c8f58                sm_sndDeactivateRspEvt
                0xffffffff881c8f68                sm_sndModifyRspEvt
                0xffffffff881c8f78                sm_sndStatusReqEvt
                0xffffffff881c8f88                sm_mmpAbortIndEvt
                0xffffffff881c8f98                sm_mmpDataIndEvt
                0xffffffff881c8fa8                sm_mmpRauAccPdpStatusIndEvt
                0xffffffff881c8fb8                sm_T3380Evt
                0xffffffff881c8fc8                sm_T3381Evt
                0xffffffff881c8fd8                sm_T3390Evt
                0xffffffff881c8fe8                sm_mmpCtxActivateAccEvt
                0xffffffff881c8ff8                sm_mmpCtxActivateRejEvt
                0xffffffff881c9008                sm_mmpCtxModifyReqEvt
                0xffffffff881c9018                sm_mmpCtxModifyAccEvt
                0xffffffff881c9028                sm_mmpCtxModifyRejEvt
                0xffffffff881c9038                sm_mmpCtxDeactivateReqEvt
                0xffffffff881c9048                sm_mmpCtxDeactivateAccEvt
                0xffffffff881c9058                sm_mmpSmStatusIndEvt
                0xffffffff881c9068                sm_apiCtxActivateCnfEvt
                0xffffffff881c9074                sm_apiCtxSmIndexIndEvt
                0xffffffff881c9080                sm_apiOutCtxActivateRejEvt
                0xffffffff881c908c                sm_apiCtxDeactivateIndEvt
                0xffffffff881c9098                sm_apiCtxDeactivateCnfEvt
                0xffffffff881c90a4                sm_apiCtxModifyCnfEvt
                0xffffffff881c90b0                sm_apiCtxModifyIndEvt
                0xffffffff881c90bc                sm_apiOutCtxModifyRejEvt
                0xffffffff881c90c8                sm_sndActivateIndEvt
                0xffffffff881c90d4                sm_sndDeactivateIndEvt
                0xffffffff881c90e0                sm_sndModifyIndEvt
                0xffffffff881c90ec                sm_mmpDataReqEvt
                0xffffffff881c90f8                sm_mmpPdpCtxStatusIndEvt
                0xffffffff881c9104                sm_mmpNoNetrspIndEvt
                0xffffffff881c9110                sm_mmpDeleteSaveDataReqEvt
                0xffffffff881c911c                sm_EvtList
                0xffffffff881c915c                sm_Gene
                0xffffffff881c917c                sm_PdpInactive
                0xffffffff881c918c                sm_WaitMmpCtxActivateAcc
                0xffffffff881c91b4                sm_WaitSmActivateRsp
                0xffffffff881c91cc                sm_WaitMmpCtxModifyAcc
                0xffffffff881c9204                sm_WaitSmModifyRsp
                0xffffffff881c921c                sm_PdpActive
                0xffffffff881c9254                sm_WaitMmpCtxDeactivateAcc
                0xffffffff881c927c                sm_WaitSmDeactivateRsp
                0xffffffff881c928c                sm_WaitApiModifyAcc
                0xffffffff881c94e4                sm_FSM
                0xffffffff881c95bc                sms_TaskParse
                0xffffffff881c97f0                smr_apiSmsPPSendReqEvt
                0xffffffff881c9800                smr_apiSmsPPSendMMAReqEvt
                0xffffffff881c9810                smr_apiSmsPPAckReqEvt
                0xffffffff881c9820                smr_apiSmsPPErrorReqEvt
                0xffffffff881c9830                smr_apiSmsPPAbortMMAReqEvt
                0xffffffff881c9840                smr_apiSmsPPAbortReqEvt
                0xffffffff881c9850                smc_mmEstabCnfEvt
                0xffffffff881c9860                smc_mmEstabErrEvt
                0xffffffff881c9870                smc_mmDataIndEvt
                0xffffffff881c9880                smc_mmReleaseIndEvt
                0xffffffff881c9890                smc_mmServReqAckEvt
                0xffffffff881c98a0                smc_mmpDataIndEvt
                0xffffffff881c98b0                smc_mmpAbortIndEvt
                0xffffffff881c98c0                smr_smrTR1MExpEvt
                0xffffffff881c98d0                smr_smrTR1MReExpEvt
                0xffffffff881c98e0                smr_smrTR2MExpEvt
                0xffffffff881c98f0                smr_smrTRAMExpEvt
                0xffffffff881c9900                smc_smcMOTC1MExpEvt
                0xffffffff881c9910                smc_smcMTTC1MExpEvt
                0xffffffff881c9920                smc_smrMODataReqEvt
                0xffffffff881c9930                smc_smrMTDataReqEvt
                0xffffffff881c9940                smc_smrEstabReqEvt
                0xffffffff881c9950                smc_smrMOReleaseReqEvt
                0xffffffff881c9960                smc_smrMOAbortReqEvt
                0xffffffff881c9970                smc_smrMTAbortReqEvt
                0xffffffff881c9980                smr_smcDataIndEvt
                0xffffffff881c9990                smr_smcEstabErrEvt
                0xffffffff881c99a0                smr_smcMOErrorIndEvt
                0xffffffff881c99b0                smr_smcMTErrorIndEvt
                0xffffffff881c99c0                smr_SelfSendEvt
                0xffffffff881c99d0                smc_mmCpDataEvt
                0xffffffff881c99e0                smc_mmCpAckEvt
                0xffffffff881c99f0                smc_mmCpErrorEvt
                0xffffffff881c9a00                smc_mmError97Evt
                0xffffffff881c9a10                smr_smcRpDataEvt
                0xffffffff881c9a20                smr_smcRpAckEvt
                0xffffffff881c9a30                smr_smcRpErrorEvt
                0xffffffff881c9a40                smr_smcError95Evt
                0xffffffff881c9a50                smr_smcError97Evt
                0xffffffff881c9a60                smc_mmEstabReqEvt
                0xffffffff881c9a6c                smc_mmReleaseReqEvt
                0xffffffff881c9a78                smc_mmDataReqEvt
                0xffffffff881c9a84                smc_mmpDataReqEvt
                0xffffffff881c9a90                smc_mmEstabIndEvt
                0xffffffff881c9a9c                smr_apiAckIndEvt
                0xffffffff881c9aa8                smr_apiErrorIndEvt
                0xffffffff881c9ab4                smr_apiReceiveIndEvt
                0xffffffff881c9ac0                smr_OutSelfSendEvt
                0xffffffff881c9acc                sms_EvtList
                0xffffffff881c9b84                snd_TaskParse
                0xffffffff881c9d4c                snd_apiQueueDataReqEvt
                0xffffffff881c9d5c                snd_smActivateIndEvt
                0xffffffff881c9d6c                snd_smDeactivateIndEvt
                0xffffffff881c9d7c                snd_smModifyIndEvt
                0xffffffff881c9d8c                snd_llcResetIndEvt
                0xffffffff881c9d9c                snd_llcEstabIndEvt
                0xffffffff881c9dac                snd_llcEstabCnfEvt
                0xffffffff881c9dbc                snd_llcReleaseIndEvt
                0xffffffff881c9dcc                snd_llcReleaseCnfEvt
                0xffffffff881c9ddc                snd_llcXidIndEvt
                0xffffffff881c9dec                snd_llcXidCnfEvt
                0xffffffff881c9dfc                snd_llcDataIndEvt
                0xffffffff881c9e0c                snd_llcUnitDataIndEvt
                0xffffffff881c9e1c                snd_llcQueueCreateIndEvt
                0xffffffff881c9e2c                snd_llcDataCnfEvt
                0xffffffff881c9e3c                snd_mmpSequenceIndEvt
                0xffffffff881c9e4c                snd_sndUnitDataReqEvt
                0xffffffff881c9e5c                snd_sndDataReqEvt
                0xffffffff881c9e6c                snd_llcEstabReqEvt
                0xffffffff881c9e78                snd_llcEstabRspEvt
                0xffffffff881c9e84                snd_llcReleaseReqEvt
                0xffffffff881c9e90                snd_llcXidReqEvt
                0xffffffff881c9e9c                snd_llcXidRspEvt
                0xffffffff881c9ea8                snd_llcChangeLlcParReqEvt
                0xffffffff881c9eb4                snd_smActivateRspEvt
                0xffffffff881c9ec0                snd_smDeactivateRspEvt
                0xffffffff881c9ecc                snd_smModifyRspEvt
                0xffffffff881c9ed8                snd_smStatusReqEvt
                0xffffffff881c9ee4                snd_apiQueueCreateIndEvt
                0xffffffff881c9ef0                snd_mmpSequenceRspEvt
                0xffffffff881c9efc                snd_EvtList
                0xffffffff881c9f3c                snd_Gene
                0xffffffff881c9f54                snd_Idle
                0xffffffff881c9f8c                snd_WaitEstabCnf
                0xffffffff881c9fc4                snd_Connected
                0xffffffff881ca00c                snd_WaitReleaseCnf
                0xffffffff881ca02c                snd_WaitEstabInd
                0xffffffff881ca04c                snd_WaitReleaseInd
                0xffffffff881ca064                snd_RoutingAreaUpdInter
                0xffffffff881ca324                snd_FSM
                0xffffffff881ca4fc                snd_TabSapiToSapiIdx
                0xffffffff881ca508                snd_TabSapiIdxToSapi
                0xffffffff881ca5a8                ss_TaskParse
                0xffffffff881ca620                ss_mmIReleaseInd
                0xffffffff881ca630                ss_mmIEstabCnf
                0xffffffff881ca640                ss_mmIEstabErr
                0xffffffff881ca650                ss_mmIServReq
                0xffffffff881ca660                ss_apiIActionReq
                0xffffffff881ca670                ss_Timer0Exp
                0xffffffff881ca680                ss_ComponentRcvd
                0xffffffff881ca690                ss_USSDIReleaseComplete
                0xffffffff881ca6a0                ss_mmOEstabReq
                0xffffffff881ca6ac                ss_mmOEstabInd
                0xffffffff881ca6b8                ss_mmOReleaseReq
                0xffffffff881ca6c4                ss_mmODataReq
                0xffffffff881ca6d0                ss_apiOActionCnf
                0xffffffff881ca6dc                ss_apiOTIInd
                0xffffffff881ca6e8                ss_apiOErrorInd
                0xffffffff881ca6f4                ss_apiOActionInd
                0xffffffff881ca700                ss_GENE
                0xffffffff881ca708                ss_U0
                0xffffffff881ca710                ss_U01
                0xffffffff881ca740                ss_U1
                0xffffffff881ca788                ss_FsmDec
                0xffffffff881ca8e8                g_tgtHalCfg
                0xffffffff881ca96c                g_tgtAudCfg
                0xffffffff881caa8c                g_tgtXcvCfg
                0xffffffff881caa90                g_tgtPaCfg
                0xffffffff881caa94                g_tgtSwCfg
                0xffffffff881caa98                g_tgtDsmCfg
                0xffffffff881caadc                g_tgtMcdCfg
                0xffffffff881caae8                g_tgtUctlsCfg
                0xffffffff881caf08                g_ddr_table
                0xffffffff881caf70                g_uatCallback
                0xffffffff881cb09c                g_uattransportCallback
                0xffffffff881cb0a4                g_uatctrolCallback
                0xffffffff881cb0ac                g_umssCallback
                0xffffffff881cb0b4                g_umssStorageFlashCallback
                0xffffffff881cb0cc                g_umssStorageMcCallback
                0xffffffff881cb0f8                g_umssTransportBoScsiCallback
                0xffffffff881cb100                g_utracesCallback
                0xffffffff881cb154                g_vppSpeechMainCodeSize
                0xffffffff881cb158                api_TaskParse
                0xffffffff881cc688                api_StartReq
                0xffffffff881cc698                api_StopReq
                0xffffffff881cc6a8                api_ImeiReq
                0xffffffff881cc6b8                api_SimOpenInd
                0xffffffff881cc6c8                api_SimCloseInd
                0xffffffff881cc6d8                api_DbgInfoCmd
                0xffffffff881cc6e8                api_CcSetupReq
                0xffffffff881cc6f8                api_CcCallConfReq
                0xffffffff881cc708                api_CcAlertReq
                0xffffffff881cc718                api_CcConnectReq
                0xffffffff881cc728                api_CcDiscReq
                0xffffffff881cc738                api_CcReleaseReq
                0xffffffff881cc748                api_CcReleaseCmpltReq
                0xffffffff881cc758                api_CcCallHoldReq
                0xffffffff881cc768                api_CcCallRetrieveReq
                0xffffffff881cc778                api_CcStartDtmfReq
                0xffffffff881cc788                api_CcStopDtmfReq
                0xffffffff881cc798                api_CcModifyReq
                0xffffffff881cc7a8                api_CcModifyCmpltReq
                0xffffffff881cc7b8                api_CcModifyRejReq
                0xffffffff881cc7c8                api_CcNotifyReq
                0xffffffff881cc7d8                api_CcFacilityReq
                0xffffffff881cc7e8                api_CcUserInfoReq
                0xffffffff881cc7f8                api_QualReportReq
                0xffffffff881cc808                api_NwSelModeReq
                0xffffffff881cc818                api_NwListReq
                0xffffffff881cc828                api_NwListAbortReq
                0xffffffff881cc838                api_NwSelReq
                0xffffffff881cc848                api_NwReSelReq
                0xffffffff881cc858                api_CurCellInfoReq
                0xffffffff881cc868                api_AdjCellInfoReq
                0xffffffff881cc878                api_SyncInfoReq
                0xffffffff881cc888                api_PowerScanReq
                0xffffffff881cc898                api_DetectMBSReq
                0xffffffff881cc8a8                api_CellListReq
                0xffffffff881cc8b8                api_CellReselReq
                0xffffffff881cc8c8                api_NwPSAttachReq
                0xffffffff881cc8d8                api_NwPSDetachReq
                0xffffffff881cc8e8                api_SmsPPSendReqEvt
                0xffffffff881cc8f8                api_SmsPPSendMMAReqEvt
                0xffffffff881cc908                api_SmsPPAbortMMAReqEvt
                0xffffffff881cc918                api_SmsPPAbortReqEvt
                0xffffffff881cc928                api_SmsPPAckReqEvt
                0xffffffff881cc938                api_SmsPPErrorReqEvt
                0xffffffff881cc948                api_SmsCBActivateReqEvt
                0xffffffff881cc958                api_SmsCBDeActivateReqEvt
                0xffffffff881cc968                api_SsActionReq
                0xffffffff881cc978                api_PdpCtxActivateReqEvt
                0xffffffff881cc988                api_PdpSetMinQoSReqEvt
                0xffffffff881cc998                api_PdpCtxModifyReqEvt
                0xffffffff881cc9a8                api_PdpCtxModifyAccEvt
                0xffffffff881cc9b8                api_PdpCtxDeactivateReqEvt
                0xffffffff881cc9c8                api_IPdpCtxActivateRejEvt
                0xffffffff881cc9d8                api_PsDataReq
                0xffffffff881cc9e8                api_SimResetReq
                0xffffffff881cc9f8                api_SimReadBinaryReq
                0xffffffff881cca08                api_SimUpdateBinaryReq
                0xffffffff881cca18                api_SimReadRecordReq
                0xffffffff881cca28                api_SimUpdateRecordReq
                0xffffffff881cca38                api_SimInvalidateReq
                0xffffffff881cca48                api_SimRehabilitateReq
                0xffffffff881cca58                api_SimSeekReq
                0xffffffff881cca68                api_SimIncreaseReq
                0xffffffff881cca78                api_SimVerifyChvReq
                0xffffffff881cca88                api_SimChangeChvReq
                0xffffffff881cca98                api_SimDisableChvReq
                0xffffffff881ccaa8                api_SimEnableChvReq
                0xffffffff881ccab8                api_SimUnblockChvReq
                0xffffffff881ccac8                api_SimElemFileStatusReq
                0xffffffff881ccad8                api_SimDedicFileStatusReq
                0xffffffff881ccae8                api_SimTerminalProfileReq
                0xffffffff881ccaf8                api_SimTerminalEnvelopeReq
                0xffffffff881ccb08                api_SimTerminalResponseReq
                0xffffffff881ccb18                api_SimStkActivateReq
                0xffffffff881ccb28                api_SimPollReq
                0xffffffff881ccb38                api_SimPollOffReq
                0xffffffff881ccb48                api_SimSelectApplictionReq
                0xffffffff881ccb58                api_SimSetUsimPbkReq
                0xffffffff881ccb68                api_SimRetryReq
                0xffffffff881ccb78                api_SimSeekAllReq
                0xffffffff881ccb88                api_SimSendCmdReq
                0xffffffff881ccb98                api_SimManageChannelReq
                0xffffffff881ccba8                l1_ErrorInd
                0xffffffff881ccbb8                rr_NwListInd
                0xffffffff881ccbc8                rr_NwListAbortInd
                0xffffffff881ccbd8                rr_NwCsRegInd
                0xffffffff881ccbe8                rr_PowerScanRsp
                0xffffffff881ccbf8                rr_NwPsRegInd
                0xffffffff881ccc08                rr_NwStoreListInd
                0xffffffff881ccc18                rr_QualReportCnf
                0xffffffff881ccc28                stk_StopCnf
                0xffffffff881ccc38                stk_SimCloseCnf
                0xffffffff881ccc48                rr_CurCellInfoInd
                0xffffffff881ccc58                rr_AdjCellInfoInd
                0xffffffff881ccc68                rr_ChanModeInd
                0xffffffff881ccc78                rr_PowerListInd
                0xffffffff881ccc88                rr_SyncInfoInd
                0xffffffff881ccc98                rr_CellListInfoInd
                0xffffffff881ccca8                rr_CellListAbortInd
                0xffffffff881cccb8                rr_NwSelAbortInd
                0xffffffff881cccc8                rr_ApiCellReselCnf
                0xffffffff881cccd8                mm_NwkInfoInd
                0xffffffff881ccce8                mm_GprsTestModeInd
                0xffffffff881cccf8                cc_TIInd
                0xffffffff881ccd08                cc_SetupInd
                0xffffffff881ccd18                cc_CallProcInd
                0xffffffff881ccd28                cc_ProgInd
                0xffffffff881ccd38                cc_AlertInd
                0xffffffff881ccd48                cc_ConnectInd
                0xffffffff881ccd58                cc_ConnectAckInd
                0xffffffff881ccd68                cc_DiscInd
                0xffffffff881ccd78                cc_RelInd
                0xffffffff881ccd88                cc_RelCmptInd
                0xffffffff881ccd98                cc_ErrorInd
                0xffffffff881ccda8                cc_CallHoldCnf
                0xffffffff881ccdb8                cc_CallRtvCnf
                0xffffffff881ccdc8                cc_ModifyInd
                0xffffffff881ccdd8                cc_ModifyCmpltInd
                0xffffffff881ccde8                cc_ModifyRejInd
                0xffffffff881ccdf8                cc_NotifyInd
                0xffffffff881cce08                cc_AudioOnInd
                0xffffffff881cce18                cc_FacilityInd
                0xffffffff881cce28                cc_UserInfoInd
                0xffffffff881cce38                cc_Reestab_Begin_Ind
                0xffffffff881cce48                cc_Reestab_Cnf_Ind
                0xffffffff881cce58                smspp_AckIndEvt
                0xffffffff881cce68                smspp_ErrorIndEvt
                0xffffffff881cce78                smspp_ReceiveIndEvt
                0xffffffff881cce88                cb_MsgRecIndEvt
                0xffffffff881cce98                cb_PagRecIndEvt
                0xffffffff881ccea8                ss_ActionCnfEvt
                0xffffffff881cceb8                ss_TIIndEvt
                0xffffffff881ccec8                ss_ErrorIndEvt
                0xffffffff881cced8                ss_ActionIndEvt
                0xffffffff881ccee8                snd_DataIndEvt
                0xffffffff881ccef8                snd_QueueCreateIndEvt
                0xffffffff881ccf08                sm_PdpCtxActivateCnfEvt
                0xffffffff881ccf18                sm_PdpCtxSmIndexIndEvt
                0xffffffff881ccf28                sm_PdpCtxDeactivateCnfEvt
                0xffffffff881ccf38                sm_PdpCtxActivateRejEvt
                0xffffffff881ccf48                sm_PdpCtxModifyRejEvt
                0xffffffff881ccf58                sm_PdpCtxActivateIndEvt
                0xffffffff881ccf68                sm_PdpCtxModifyCnfEvt
                0xffffffff881ccf78                sm_PdpCtxModifyIndEvt
                0xffffffff881ccf88                sm_PdpCtxDeactivateIndEvt
                0xffffffff881ccf98                sim_SimResetCnf
                0xffffffff881ccfa8                sim_SimStatusErrorInd
                0xffffffff881ccfb8                sim_SimReadBinaryCnf
                0xffffffff881ccfc8                sim_SimUpdateBinaryCnf
                0xffffffff881ccfd8                sim_SimReadRecordCnf
                0xffffffff881ccfe8                sim_SimUpdateRecordCnf
                0xffffffff881ccff8                sim_SimInvalidateCnf
                0xffffffff881cd008                sim_SimRehabilitateCnf
                0xffffffff881cd018                sim_SimSeekCnf
                0xffffffff881cd028                sim_SimIncreaseCnf
                0xffffffff881cd038                sim_SimVerifyCHVCnf
                0xffffffff881cd048                sim_SimChangeCHVCnf
                0xffffffff881cd058                sim_SimDisableCHVCnf
                0xffffffff881cd068                sim_SimEnableCHVCnf
                0xffffffff881cd078                sim_SimUnblockCHVCnf
                0xffffffff881cd088                sim_SimElemFileStatusCnf
                0xffffffff881cd098                sim_SimDedicFileStatusCnf
                0xffffffff881cd0a8                sim_SimTerminalProfileCnf
                0xffffffff881cd0b8                sim_SimTerminalEnvelopeCnf
                0xffffffff881cd0c8                sim_SimTerminalResponseCnf
                0xffffffff881cd0d8                sim_SimFetchInd
                0xffffffff881cd0e8                sim_SimSelectApplicationCnf
                0xffffffff881cd0f8                sim_SimSeekAllCnf
                0xffffffff881cd108                sim_SimSendCmdCnf
                0xffffffff881cd118                sim_SimManageChannelCnf
                0xffffffff881cd128                rlu_UlCongInd
                0xffffffff881cd138                api_IMemAlertExp
                0xffffffff881cd148                api_ImeiInd
                0xffffffff881cd154                api_StopCnf
                0xffffffff881cd160                api_SimCloseCnf
                0xffffffff881cd16c                api_RadiolinkErrorInd
                0xffffffff881cd178                api_QualReportCnf
                0xffffffff881cd184                api_NwCsRegStatusInd
                0xffffffff881cd190                api_NwPsRegStatusInd
                0xffffffff881cd19c                api_NwStoreListInd
                0xffffffff881cd1a8                api_NwListInd
                0xffffffff881cd1b4                api_NwListAbortInd
                0xffffffff881cd1c0                api_PowerScanRsp
                0xffffffff881cd1cc                api_CurCellInfoInd
                0xffffffff881cd1d8                api_AdjCellInfoInd
                0xffffffff881cd1e4                api_CcChanModeInd
                0xffffffff881cd1f0                api_PowerListInd
                0xffffffff881cd1fc                api_SyncInfoInd
                0xffffffff881cd208                api_CellListInfoInd
                0xffffffff881cd214                api_CellListAbortInd
                0xffffffff881cd220                api_NWSelAbortInd
                0xffffffff881cd22c                api_CellReselCnf
                0xffffffff881cd238                api_NwkInfoInd
                0xffffffff881cd244                api_GprsTestModeInd
                0xffffffff881cd250                api_CcTIInd
                0xffffffff881cd25c                api_CcSetupInd
                0xffffffff881cd268                api_CcCallProcInd
                0xffffffff881cd274                api_CcProgInd
                0xffffffff881cd280                api_CcAlertInd
                0xffffffff881cd28c                api_CcConnectInd
                0xffffffff881cd298                api_CcConnectAckInd
                0xffffffff881cd2a4                api_CcDiscInd
                0xffffffff881cd2b0                api_CcRelInd
                0xffffffff881cd2bc                api_CcRelCmptInd
                0xffffffff881cd2c8                api_CcErrorInd
                0xffffffff881cd2d4                api_CcCallHoldCnf
                0xffffffff881cd2e0                api_CcCallRtrvCnf
                0xffffffff881cd2ec                api_CcModifyInd
                0xffffffff881cd2f8                api_CcModifyCmpltInd
                0xffffffff881cd304                api_CcModifyRejInd
                0xffffffff881cd310                api_CcNotifyInd
                0xffffffff881cd31c                api_CcAudioOnInd
                0xffffffff881cd328                api_CcFacilityInd
                0xffffffff881cd334                api_CcUserInfoInd
                0xffffffff881cd340                api_CcReestabBeginInd
                0xffffffff881cd34c                api_CcReestabCnfInd
                0xffffffff881cd358                api_SmsPPAckIndEvt
                0xffffffff881cd364                api_SmsPPErrorIndEvt
                0xffffffff881cd370                api_SmsPPReceiveIndEvt
                0xffffffff881cd37c                api_CbMsgRecInd
                0xffffffff881cd388                api_CbPagRecInd
                0xffffffff881cd394                api_SsActionCnf
                0xffffffff881cd3a0                api_SsTIInd
                0xffffffff881cd3ac                api_SsErrorInd
                0xffffffff881cd3b8                api_SsActionInd
                0xffffffff881cd3c4                api_SndDataInd
                0xffffffff881cd3d0                api_SndQueueCreateInd
                0xffffffff881cd3dc                api_PdpCtxActivateCnfEvt
                0xffffffff881cd3e8                api_PdpCtxSmIndexIndEvt
                0xffffffff881cd3f4                api_PdpCtxDeactivateCnfEvt
                0xffffffff881cd400                api_PdpCtxActivateRejEvt
                0xffffffff881cd40c                api_PdpCtxModifyRejEvt
                0xffffffff881cd418                api_PdpCtxActivateIndEvt
                0xffffffff881cd424                api_PdpCtxModifyCnfEvt
                0xffffffff881cd430                api_PdpCtxModifyIndEvt
                0xffffffff881cd43c                api_PdpCtxDeactivateIndEvt
                0xffffffff881cd448                api_SimResetCnf
                0xffffffff881cd454                api_SimStatusErrorInd
                0xffffffff881cd460                api_SimReadBinaryCnf
                0xffffffff881cd46c                api_SimUpdateBinaryCnf
                0xffffffff881cd478                api_SimReadRecordCnf
                0xffffffff881cd484                api_SimUpdateRecordCnf
                0xffffffff881cd490                api_SimInvalidateCnf
                0xffffffff881cd49c                api_SimRehabilitateCnf
                0xffffffff881cd4a8                api_SimSeekCnf
                0xffffffff881cd4b4                api_SimIncreaseCnf
                0xffffffff881cd4c0                api_SimVerifyCHVCnf
                0xffffffff881cd4cc                api_SimChangeCHVCnf
                0xffffffff881cd4d8                api_SimDisableCHVCnf
                0xffffffff881cd4e4                api_SimEnableCHVCnf
                0xffffffff881cd4f0                api_SimUnblockCHVCnf
                0xffffffff881cd4fc                api_SimElemFileStatusCnf
                0xffffffff881cd508                api_SimDedicFileStatusCnf
                0xffffffff881cd514                api_SimTerminalProfileCnf
                0xffffffff881cd520                api_SimTerminalEnvelopeCnf
                0xffffffff881cd52c                api_SimTerminalResponseCnf
                0xffffffff881cd538                api_SimFetchInd
                0xffffffff881cd544                api_SimSelectApplicationCnf
                0xffffffff881cd550                api_SimSeekAllCnf
                0xffffffff881cd55c                api_SimSendCmdCnf
                0xffffffff881cd568                api_SimManageChannelCnf
                0xffffffff881cd574                stk_SimOpenInd
                0xffffffff881cd580                stk_SimClosedInd
                0xffffffff881cd58c                rr_NwSelModeReq
                0xffffffff881cd598                rr_NwListReq
                0xffffffff881cd5a4                rr_NwListAbortReq
                0xffffffff881cd5b0                rr_NwSelReq
                0xffffffff881cd5bc                rr_NwReselReq
                0xffffffff881cd5c8                rr_QualReportReq
                0xffffffff881cd5d4                rr_CurCellInfoReq
                0xffffffff881cd5e0                rr_AdjCellInfoReq
                0xffffffff881cd5ec                rr_SyncInfoReq
                0xffffffff881cd5f8                rr_PowerScanReq
                0xffffffff881cd604                rr_CellListReq
                0xffffffff881cd610                rr_DetectMBSReq
                0xffffffff881cd61c                rr_ApiCellReselReq
                0xffffffff881cd628                stk_StopReq
                0xffffffff881cd634                mm_StartReq
                0xffffffff881cd640                mm_PSAttachReq
                0xffffffff881cd64c                mm_PSDetachReq
                0xffffffff881cd658                cc_SetupReq
                0xffffffff881cd664                cc_CallConfReq
                0xffffffff881cd670                cc_AlertReq
                0xffffffff881cd67c                cc_ConnectReq
                0xffffffff881cd688                cc_DiscReq
                0xffffffff881cd694                cc_RelReq
                0xffffffff881cd6a0                cc_RelCmptReq
                0xffffffff881cd6ac                cc_CallHoldReq
                0xffffffff881cd6b8                cc_CallRtrvReq
                0xffffffff881cd6c4                cc_StartDtmfReq
                0xffffffff881cd6d0                cc_StopDtmfReq
                0xffffffff881cd6dc                cc_ModifyReq
                0xffffffff881cd6e8                cc_ModifyCmpltReq
                0xffffffff881cd6f4                cc_ModifyRejReq
                0xffffffff881cd700                cc_NotifyReq
                0xffffffff881cd70c                cc_FacilityReq
                0xffffffff881cd718                cc_UserInfoReq
                0xffffffff881cd724                smspp_SendReqEvt
                0xffffffff881cd730                smspp_SendMMAReqEvt
                0xffffffff881cd73c                smspp_AckReqEvt
                0xffffffff881cd748                smspp_ErrorReqEvt
                0xffffffff881cd754                smspp_AbortMMAReqEvt
                0xffffffff881cd760                smspp_AbortReqEvt
                0xffffffff881cd76c                cb_ActivateReq
                0xffffffff881cd778                cb_DeactivateReq
                0xffffffff881cd784                ss_ActionReq
                0xffffffff881cd790                sm_PdpCtxActivateReqEvt
                0xffffffff881cd79c                sm_PdpSetMinQoSReqEvt
                0xffffffff881cd7a8                sm_PdpCtxModifyReqEvt
                0xffffffff881cd7b4                sm_PdpCtxModifyAccEvt
                0xffffffff881cd7c0                sm_PdpCtxDeactivateReqEvt
                0xffffffff881cd7cc                sm_OPdpCtxActivateRejEvt
                0xffffffff881cd7d8                sim_SimResetReq
                0xffffffff881cd7e4                sim_SimReadBinaryReq
                0xffffffff881cd7f0                sim_SimUpdateBinaryReq
                0xffffffff881cd7fc                sim_SimReadRecordReq
                0xffffffff881cd808                sim_SimUpdateRecordReq
                0xffffffff881cd814                sim_SimInvalidateReq
                0xffffffff881cd820                sim_SimRehabilitateReq
                0xffffffff881cd82c                sim_SimSeekReq
                0xffffffff881cd838                sim_SimIncreaseReq
                0xffffffff881cd844                sim_SimVerifyChvReq
                0xffffffff881cd850                sim_SimChangeChvReq
                0xffffffff881cd85c                sim_SimDisableChvReq
                0xffffffff881cd868                sim_SimEnableChvReq
                0xffffffff881cd874                sim_SimUnblockChvReq
                0xffffffff881cd880                sim_SimElemFileStatusReq
                0xffffffff881cd88c                sim_SimDedicFileStatusReq
                0xffffffff881cd898                sim_SimTerminalProfileReq
                0xffffffff881cd8a4                sim_SimTerminalEnvelopeReq
                0xffffffff881cd8b0                sim_SimTerminalResponseReq
                0xffffffff881cd8bc                sim_SimStkActivateReq
                0xffffffff881cd8c8                sim_SimPollReq
                0xffffffff881cd8d4                sim_SimPollOffReq
                0xffffffff881cd8e0                sim_SimSelectApplicationReq
                0xffffffff881cd8ec                sim_SimSetUsimPbkReq
                0xffffffff881cd8f8                sim_simPowerOffReq
                0xffffffff881cd904                sim_simRetryReq
                0xffffffff881cd910                sim_SimSeekAllReq
                0xffffffff881cd91c                sim_SimSendCmdReq
                0xffffffff881cd928                sim_SimManageChannelReq
                0xffffffff881cd934                api_FlowCtrIndEvt
                0xffffffff881cd940                api_StartStackErrIndEvt
                0xffffffff881cd94c                Api_Gene
                0xffffffff881cda10                Api_FSM
                0xffffffff881cdbc8                g_calibOpInfoDefault
                0xffffffff881cdbd0                g_calibBbDefault
                0xffffffff881ce55c                g_calibIIRDefault
                0xffffffff881ce64c                g_calibAudioVoCDefault
                0xffffffff881cfcac                g_calibAudioMusicDefault
                0xffffffff881d01e4                g_calibSxsTaskIdleDesc
                0xffffffff881d01f4                g_calibSxsCalibStubTaskDesc
                0xffffffff881d0210                cb_TaskParse
                0xffffffff881d0258                cb_ApiActivateReq
                0xffffffff881d0268                cb_ApiDeactivateReq
                0xffffffff881d0278                cb_RrCellInd
                0xffffffff881d0288                cb_L1DataInd
                0xffffffff881d0298                cb_CbMsgRecInd
                0xffffffff881d02a4                cb_CbPageRecInd
                0xffffffff881d02b0                cb_RrCbchReq
                0xffffffff881d02bc                cb_L1CbchSkipReq
                0xffffffff881d02c8                cb_GENE
                0xffffffff881d02e0                cb_NULL
                0xffffffff881d02f8                cb_IDLE
                0xffffffff881d0300                cb_RXBLK
                0xffffffff881d0344                cb_FSM
                0xffffffff881d03a0                cc_TaskParse
                0xffffffff881d0620                cc_rrIChanModeInd
                0xffffffff881d0630                cc_mmIReleaseInd
                0xffffffff881d0640                cc_mmIEstabCnf
                0xffffffff881d0650                cc_mmIEstabErr
                0xffffffff881d0660                cc_mmIReestabCnf
                0xffffffff881d0670                cc_mmIReestabErr
                0xffffffff881d0680                cc_mmIServReq
                0xffffffff881d0690                cc_mmILocUpStaInd
                0xffffffff881d06a0                cc_mmIPageBeginInd
                0xffffffff881d06b0                cc_apiISetupReq
                0xffffffff881d06c0                cc_apiICallConfReq
                0xffffffff881d06d0                cc_apiIAlertReq
                0xffffffff881d06e0                cc_apiIConnectReq
                0xffffffff881d06f0                cc_apiIDiscReq
                0xffffffff881d0700                cc_apiIRelReq
                0xffffffff881d0710                cc_apiIRelCmptReq
                0xffffffff881d0720                cc_apiIStartDtmfReq
                0xffffffff881d0730                cc_apiIStopDtmfReq
                0xffffffff881d0740                cc_apiICallHoldReq
                0xffffffff881d0750                cc_apiICallRtrvReq
                0xffffffff881d0760                cc_apiIFacilityReq
                0xffffffff881d0770                cc_apiIModifyReq
                0xffffffff881d0780                cc_apiIModifyCmpltReq
                0xffffffff881d0790                cc_apiIModifyRejReq
                0xffffffff881d07a0                cc_apiINotifyReq
                0xffffffff881d07b0                cc_apiIUserInfoReq
                0xffffffff881d07c0                T303Exp
                0xffffffff881d07d0                T305Exp
                0xffffffff881d07e0                T308Exp
                0xffffffff881d07f0                T310Exp
                0xffffffff881d0800                T313Exp
                0xffffffff881d0810                T323Exp
                0xffffffff881d0820                T336Exp
                0xffffffff881d0830                T337Exp
                0xffffffff881d0840                TMPTYExp
                0xffffffff881d0850                TECTExp
                0xffffffff881d0860                TS10Exp
                0xffffffff881d0870                TRETRYExp
                0xffffffff881d0880                TWAITLUExp
                0xffffffff881d0890                cc_Setup
                0xffffffff881d08a0                cc_CallProceeding
                0xffffffff881d08b0                cc_Progress
                0xffffffff881d08c0                cc_Alert
                0xffffffff881d08d0                cc_Connect
                0xffffffff881d08e0                cc_ConnectAck
                0xffffffff881d08f0                cc_Disconnect
                0xffffffff881d0900                cc_Release
                0xffffffff881d0910                cc_ReleaseCmpl
                0xffffffff881d0920                cc_StatusEnquiry
                0xffffffff881d0930                cc_HoldAck
                0xffffffff881d0940                cc_HoldRej
                0xffffffff881d0950                cc_RtrvAck
                0xffffffff881d0960                cc_RtrvRej
                0xffffffff881d0970                cc_StartDtmfAck
                0xffffffff881d0980                cc_StartDtmfRej
                0xffffffff881d0990                cc_StopDtmfAck
                0xffffffff881d09a0                cc_Facility
                0xffffffff881d09b0                cc_Modify
                0xffffffff881d09c0                cc_ModifyCmplt
                0xffffffff881d09d0                cc_ModifyRej
                0xffffffff881d09e0                cc_Notify
                0xffffffff881d09f0                cc_UserInfo
                0xffffffff881d0a00                cc_CongCtrl
                0xffffffff881d0a10                cc_Status
                0xffffffff881d0a20                cc_mmOEstabReq
                0xffffffff881d0a2c                cc_mmOEstabInd
                0xffffffff881d0a38                cc_mmOReleaseReq
                0xffffffff881d0a44                cc_mmOAbortReq
                0xffffffff881d0a50                cc_mmOReestabReq
                0xffffffff881d0a5c                cc_mmODataReq
                0xffffffff881d0a68                cc_apiOTIInd
                0xffffffff881d0a74                cc_apiOSetupInd
                0xffffffff881d0a80                cc_apiOCallProcInd
                0xffffffff881d0a8c                cc_apiOProgInd
                0xffffffff881d0a98                cc_apiOAlertInd
                0xffffffff881d0aa4                cc_apiOConnectInd
                0xffffffff881d0ab0                cc_apiOConnectAckInd
                0xffffffff881d0abc                cc_apiODiscInd
                0xffffffff881d0ac8                cc_apiORelInd
                0xffffffff881d0ad4                cc_apiORelCompInd
                0xffffffff881d0ae0                cc_apiOErrorInd
                0xffffffff881d0aec                cc_apiOAudioOnInd
                0xffffffff881d0af8                cc_apiOCallHoldCnf
                0xffffffff881d0b04                cc_apiOCallRtrvCnf
                0xffffffff881d0b10                cc_apiOFacilityInd
                0xffffffff881d0b1c                cc_apiOModifyInd
                0xffffffff881d0b28                cc_apiOModifyCmpltInd
                0xffffffff881d0b34                cc_apiOModifyRejInd
                0xffffffff881d0b40                cc_apiONotifyInd
                0xffffffff881d0b4c                cc_apiOUserInfoInd
                0xffffffff881d0b58                cc_apiOCongCtrlInd
                0xffffffff881d0b64                cc_apiOCCReestBeginInd
                0xffffffff881d0b70                cc_apiOCCReestCnfInd
                0xffffffff881d0b7c                cc_GENE
                0xffffffff881d0c1c                cc_U0
                0xffffffff881d0c54                cc_U01
                0xffffffff881d0ca4                cc_U1
                0xffffffff881d0cd4                cc_U6
                0xffffffff881d0ce4                cc_U8
                0xffffffff881d0cf4                cc_U9
                0xffffffff881d0d04                cc_U10
                0xffffffff881d0da4                cc_U11
                0xffffffff881d0dbc                cc_U12
                0xffffffff881d0dd4                cc_U19
                0xffffffff881d0df4                cc_REEST
                0xffffffff881d0e80                cc_FsmDec
                0xffffffff881d1158                g_DefCfwNv
                0xffffffff881d1af8                cfw_TaskParse
                0xffffffff881d1c30                DTMF_ARRAY
                0xffffffff881d22e0                dtmf_coeff
                0xffffffff881d2300                second_harmonic_coeff
                0xffffffff881d2320                pitch_coeff_est
                0xffffffff881d2330                dtmf_value
                0xffffffff881d2340                tone_value
                0xffffffff881d2344                tone_coeff
                0xffffffff881d366c                gClkRateList
                0xffffffff881d4334                l1s_PowerJbDesc
                0xffffffff881d4344                l1s_NearJbDesc
                0xffffffff881d4354                l1s_MonitoringAJbDesc
                0xffffffff881d4364                l1s_MonitoringBJbDesc
                0xffffffff881d4374                l1s_CchControlJbDesc
                0xffffffff881d4384                l1s_CchAJbDesc
                0xffffffff881d4394                l1s_CchBJbDesc
                0xffffffff881d43a4                l1s_BcchAJbDesc
                0xffffffff881d43b4                l1s_BcchBJbDesc
                0xffffffff881d43c4                l1s_CbchAJbDesc
                0xffffffff881d43d4                l1s_CbchBJbDesc
                0xffffffff881d43e4                l1s_RachJbDesc
                0xffffffff881d43f4                l1s_SdcchJbDesc
                0xffffffff881d4404                l1s_TchJbDesc
                0xffffffff881d4414                l1s_HoAccessJbDesc
                0xffffffff881d4424                l1s_TBFSetUpJbDesc
                0xffffffff881d4434                l1s_PdchJbDesc
                0xffffffff881d4444                l1s_TBFReleaseJbDesc
                0xffffffff881d4454                l1s_PSJbDesc
                0xffffffff881d4464                l1s_PTCchJbDesc
                0xffffffff881d4474                l1s_BlkSize
                0xffffffff881d4478                l1s_SchDist
                0xffffffff881d44ac                l1s_Si34Dist
                0xffffffff881d44b4                l1s_Si3Dist
                0xffffffff881d44bc                l1s_NBin
                0xffffffff881d44fc                l1s_RnTable
                0xffffffff881d457c                l1s_UpBandMap
                0xffffffff881d4584                l1s_BitsPerBlock
                0xffffffff881d45a0                l1s_MsbToLsb
                0xffffffff881d46a0                l1_TaskParse
                0xffffffff881d481c                l1s_CcchPos
                0xffffffff881d4828                l1s_BcchNBDist
                0xffffffff881d485c                l1s_BcchSdCombNBDist
                0xffffffff881d4890                l1s_PccchNBDist
                0xffffffff881d48c4                l1s_Sdcch4Pos
                0xffffffff881d48f4                l1s_Sdcch8Pos
                0xffffffff881d4954                l1s_TchFSchd
                0xffffffff881d4970                l1s_TchHSchd
                0xffffffff881d49a4                l1s_TchSubFrames
                0xffffffff881d49d4                l1s_DlDataSubFrames
                0xffffffff881d49f8                l1s_TchUlSubFrame
                0xffffffff881d4b20                l1s_PdchDist
                0xffffffff881d4b30                l1s_PdchFSchd
                0xffffffff881d4b60                lap_TaskParse
                0xffffffff881d4e10                lap_l1DataIndEvt
                0xffffffff881d4e20                lap_l1TxIndEvt
                0xffffffff881d4e30                lap_rrEstablishReqEvt
                0xffffffff881d4e40                lap_rrSuspendReqEvt
                0xffffffff881d4e50                lap_rrResumeReqEvt
                0xffffffff881d4e60                lap_rrReconnectReqEvt
                0xffffffff881d4e70                lap_rrNormalReleaseReqEvt
                0xffffffff881d4e80                lap_rrLocalReleaseReqEvt
                0xffffffff881d4e90                lap_rrDataReqEvt
                0xffffffff881d4ea0                lap_rrUnitDataReqEvt
                0xffffffff881d4eb0                lap_lapSapi0T200Evt
                0xffffffff881d4ec0                lap_lapSapi0LastT200Evt
                0xffffffff881d4ed0                lap_lapSapi3T200Evt
                0xffffffff881d4ee0                lap_lapSapi3LastT200Evt
                0xffffffff881d4ef0                lap_RxUaFrameEvt
                0xffffffff881d4f00                lap_RxDmFrameEvt
                0xffffffff881d4f10                lap_RxDiscFrameEvt
                0xffffffff881d4f20                lap_RxRrFrameEvt
                0xffffffff881d4f30                lap_RxRejFrameEvt
                0xffffffff881d4f40                lap_RxSabmFrameEvt
                0xffffffff881d4f50                lap_RxIFrameEvt
                0xffffffff881d4f60                lap_RxUiFrameEvt
                0xffffffff881d4f70                lap_rrEstablishCnfEvt
                0xffffffff881d4f7c                lap_rrEstablishFailureIndEvt
                0xffffffff881d4f88                lap_rrEstablishIndEvt
                0xffffffff881d4f94                lap_rrResumeCnfEvt
                0xffffffff881d4fa0                lap_rrResumeFailureIndEvt
                0xffffffff881d4fac                lap_rrReconnectCnfEvt
                0xffffffff881d4fb8                lap_rrReconnectFailureIndEvt
                0xffffffff881d4fc4                lap_rrReleaseIndEvt
                0xffffffff881d4fd0                lap_rrDataIndEvt
                0xffffffff881d4fdc                lap_rrUnitDataIndEvt
                0xffffffff881d4fe8                lap_rrNormalReleaseCnfEvt
                0xffffffff881d4ff4                lap_rrNormalReleaseFailureIndEvt
                0xffffffff881d5000                lap_EvtList
                0xffffffff881d5038                lap_Gene
                0xffffffff881d5058                lap_Idle
                0xffffffff881d5078                lap_EstabSabmSent
                0xffffffff881d50b0                lap_MFE
                0xffffffff881d5118                lap_Suspended
                0xffffffff881d5138                lap_ResumeSabmSent
                0xffffffff881d5188                lap_ReconnectSabmSent
                0xffffffff881d51c8                lap_TimerRecovery
                0xffffffff881d5228                lap_ReleaseDiscSent
                0xffffffff881d5348                lap_FSM
                0xffffffff881d5408                llc_LleDefParam
                0xffffffff881d5480                llc_CheckXid
                0xffffffff881d54d0                llc_TaskParse
                0xffffffff881d56d0                llc_RldDataIndEvt
                0xffffffff881d56e0                llc_RluQueueCreateIndEvt
                0xffffffff881d56f0                llc_MmpTlliIndEvt
                0xffffffff881d5700                llc_MmpCiphParamIndEvt
                0xffffffff881d5710                llc_MmpSuspendReqEvt
                0xffffffff881d5720                llc_MmpResumeReqEvt
                0xffffffff881d5730                llc_MmpTriggerReqEvt
                0xffffffff881d5740                llc_SndcpEstReqEvt
                0xffffffff881d5750                llc_SndcpEstRspEvt
                0xffffffff881d5760                llc_SndcpXidReqEvt
                0xffffffff881d5770                llc_SndcpRelReqEvt
                0xffffffff881d5780                llc_SndcpChangeLlcParReqEvt
                0xffffffff881d5790                llc_L3QueueDataReqEvt
                0xffffffff881d57a0                llc_SndcpXidRspEvt
                0xffffffff881d57b0                llc_llcT200ExpEvt
                0xffffffff881d57c0                llc_llcT201ExpEvt
                0xffffffff881d57d0                llc_MmpUnassignReqEvt
                0xffffffff881d57e0                llc_XidResetSlaveEvt
                0xffffffff881d57f0                llc_NullFrameEvt
                0xffffffff881d5800                llc_RxIFrameEvt
                0xffffffff881d5810                llc_RxSFrameEvt
                0xffffffff881d5820                llc_RxUIFrameEvt
                0xffffffff881d5830                llc_RxU_DMFrameEvt
                0xffffffff881d5840                llc_RxU_DISCFrameEvt
                0xffffffff881d5850                llc_RxU_UAFrameEvt
                0xffffffff881d5860                llc_RxU_SABMFrameEvt
                0xffffffff881d5870                llc_RxU_FRMRFrameEvt
                0xffffffff881d5880                llc_RxU_XIDFrameEvt
                0xffffffff881d5890                llc_RxU_UNDEFFrameEvt
                0xffffffff881d58a0                llc_rluDataReqEvt
                0xffffffff881d58ac                llc_rluSuspendReqEvt
                0xffffffff881d58b8                llc_rluResumeReqEvt
                0xffffffff881d58c4                llc_rluPurgeReqEvt
                0xffffffff881d58d0                llc_macNewTlliCnfEvt
                0xffffffff881d58dc                llc_llcNewTlliIndEvt
                0xffffffff881d58e8                llc_FlowCtrlEvt
                0xffffffff881d58f4                llc_llcDataIndEvt
                0xffffffff881d5900                llc_llcUnitDataIndEvt
                0xffffffff881d590c                llc_llcStatusIndEvt
                0xffffffff881d5918                llc_llcXidIndEvt
                0xffffffff881d5924                llc_llcReleaseIndEvt
                0xffffffff881d5930                llc_llcReleaseCnfEvt
                0xffffffff881d593c                llc_llcEstabIndEvt
                0xffffffff881d5948                llc_llcEstabCnfEvt
                0xffffffff881d5954                llc_llcXidCnfEvt
                0xffffffff881d5960                llc_llcResetIndEvt
                0xffffffff881d596c                llc_llcDataCnfEvt
                0xffffffff881d5978                llc_llcQueueCreateIndEvt
                0xffffffff881d5984                llc_EvtList
                0xffffffff881d59c4                llc_DataIndEvtList
                0xffffffff881d59ec                lle_GENE
                0xffffffff881d5a5c                lle_NULL
                0xffffffff881d5a94                lle_ADM
                0xffffffff881d5aec                lle_REM_EST
                0xffffffff881d5b04                lle_LOC_EST
                0xffffffff881d5b2c                lle_ABM
                0xffffffff881d5bac                lle_LOC_REL
                0xffffffff881d5ce8                lle_FSM
                0xffffffff881d61bc                ML_GB2312ToUnicode0
                0xffffffff881d6278                ML_GB2312ToUnicode1
                0xffffffff881d62dc                ML_GB2312ToUnicode2
                0xffffffff881d62f0                ML_GB2312ToUnicode3
                0xffffffff881d6308                ML_GB2312ToUnicode4
                0xffffffff881d63c4                ML_GB2312ToUnicode5
                0xffffffff881d646c                ML_GB2312ToUnicode6
                0xffffffff881d6518                ML_GB2312ToUnicode7
                0xffffffff881d6548                ML_GB2312ToUnicode8
                0xffffffff881d6578                ML_GB2312ToUnicode9
                0xffffffff881d65bc                ML_GB2312ToUnicode10
                0xffffffff881d6600                ML_GB2312ToUnicode11
                0xffffffff881d6634                ML_GB2312ToUnicode12
                0xffffffff881d6680                ML_GB2312ToUnicode13
                0xffffffff881d6718                ML_GB2312ToUnicode14
                0xffffffff881d67d4                ML_GB2312ToUnicode15
                0xffffffff881d6890                ML_GB2312ToUnicode16
                0xffffffff881d694c                ML_GB2312ToUnicode17
                0xffffffff881d6a08                ML_GB2312ToUnicode18
                0xffffffff881d6ac4                ML_GB2312ToUnicode19
                0xffffffff881d6b80                ML_GB2312ToUnicode20
                0xffffffff881d6c3c                ML_GB2312ToUnicode21
                0xffffffff881d6cf8                ML_GB2312ToUnicode22
                0xffffffff881d6db4                ML_GB2312ToUnicode23
                0xffffffff881d6e70                ML_GB2312ToUnicode24
                0xffffffff881d6f2c                ML_GB2312ToUnicode25
                0xffffffff881d6fe8                ML_GB2312ToUnicode26
                0xffffffff881d70a4                ML_GB2312ToUnicode27
                0xffffffff881d7160                ML_GB2312ToUnicode28
                0xffffffff881d721c                ML_GB2312ToUnicode29
                0xffffffff881d72d8                ML_GB2312ToUnicode30
                0xffffffff881d7394                ML_GB2312ToUnicode31
                0xffffffff881d7450                ML_GB2312ToUnicode32
                0xffffffff881d750c                ML_GB2312ToUnicode33
                0xffffffff881d75c8                ML_GB2312ToUnicode34
                0xffffffff881d7684                ML_GB2312ToUnicode35
                0xffffffff881d7740                ML_GB2312ToUnicode36
                0xffffffff881d77fc                ML_GB2312ToUnicode37
                0xffffffff881d78b8                ML_GB2312ToUnicode38
                0xffffffff881d7974                ML_GB2312ToUnicode39
                0xffffffff881d7a30                ML_GB2312ToUnicode40
                0xffffffff881d7aec                ML_GB2312ToUnicode41
                0xffffffff881d7ba8                ML_GB2312ToUnicode42
                0xffffffff881d7c64                ML_GB2312ToUnicode43
                0xffffffff881d7d20                ML_GB2312ToUnicode44
                0xffffffff881d7ddc                ML_GB2312ToUnicode45
                0xffffffff881d7e98                ML_GB2312ToUnicode46
                0xffffffff881d7f54                ML_GB2312ToUnicode47
                0xffffffff881d8010                ML_GB2312ToUnicode48
                0xffffffff881d80cc                ML_GB2312ToUnicode49
                0xffffffff881d8188                ML_GB2312ToUnicode50
                0xffffffff881d8244                ML_GB2312ToUnicode51
                0xffffffff881d8300                ML_GB2312ToUnicode52
                0xffffffff881d83bc                ML_GB2312ToUnicode53
                0xffffffff881d8470                ML_GB2312ToUnicode54
                0xffffffff881d852c                ML_GB2312ToUnicode55
                0xffffffff881d85e8                ML_GB2312ToUnicode56
                0xffffffff881d86a4                ML_GB2312ToUnicode57
                0xffffffff881d8760                ML_GB2312ToUnicode58
                0xffffffff881d881c                ML_GB2312ToUnicode59
                0xffffffff881d88d8                ML_GB2312ToUnicode60
                0xffffffff881d8994                ML_GB2312ToUnicode61
                0xffffffff881d8a50                ML_GB2312ToUnicode62
                0xffffffff881d8b0c                ML_GB2312ToUnicode63
                0xffffffff881d8bc8                ML_GB2312ToUnicode64
                0xffffffff881d8c84                ML_GB2312ToUnicode65
                0xffffffff881d8d40                ML_GB2312ToUnicode66
                0xffffffff881d8dfc                ML_GB2312ToUnicode67
                0xffffffff881d8eb8                ML_GB2312ToUnicode68
                0xffffffff881d8f74                ML_GB2312ToUnicode69
                0xffffffff881d9030                ML_GB2312ToUnicode70
                0xffffffff881d90ec                ML_GB2312ToUnicode71
                0xffffffff881d91a8                ML_GB2312ToUnicode72
                0xffffffff881d9264                ML_GB2312ToUnicode73
                0xffffffff881d9320                ML_GB2312ToUnicode74
                0xffffffff881d93dc                ML_GB2312ToUnicode75
                0xffffffff881d9498                ML_GB2312ToUnicode76
                0xffffffff881d9554                ML_GB2312ToUnicode77
                0xffffffff881d9610                ML_GB2312ToUnicode78
                0xffffffff881d96cc                ML_GB2312ToUnicode79
                0xffffffff881d9788                ML_GB2312ToUnicode80
                0xffffffff881d9844                ML_GB2312ToUnicode81
                0xffffffff881d9900                ML_GB2312ToUnicode82
                0xffffffff881d99bc                ML_GB2312ToUnicode83
                0xffffffff881d9a78                ML_GB2312ToUnicode84
                0xffffffff881d9b34                ML_GB2312ToUnicode85
                0xffffffff881d9bf0                gb2312_array
                0xffffffff881da9f4                mmpTimDsc
                0xffffffff881daa2c                mmpRauType2CombUpdType
                0xffffffff881daa30                mm_TaskParse
                0xffffffff881dae78                mm_rrIConnectCnf
                0xffffffff881dae88                mm_rrIReleaseInd
                0xffffffff881dae98                mm_rrICellInd
                0xffffffff881daea8                mm_rrIPagingInd
                0xffffffff881daeb8                mm_rrICiphInd
                0xffffffff881daec8                mm_rrICmkInd
                0xffffffff881daed8                mm_rrIEndCongInd
                0xffffffff881daee8                mmp_rrIPReleaseInd
                0xffffffff881daef8                mmp_rrISuspendReq
                0xffffffff881daf08                mmp_rrIPPagingInd
                0xffffffff881daf18                mm_cmIEstabReq
                0xffffffff881daf28                mm_cmIEstabInd
                0xffffffff881daf38                mm_cmIReleaseReq
                0xffffffff881daf48                mm_cmIAbortReq
                0xffffffff881daf58                mm_cmIReestabReq
                0xffffffff881daf68                mm_cmIDataReq
                0xffffffff881daf78                mm_simIUpdBinCnf
                0xffffffff881daf88                mmc_ISelfLocUp
                0xffffffff881daf98                mmc_ISelfPaging
                0xffffffff881dafa8                mmp_ISelfPaging
                0xffffffff881dafb8                mmp_mmcAbortCurProc
                0xffffffff881dafc8                mmp_mmcReStartPrevProc
                0xffffffff881dafd8                mmp_GprsPending
                0xffffffff881dafe8                mm_apiISimOpenInd
                0xffffffff881daff8                mm_apiISimClosedInd
                0xffffffff881db008                mm_apiIStartReq
                0xffffffff881db018                mm_apiIStopReq
                0xffffffff881db028                mmp_llcIQueueCreateInd
                0xffffffff881db038                mmp_llcINewTlliInd
                0xffffffff881db048                mmp_llcIStatusInd
                0xffffffff881db058                mmp_l3IDataReq
                0xffffffff881db068                mmp_L3IDelSaveDataReq
                0xffffffff881db078                mmp_smIPdpCtxStatusInd
                0xffffffff881db088                mmp_smINoNetrspInd
                0xffffffff881db098                mmp_rlcITReadyInd
                0xffffffff881db0a8                mmp_rlcISynchInd
                0xffffffff881db0b8                mmp_apiIAttachReq
                0xffffffff881db0c8                mmp_apiIPsDetachReq
                0xffffffff881db0d8                T3210Exp
                0xffffffff881db0e8                T3211Exp
                0xffffffff881db0f8                T3212Exp
                0xffffffff881db108                T3213Exp
                0xffffffff881db118                T3230Exp
                0xffffffff881db128                TWNKCExp
                0xffffffff881db138                TDetachExp
                0xffffffff881db148                T3302Exp
                0xffffffff881db158                T3310Exp
                0xffffffff881db168                T3311Exp
                0xffffffff881db178                T3312Exp
                0xffffffff881db188                T3321Exp
                0xffffffff881db198                T3330Exp
                0xffffffff881db1a8                mmc_AuthReqEvt
                0xffffffff881db1b8                mmc_AuthRejEvt
                0xffffffff881db1c8                mmc_IdentityReqEvt
                0xffffffff881db1d8                mmc_LocUpAccEvt
                0xffffffff881db1e8                mmc_LocUpRejEvt
                0xffffffff881db1f8                mmc_CmServAccEvt
                0xffffffff881db208                mmc_CmServRejEvt
                0xffffffff881db218                mmc_TmsiReallocCmdEvt
                0xffffffff881db228                mmc_AbortEvt
                0xffffffff881db238                mmc_HdleOtherPd
                0xffffffff881db248                mmc_InformationEvt
                0xffffffff881db258                mmp_AttachAccEvt
                0xffffffff881db268                mmp_AttachRejEvt
                0xffffffff881db278                mmp_IdReqEvt
                0xffffffff881db288                mmp_HdleOtherPd
                0xffffffff881db298                mmp_DetachReqEvt
                0xffffffff881db2a8                mmp_AuthAndCiphReqEvt
                0xffffffff881db2b8                mmp_AuthAndCiphRejEvt
                0xffffffff881db2c8                mmp_RauAccEvt
                0xffffffff881db2d8                mmp_RauRejEvt
                0xffffffff881db2e8                mmp_TmsiReallocCmdEvt
                0xffffffff881db2f8                mmp_DetachAccEvt
                0xffffffff881db308                mmp_InformationEvt
                0xffffffff881db318                mmp_GmmStatus
                0xffffffff881db328                mmp_GprsTestModeCmdEvt
                0xffffffff881db338                mm_rrOConnectReq
                0xffffffff881db344                mm_rrOCellRsp
                0xffffffff881db350                mm_rrODataReq
                0xffffffff881db35c                mm_rrOAbortReq
                0xffffffff881db368                mm_rrOLocUpSta
                0xffffffff881db374                mm_rrOKcInd
                0xffffffff881db380                mm_rrStartReq
                0xffffffff881db38c                mm_rrSimOpenInd
                0xffffffff881db398                mm_cmOReleaseInd
                0xffffffff881db3a4                mm_cmOEstabCnf
                0xffffffff881db3b0                mm_cmOEstabErr
                0xffffffff881db3bc                mm_cmOReestabCnf
                0xffffffff881db3c8                mm_cmOReestabErr
                0xffffffff881db3d4                mm_cmOServReqAck
                0xffffffff881db3e0                mm_cmODataInd
                0xffffffff881db3ec                mm_cmOPageBeginInd
                0xffffffff881db3f8                mm_simOUmtsAlgoReq
                0xffffffff881db404                mm_simOGsmAlgoReq
                0xffffffff881db410                mm_simOReadBinReq
                0xffffffff881db41c                mm_simOUpdBinReq
                0xffffffff881db428                mm_simOReadFileStatusReq
                0xffffffff881db434                mm_simOErrInd
                0xffffffff881db440                mm_apiOStopCnf
                0xffffffff881db44c                mm_apiONwkInfoInd
                0xffffffff881db458                mm_apiOSimColseCnf
                0xffffffff881db464                mmp_macONewTlliInd
                0xffffffff881db470                mmp_rrORaUpSta
                0xffffffff881db47c                mmp_rrOMmpProcInd
                0xffffffff881db488                mmp_rrOGprsReq
                0xffffffff881db494                mmp_rrOMmpReadyStInd
                0xffffffff881db4a0                mmp_rluTestModeReq
                0xffffffff881db4ac                mmp_rluTReadyReq
                0xffffffff881db4b8                mmp_llcOTlliInd
                0xffffffff881db4c4                mmp_llcOCiphParamInd
                0xffffffff881db4d0                mmp_llcOUnitDataReq
                0xffffffff881db4dc                mmp_llcOTriggerReq
                0xffffffff881db4e8                mmp_llcOSuspendReq
                0xffffffff881db4f4                mmp_llcOResumeReq
                0xffffffff881db500                mmp_l3ODataInd
                0xffffffff881db50c                mmp_smOAbortInd
                0xffffffff881db518                mmp_smORauAccPdpStaInd
                0xffffffff881db524                mmp_snOSequenceInd
                0xffffffff881db530                mm_apiOGprsTestModeInd
                0xffffffff881db53c                mm_OEstabReq
                0xffffffff881db548                mmc_OSelfLocUp
                0xffffffff881de6cc                mmc_GENE
                0xffffffff881de704                mmc_NULL
                0xffffffff881de73c                mmc_IDLE
                0xffffffff881de79c                mmc_WRRCX
                0xffffffff881de7ec                mmc_WNKRSP
                0xffffffff881de884                mmc_CNTD
                0xffffffff881de8dc                mmc_WNKCMD
                0xffffffff881de9a8                mmc_FsmDec
                0xffffffff881dea84                PagEstabCauseTab
                0xffffffff881deab8                RejCauseTab
                0xffffffff881dead8                mmp_GENE
                0xffffffff881deb90                mmp_NULL
                0xffffffff881debc0                mmp_DREG
                0xffffffff881debe8                mmp_PIP
                0xffffffff881decd0                mmp_REG
                0xffffffff881ded98                mmp_NDET
                0xffffffff881dedd8                mmp_PEND
                0xffffffff881deec4                mmp_FsmDec
                0xffffffff881defc4                AttRejCnf
                0xffffffff881df004                RauRejCnf
                0xffffffff881df078                DetachReqCnf
                0xffffffff881df1c4                rld_TaskParse
                0xffffffff881df240                rld_IConIndEvt
                0xffffffff881df250                rld_IDataIndEvt
                0xffffffff881df260                rld_IRelIndEvt
                0xffffffff881df270                rld_ITestModeReqEvt
                0xffffffff881df280                rld_ODataIndEvt
                0xffffffff881df28c                rld_OAckReqEvt
                0xffffffff881df298                rld_OTestDatareqEvt
                0xffffffff881df2f8                rlu_TaskParse
                0xffffffff881df490                rlu_IContinueTxEvt
                0xffffffff881df4a0                rlu_IRepeatReqEvt
                0xffffffff881df4b0                rlu_ITxFillReqEvt
                0xffffffff881df4c0                rlu_T3182ExpEvt
                0xffffffff881df4d0                rlu_TReadyExpEvt
                0xffffffff881df4e0                rlu_TPurgeExpEvt
                0xffffffff881df4f0                rlu_llcQDataReqEvt
                0xffffffff881df500                rlu_llcTestModeReqEvt
                0xffffffff881df510                rlu_llcSuspendReqEvt
                0xffffffff881df520                rlu_llcResumeReqEvt
                0xffffffff881df530                rlu_llcPurgeReqEvt
                0xffffffff881df540                rlu_rrpUlConnectCnfEvt
                0xffffffff881df550                rlu_rrpUlRelStartReqEvt
                0xffffffff881df560                rlu_rrpUlRelIndEvt
                0xffffffff881df570                rlu_rrpCellOptIndEvt
                0xffffffff881df580                rlu_macTlliIndEvt
                0xffffffff881df590                rlu_macContResIndEvt
                0xffffffff881df5a0                rlu_macAckNackIndEvt
                0xffffffff881df5b0                rlu_l1TxIndEvt
                0xffffffff881df5c0                rlu_l1PurgeDQIndEvt
                0xffffffff881df5d0                rlu_l1TxDiscardIndEvt
                0xffffffff881df5e0                rlu_mmpTReadyReqEvt
                0xffffffff881df5f0                rld_testdataReqEvt
                0xffffffff881df600                rlu_OContinueTxEvt
                0xffffffff881df60c                rlu_ORepeatReqEvt
                0xffffffff881df618                rlu_OTxFillReqEvt
                0xffffffff881df624                rlu_rrpConnectReqEvt
                0xffffffff881df630                rlu_rrpReleaseReqEvt
                0xffffffff881df63c                rlu_rrpTestModeReqEvt
                0xffffffff881df648                rlu_macDataReqEvt
                0xffffffff881df654                rlu_macPurgeDQEvt
                0xffffffff881df660                rlu_QCreateIndEvt
                0xffffffff881df66c                rlu_mmpTReadyIndEvt
                0xffffffff881df678                rlu_mmpSynchIndEvt
                0xffffffff881df684                rlu_l1TxDiscardReqEvt
                0xffffffff881df690                rlu_l1TestModeReqEvt
                0xffffffff881df69c                rlu_UlCongestIndEvt
                0xffffffff881df6a8                rlu_OTestModeReqEvt
                0xffffffff881df6b4                rlu_GENE
                0xffffffff881df734                rlu_VOID
                0xffffffff881df754                rlu_WCON
                0xffffffff881df76c                rlu_COND
                0xffffffff881df7b4                rlu_WRLS
                0xffffffff881df7f4                rlu_NACK
                0xffffffff881df834                rlu_TEST
                0xffffffff881df8b8                rlu_FSM
                0xffffffff881df980                rlu_SpareBits
                0xffffffff881df984                rlu_UlBlkSize
                0xffffffff881df9c8                rlu_PduSize
                0xffffffff881dfa08                rr_TaskParse
                0xffffffff881e05bc                rr_IPlmnSearchReqEvt
                0xffffffff881e05cc                rr_IPlmnAcceptIndEvt
                0xffffffff881e05dc                rr_IPlmnRejectIndEvt
                0xffffffff881e05ec                rr_IPlmnScanReqEvt
                0xffffffff881e05fc                rr_IPlmnStopScanReqEvt
                0xffffffff881e060c                rr_IPlmnInitReqEvt
                0xffffffff881e061c                rr_IPlmnReFreshReqEvt
                0xffffffff881e062c                rr_IBaCompleteEvt
                0xffffffff881e063c                rr_ILookBestNearEvt
                0xffffffff881e064c                rr_RecntRslExpEvt
                0xffffffff881e065c                rr_ForwardPagExpEvt
                0xffffffff881e066c                rr_GuardRslExpEvt
                0xffffffff881e067c                rr_PnltyRslExpEvt
                0xffffffff881e068c                rr_NoRetRslExpEvt
                0xffffffff881e069c                rr_AsleepExpEvt
                0xffffffff881e06ac                rr_MonitIndExpEvt
                0xffffffff881e06bc                rr_FreshSiExpEvt
                0xffffffff881e06cc                rr_NonDrxExpEvt
                0xffffffff881e06dc                rr_IPlmnFoundIndEvt
                0xffffffff881e06ec                rr_IPlmnNotFoundIndEvt
                0xffffffff881e06fc                rr_IPlmnLostIndEvt
                0xffffffff881e070c                rr_IPlmnAvailableIndEvt
                0xffffffff881e071c                rr_IPlmnListDoneIndEvt
                0xffffffff881e072c                rr_IPlmnSimLoadedEvt
                0xffffffff881e073c                rr_NSvcTimExpEvt
                0xffffffff881e074c                rr_LtdSvcTimExpEvt
                0xffffffff881e075c                rr_HPlmnTimExpEvt
                0xffffffff881e076c                rr_IPlmnNasUpdEvt
                0xffffffff881e077c                rr_LocationLockTimExpEvt
                0xffffffff881e078c                rr_SendAdjCReportTimExpEvt
                0xffffffff881e079c                rr_IReselReqEvt
                0xffffffff881e07ac                rr_Il1ConIndEvt
                0xffffffff881e07bc                rr_Il1NotConIndEvt
                0xffffffff881e07cc                rr_ICellChangeIndEvt
                0xffffffff881e07dc                rr_IPCCOIndEvt
                0xffffffff881e07ec                rr_IPCCOCompleteEvt
                0xffffffff881e07fc                rr_BlackArfcnListExpEvt
                0xffffffff881e080c                rr_rrICellIndEvt
                0xffffffff881e081c                rr_IReselGrantReqEvt
                0xffffffff881e082c                rr_ISendMeasReqEvt
                0xffffffff881e083c                rr_IPCCOResultEvt
                0xffffffff881e084c                rr_IL3DataIndEvt
                0xffffffff881e085c                rr_T3122ExpEvt
                0xffffffff881e086c                rr_T3124ExpEvt
                0xffffffff881e087c                rr_T3126ExpEvt
                0xffffffff881e088c                rr_l1PowerRspEvt
                0xffffffff881e089c                rr_l1SynchFoundEvt
                0xffffffff881e08ac                rr_l1SynchNotFoundEvt
                0xffffffff881e08bc                rr_l1MonitorIndEvt
                0xffffffff881e08cc                rr_l1NcMonitorIndEvt
                0xffffffff881e08dc                rr_l1BcchDataIndEvt
                0xffffffff881e08ec                rr_l1PchDataIndEvt
                0xffffffff881e08fc                rr_l1RachIndEvt
                0xffffffff881e090c                rr_l1ConnectCnfEvt
                0xffffffff881e091c                rr_l1FrqRdfCnfEvt
                0xffffffff881e092c                rr_rrConnectReqEvt
                0xffffffff881e093c                rr_rrCellRspEvt
                0xffffffff881e094c                rr_rrLocUpStaEvt
                0xffffffff881e095c                rr_rrDataReqEvt
                0xffffffff881e096c                rr_rrKcIndEvt
                0xffffffff881e097c                rr_rrAbortReqEvt
                0xffffffff881e098c                rr_rrRaUpdStaEvt
                0xffffffff881e099c                rr_rrMmpProcIndEvt
                0xffffffff881e09ac                rr_rrMmReadyStIndEvt
                0xffffffff881e09bc                rr_rrGprsReqEvt
                0xffffffff881e09cc                rr_lapEstablishCnfEvt
                0xffffffff881e09dc                rr_lapEstablishFailureIndEvt
                0xffffffff881e09ec                rr_lapReleaseIndEvt
                0xffffffff881e09fc                rr_lapResumeCnfEvt
                0xffffffff881e0a0c                rr_lapResumeFailureIndEvt
                0xffffffff881e0a1c                rr_lapReconnectCnfEvt
                0xffffffff881e0a2c                rr_lapReconnectFailureIndEvt
                0xffffffff881e0a3c                rr_lapEstablishIndEvt
                0xffffffff881e0a4c                rr_ImmAssCmdEvt
                0xffffffff881e0a5c                rr_ImmAssExtCmdEvt
                0xffffffff881e0a6c                rr_ImmAssRejEvt
                0xffffffff881e0a7c                rr_AssCmdEvt
                0xffffffff881e0a8c                rr_FrqRdfEvt
                0xffffffff881e0a9c                rr_HovCmdEvt
                0xffffffff881e0aac                rr_ChanRelEvt
                0xffffffff881e0abc                rr_CipModCmdEvt
                0xffffffff881e0acc                rr_CmkEnqEvt
                0xffffffff881e0adc                rr_ChnModEvt
                0xffffffff881e0aec                rr_PhyInfoEvt
                0xffffffff881e0afc                rr_SysInf5Evt
                0xffffffff881e0b0c                rr_SysInf5BEvt
                0xffffffff881e0b1c                rr_SysInf5TEvt
                0xffffffff881e0b2c                rr_SysInf6Evt
                0xffffffff881e0b3c                rr_ExtMeasOrdEvt
                0xffffffff881e0b4c                rr_ClsTchLoopEvt
                0xffffffff881e0b5c                rr_OpnTchLoopEvt
                0xffffffff881e0b6c                rr_DaiTestEvt
                0xffffffff881e0b7c                rr_StatusEvt
                0xffffffff881e0b8c                rrd_l1ErrorIndEvt
                0xffffffff881e0b9c                rri_l1ErrorIndEvt
                0xffffffff881e0bac                mac_L1PDchIndEvt
                0xffffffff881e0bbc                mac_L1PBcchIndEvt
                0xffffffff881e0bcc                mac_L1ChnQualIndEvt
                0xffffffff881e0bdc                rrp_L1USFInd
                0xffffffff881e0bec                rrp_L1TBFCfgCnf
                0xffffffff881e0bfc                rrp_L1PSDataInd
                0xffffffff881e0c0c                rrp_L1EndFixedInd
                0xffffffff881e0c1c                mac_RrIDataReq
                0xffffffff881e0c2c                rr_MacPUlAckNackInd
                0xffffffff881e0c3c                rr_MacPQueNotif
                0xffffffff881e0c4c                rr_MacContResFail
                0xffffffff881e0c5c                rr_MacAccRejInd
                0xffffffff881e0c6c                rr_MacEstabReq
                0xffffffff881e0c7c                mac_UlIDataReq
                0xffffffff881e0c8c                mac_IDlAckReq
                0xffffffff881e0c9c                mac_IPurgeDQReq
                0xffffffff881e0cac                rrp_RlcConnectReqEvt
                0xffffffff881e0cbc                rrp_RlcReleaseReqEvt
                0xffffffff881e0ccc                rrp_RlcTestModeReqEvt
                0xffffffff881e0cdc                rr_ConfliConnectReqEvt
                0xffffffff881e0cec                mac_NewTlliIndEvt
                0xffffffff881e0cfc                mac_NewTlliCnfEvt
                0xffffffff881e0d0c                mac_T3166Exp
                0xffffffff881e0d1c                mac_T3200AExp
                0xffffffff881e0d2c                mac_T3200BExp
                0xffffffff881e0d3c                mac_T3200CExp
                0xffffffff881e0d4c                mac_T3200DExp
                0xffffffff881e0d5c                mac_T3200EExp
                0xffffffff881e0d6c                mac_T3200FExp
                0xffffffff881e0d7c                mac_T3200GExp
                0xffffffff881e0d8c                mac_T3200HExp
                0xffffffff881e0d9c                rrp_T3142Exp
                0xffffffff881e0dac                rrp_T3146Exp
                0xffffffff881e0dbc                rrp_T3162Exp
                0xffffffff881e0dcc                rrp_T3164Exp
                0xffffffff881e0ddc                rrp_T3168Exp
                0xffffffff881e0dec                rrp_T3170Exp
                0xffffffff881e0dfc                rrp_T3172Exp
                0xffffffff881e0e0c                rrp_T3174Exp
                0xffffffff881e0e1c                rrp_T3176Exp
                0xffffffff881e0e2c                rrp_T3180Exp
                0xffffffff881e0e3c                rrp_T3184Exp
                0xffffffff881e0e4c                rrp_T3186Exp
                0xffffffff881e0e5c                rrp_T3188Exp
                0xffffffff881e0e6c                rrp_T3190Exp
                0xffffffff881e0e7c                rrp_T3192Exp
                0xffffffff881e0e8c                rrp_SegImmAssExp
                0xffffffff881e0e9c                rrp_IImmAssCmplt
                0xffffffff881e0eac                rrp_PUlAssEvt
                0xffffffff881e0ebc                rrp_PDlAssEvt
                0xffffffff881e0ecc                rrp_PTSReconfEvt
                0xffffffff881e0edc                rrp_PPDCHRelEvt
                0xffffffff881e0eec                rrp_PPwrCtrlTAEvt
                0xffffffff881e0efc                rrp_PTBFRelEvt
                0xffffffff881e0f0c                rrp_PCCOEvt
                0xffffffff881e0f1c                rrp_UlRelDelayEvt
                0xffffffff881e0f2c                rrp_DlRelDelayEvt
                0xffffffff881e0f3c                rrp_SglDlExp
                0xffffffff881e0f4c                rrp_SglUlExp
                0xffffffff881e0f5c                rr_PsiEvt
                0xffffffff881e0f6c                rr_PmoEvt
                0xffffffff881e0f7c                rr_simReadBinaryCnfEvt
                0xffffffff881e0f8c                rr_simReadRecordCnfEvt
                0xffffffff881e0f9c                rr_simFileStatusCnfEvt
                0xffffffff881e0fac                rr_CbchReqEvt
                0xffffffff881e0fbc                rr_apiSimOpenIndEvt
                0xffffffff881e0fcc                rr_apiSimClosedIndEvt
                0xffffffff881e0fdc                rr_apiStartReqEvt
                0xffffffff881e0fec                rr_apiStopReqEvt
                0xffffffff881e0ffc                rr_rrReinitReqEvt
                0xffffffff881e100c                rr_apiNwSelModeReqEvt
                0xffffffff881e101c                rr_apiNwListReqEvt
                0xffffffff881e102c                rr_apiNwListAbortReqEvt
                0xffffffff881e103c                rr_apiNwSelReqEvt
                0xffffffff881e104c                rr_apiNwReselReqEvt
                0xffffffff881e105c                rr_apiPowerScanReqEvt
                0xffffffff881e106c                rr_apiCellListReqEvt
                0xffffffff881e107c                rr_apiCellReselReqEvt
                0xffffffff881e108c                rr_apiCurCellInfoReqEvt
                0xffffffff881e109c                rr_apiAdjCellInfoReqEvt
                0xffffffff881e10ac                rr_apiQualReportReqEvt
                0xffffffff881e10bc                rr_apiSyncInfoReqEvt
                0xffffffff881e10cc                rr_apiNmoCfgReqEvt
                0xffffffff881e10dc                rr_apiDetectMBSReqEvt
                0xffffffff881e10ec                rr_OPlmnSearchReqEvt
                0xffffffff881e10f8                rr_OPlmnAcceptIndEvt
                0xffffffff881e1104                rr_OPlmnRejectIndEvt
                0xffffffff881e1110                rr_OPlmnScanReqEvt
                0xffffffff881e111c                rr_OPlmnStopScanReqEvt
                0xffffffff881e1128                rr_OPlmnReFreshReqEvt
                0xffffffff881e1134                rr_OPlmnFoundIndEvt
                0xffffffff881e1140                rr_OPlmnNotFoundIndEvt
                0xffffffff881e114c                rr_OPlmnLostIndEvt
                0xffffffff881e1158                rr_OPlmnAvailableIndEvt
                0xffffffff881e1164                rr_OPlmnListDoneIndEvt
                0xffffffff881e1170                rr_OPlmnInitReqEvt
                0xffffffff881e117c                rr_OBaCompleteEvt
                0xffffffff881e1188                rr_OLookBestNearEvt
                0xffffffff881e1194                rr_OPlmnSimLoadedEvt
                0xffffffff881e11a0                rr_OPlmnNasUpdEvt
                0xffffffff881e11ac                rr_OReselGrantReqEvt
                0xffffffff881e11b8                rr_OPCCOResultEvt
                0xffffffff881e11c4                rr_OReselReqEvt
                0xffffffff881e11d0                rr_OCellChangeIndEvt
                0xffffffff881e11dc                rr_OConnectedIndEvt
                0xffffffff881e11e8                rr_ONotConnectedIndEvt
                0xffffffff881e11f4                rr_OPCCOIndEvt
                0xffffffff881e1200                rr_OPCCOCompleteEvt
                0xffffffff881e120c                rr_l1InitReqEvt
                0xffffffff881e1218                rr_l1PowerReqEvt
                0xffffffff881e1224                rr_l1SynchReqEvt
                0xffffffff881e1230                rr_l1SynchUpdateReqEvt
                0xffffffff881e123c                rr_l1StopSynchReqEvt
                0xffffffff881e1248                rr_l1CchReqEvt
                0xffffffff881e1254                rr_l1BcchReqEvt
                0xffffffff881e1260                rr_l1PBcchReqEvt
                0xffffffff881e126c                rr_l1MonitorReqEvt
                0xffffffff881e1278                rr_l1ExtdMonitorReqEvt
                0xffffffff881e1284                rr_l1NcMonitorReqEvt
                0xffffffff881e1290                rr_l1PMeasCtrlReqEvt
                0xffffffff881e129c                rr_l1CbchReqEvt
                0xffffffff881e12a8                rr_l1PccchReqEvt
                0xffffffff881e12b4                rr_l1BcchModeReqEvt
                0xffffffff881e12c0                l1_HighBandChangeReq
                0xffffffff881e12cc                rr_l1AdjCellReportReqEvt
                0xffffffff881e12d8                rr_l1RachOnReqEvt
                0xffffffff881e12e4                rr_l1RachOffReqEvt
                0xffffffff881e12f0                rr_l1ConnectReqEvt
                0xffffffff881e12fc                rr_l1ReleaseReqEvt
                0xffffffff881e1308                rr_l1CiphCfgReqEvt
                0xffffffff881e1314                rr_l1ChnModEvt
                0xffffffff881e1320                rr_l1PhyInfoReqEvt
                0xffffffff881e132c                rr_l1CellOptUpdEvt
                0xffffffff881e1338                rr_l1SetTstLoopEvt
                0xffffffff881e1344                rr_l1StopChReqEvt
                0xffffffff881e1350                rr_l1RachUpdReqEvt
                0xffffffff881e135c                rr_l1FrqRdfReqEvt
                0xffffffff881e1368                rr_rrReleaseIndEvt
                0xffffffff881e1374                rr_rrConnectCnfEvt
                0xffffffff881e1380                rr_rrOCellIndEvt
                0xffffffff881e138c                rr_rrDataIndEvt
                0xffffffff881e1398                rr_rrPagingEvt
                0xffffffff881e13a4                rr_rrCiphIndEvt
                0xffffffff881e13b0                rr_rrCmkIndEvt
                0xffffffff881e13bc                rr_rrEndCongIndEvt
                0xffffffff881e13c8                rr_lapEstablishReqEvt
                0xffffffff881e13d4                rr_lapNReleaseReqEvt
                0xffffffff881e13e0                rr_lapLReleaseReqEvt
                0xffffffff881e13ec                rr_lapSuspendReqEvt
                0xffffffff881e13f8                rr_lapResumeReqEvt
                0xffffffff881e1404                rr_lapReconnectReqEvt
                0xffffffff881e1410                rr_lapDataReqEvt
                0xffffffff881e141c                rr_lapUnitDataReqEvt
                0xffffffff881e1428                rr_rrChanModeIndEvt
                0xffffffff881e1434                rr_SimReadBinReqEvt
                0xffffffff881e1440                rr_SimFileStatusReqEvt
                0xffffffff881e144c                rr_SimUpdateBinReqEvt
                0xffffffff881e1458                rr_apiNwListIndEvt
                0xffffffff881e1464                rr_apiNwListAbortIndEvt
                0xffffffff881e1470                rr_apiNwSelAbortIndEvt
                0xffffffff881e147c                rr_apiNwCsRegStaIndEvt
                0xffffffff881e1488                rr_apiNwPsRegStaIndEvt
                0xffffffff881e1494                rr_apiNwStoreListInd
                0xffffffff881e14a0                rr_apiQualReportCnfEvt
                0xffffffff881e14ac                rr_apiCurCReportIndEvt
                0xffffffff881e14b8                rr_apiAdjCReportIndEvt
                0xffffffff881e14c4                rr_apiCellListReportIndEvt
                0xffffffff881e14d0                rr_apiCellListAbortIndEvt
                0xffffffff881e14dc                rr_apiPowerListIndEvt
                0xffffffff881e14e8                rr_apiSyncInfoIndEvt
                0xffffffff881e14f4                rr_apiStopCnfEvt
                0xffffffff881e1500                rr_apiPowerScanRspEvt
                0xffffffff881e150c                rr_apiCellReselCnfEvt
                0xffffffff881e1518                mac_rrODataReq
                0xffffffff881e1524                mac_l1PSDataReq
                0xffffffff881e1530                rrp_l1PPDCHRel
                0xffffffff881e153c                rrp_l1PPwrCtrlTAReq
                0xffffffff881e1548                rrp_l1TBFRelReq
                0xffffffff881e1554                rrp_l1TBFCfgReq
                0xffffffff881e1560                rrp_l1MacFixedUpdtReq
                0xffffffff881e156c                mac_CtrlDataInd
                0xffffffff881e1578                mac_PUlAckNackInd
                0xffffffff881e1584                mac_PQueNotif
                0xffffffff881e1590                mac_ContResFail
                0xffffffff881e159c                mac_AccRejInd
                0xffffffff881e15a8                mac_EstabReq
                0xffffffff881e15b4                mac_UlAckInd
                0xffffffff881e15c0                mac_OTlliInd
                0xffffffff881e15cc                mac_ContResCnf
                0xffffffff881e15d8                rrp_PagingInd
                0xffffffff881e15e4                rrp_OImmAssCmplt
                0xffffffff881e15f0                rrp_DlConnectInd
                0xffffffff881e15fc                rrp_UlConnectCnf
                0xffffffff881e1608                rrp_DlRelInd
                0xffffffff881e1614                rrp_UlRelStartReq
                0xffffffff881e1620                rrp_UlRelInd
                0xffffffff881e162c                rrp_CellOptInd
                0xffffffff881e1638                rrp_ReleaseInd
                0xffffffff881e1644                rr_SuspendReq
                0xffffffff881e16a0                rrd_GENE
                0xffffffff881e1710                rrd_VOID
                0xffffffff881e1768                rrd_ACCI
                0xffffffff881e1820                rrd_WCNI
                0xffffffff881e1890                rrd_COND
                0xffffffff881e1a00                rrd_WRSL
                0xffffffff881e1a10                rrd_ACCN
                0xffffffff881e1a80                rrd_WCNN
                0xffffffff881e1b00                rrd_WRLS
                0xffffffff881e1b9c                rrd_FSM
                0xffffffff881e1c2c                rrd_RachCause
                0xffffffff881e1de8                rrg_DtxtoL1
                0xffffffff881e1df8                rrg_L1ToApiChanMode
                0xffffffff881e1e18                rrg_GprsSuspendCause
                0xffffffff881e1e24                rri_CGENE
                0xffffffff881e1e7c                rri_CNULL
                0xffffffff881e1ea4                rri_CRSSI
                0xffffffff881e1ebc                rri_CSYNCHR
                0xffffffff881e1edc                rri_CSVERIF
                0xffffffff881e1f04                rri_CRVERIF
                0xffffffff881e1fa4                rri_CCAMPED
                0xffffffff881e209c                rri_CRESEL
                0xffffffff881e213c                rri_CCONN
                0xffffffff881e21d4                rri_CTRANSF
                0xffffffff881e22c4                rri_CENDCO
                0xffffffff881e23a8                rri_C
                0xffffffff881e2504                rr_SPRach
                0xffffffff881e2510                rr_TxIntPRach
                0xffffffff881e2520                rr_PersLev
                0xffffffff881e2540                rri_PGENE
                0xffffffff881e2588                rri_PNULL
                0xffffffff881e25a8                rri_PWCS
                0xffffffff881e25d8                rri_PCAMP
                0xffffffff881e2640                rri_PLTD
                0xffffffff881e26a0                rri_PNSVC
                0xffffffff881e26c0                rri_PCONN
                0xffffffff881e276c                rri_P
                0xffffffff881e2874                InvPlmn
                0xffffffff881e2878                DispBand
                0xffffffff881e294c                DispResel
                0xffffffff881e297c                rr_GprsCro
                0xffffffff881e299c                rr_ArfcnList
                0xffffffff881e2dbc                smc_MO_Gene
                0xffffffff881e2dd4                smc_MO_Idle
                0xffffffff881e2df4                smc_MO_WaitEstabCnf
                0xffffffff881e2e1c                smc_MO_WaitCpAck
                0xffffffff881e2e5c                smc_MO_Connected
                0xffffffff881e2e9c                smc_MO_WaitNewEstabCnf
                0xffffffff881e2fa8                smc_MO_FSM
                0xffffffff881e3008                smc_MT_Gene
                0xffffffff881e3018                smc_MT_Idle
                0xffffffff881e3038                smc_MT_Connected
                0xffffffff881e3068                smc_MT_WaitCpAck
                0xffffffff881e3090                smc_MT_FSM
                0xffffffff881e3100                smr_MO_Gene
                0xffffffff881e3118                smr_MO_Idle
                0xffffffff881e3140                smr_MO_WaitRpAck
                0xffffffff881e3188                smr_MO_WaitMmaRpAck
                0xffffffff881e31d0                smr_MO_WaitMmaRetrans
                0xffffffff881e32a0                smr_MO_FSM
                0xffffffff881e32f0                smr_MT_Gene
                0xffffffff881e3300                smr_MT_Idle
                0xffffffff881e3320                smr_MT_WaitApiReport
                0xffffffff881e3338                smr_MT_FSM
                0xffffffff881e3804                lwip_cyclic_timers
                0xffffffff881e3c60                vds_crc32_table
                0xffffffff881e40b0                dtmfFadInoutTable
                0xffffffff881e5a2c                ATExtendedAsciiToDefaultArray
                0xffffffff881e5b2c                ATAsciiToDefaultArray
                0xffffffff881e5c2c                ATDefaultToExtendedAsciiArray
                0xffffffff881e5cac                ATDefaultToAsciiArray
                0xffffffff881e65cc                sl1_TchFSchd
                0xffffffff881e65e8                sl1_TchSubFrames
                0xffffffff881eb064                CSN1Action_cc_3411077250
                0xffffffff881eb068                CSN1Action_cc_852952723
                0xffffffff881eb070                CSN1Action_cc_1341359855
                0xffffffff881eb074                CSN1Action_cc_3539756953
                0xffffffff881eb078                CSN1Action_cc_3746309177
                0xffffffff881eb07c                CSN1Action_cc_1111737679
                0xffffffff881eb080                CSN1Action_cc_1042473108
                0xffffffff881eb084                CSN1Action_cc_4122588436
                0xffffffff881eb088                CSN1Action_cc_1756779618
                0xffffffff881eb08c                CSN1Action_cc_3617440091
                0xffffffff881eb090                CSN1Action_cc_444111116
                0xffffffff881eb098                CSN1Action_cc_3047440023
                0xffffffff881eb09c                CSN1Action_cc_745283224
                0xffffffff881eb0a0                CSN1Action_cc_1816175321
                0xffffffff881eb0a4                CSN1Action_cc_2999663823
                0xffffffff881eb0a8                CSN1Action_cc_2940555322
                0xffffffff881eb0ac                CSN1Action_cc_816369318
                0xffffffff881eb0b0                CSN1Action_cc_1389037149
                0xffffffff881eb0b4                CSN1Action_cc_4160415732
                0xffffffff881eb0b8                CSN1Action_cc_1449069044
                0xffffffff881eb0bc                CSN1Action_cc_3355616505
                0xffffffff881eb0c0                CSN1Action_cc_708717615
                0xffffffff881eb0c4                CSN1Action_cc_3073494361
                0xffffffff881eb0c8                CSN1Action_cc_931186599
                0xffffffff881eb0d0                CSN1Action_cc_1332709388
                0xffffffff881eb0d4                CSN1Action_cc_3529533818
                0xffffffff881eb0d8                CSN1Action_cc_2919320737
                0xffffffff881eb0dc                CSN1Action_cc_2726219986
                0xffffffff881eb0e0                CSN1Action_cc_400867018
                0xffffffff881eb0e8                CSN1Action_cc_3089161910
                0xffffffff881eb0ec                CSN1Action_cc_2249596254
                0xffffffff881eb0f0                CSN1Action_cc_1201086337
                0xffffffff881eb0f8                CSN1Action_cc_4219277482
                0xffffffff881eb0fc                CSN1Action_cc_2497997005
                0xffffffff881eb100                CSN1Action_cc_3815527810
                0xffffffff881eb108                CSN1Action_cc_856600023
                0xffffffff881eb10c                CSN1Action_cc_1455621911
                0xffffffff881eb110                CSN1Action_cc_3419203169
                0xffffffff881eb114                CSN1Action_cc_3081618362
                0xffffffff881eb118                CSN1Action_cc_715268812
                0xffffffff881eb11c                CSN1Action_cc_4122251973
                0xffffffff881eb124                CSN1Action_cc_3248223767
                0xffffffff881eb12c                CSN1Action_cc_2858390854
                0xffffffff881eb134                CSN1Action_cc_2573661299
                0xffffffff881eb13c                CSN1Action_cc_2151347776
                0xffffffff881eb144                CSN1Action_cc_3003357045
                0xffffffff881eb14c                CSN1Action_cc_133130082
                0xffffffff881eb154                CSN1Action_cc_3775613770
                0xffffffff881eb15c                CSN1Action_cc_1725880936
                0xffffffff881eb164                CSN1Action_cc_3108273707
                0xffffffff881eb16c                CSN1Action_cc_1075303956
                0xffffffff881eb174                CSN1Action_cc_49129937
                0xffffffff881eb17c                CSN1Action_cc_2659164212
                0xffffffff881eb184                CSN1Action_cc_634812366
                0xffffffff881eb18c                CSN1Action_cc_1706666803
                0xffffffff881eb194                CSN1Action_cc_820373715
                0xffffffff881eb19c                CSN1Action_cc_2242778983
                0xffffffff881eb1a4                CSN1Action_cc_3797123900
                0xffffffff881eb1ac                CSN1Action_cc_626852723
                0xffffffff881eb1b4                CSN1Action_cc_4124638579
                0xffffffff881eb1bc                CSN1Action_cc_852917564
                0xffffffff881eb1c4                CSN1Action_cc_3093738256
                0xffffffff881eb1c8                CSN1Action_cc_2617825877
                0xffffffff881eb1cc                CSN1Action_cc_2289505114
                0xffffffff881eb1d0                CSN1Action_cc_3096087395
                0xffffffff881eb1d4                CSN1Action_cc_2632245798
                0xffffffff881eb1d8                CSN1Action_cc_2901754476
                0xffffffff881eb1dc                CSN1Action_cc_3857833984
                0xffffffff881eb1e0                CSN1Action_cc_444487554
                0xffffffff881eb1e4                CSN1Action_cc_2012783832
                0xffffffff881eb1e8                CSN1Action_cc_1400567278
                0xffffffff881eb1ec                CSN1Action_cc_3245584694
                0xffffffff881eb1f0                CSN1Action_cc_870274782
                0xffffffff881eb1f4                CSN1Action_cc_3039770797
                0xffffffff881eb1f8                CSN1Action_cc_4230716097
                0xffffffff881eb1fc                CSN1Action_cc_3635006455
                0xffffffff881eb200                CSN1Action_cc_1997839531
                0xffffffff881eb204                CSN1Action_cc_1402391965
                0xffffffff881eb208                CSN1Action_cc_1847778841
                0xffffffff881eb20c                CSN1Action_cc_656833653
                0xffffffff881eb210                CSN1Action_cc_1252036399
                0xffffffff881eb214                CSN1Action_cc_2444061083
                0xffffffff881eb218                CSN1Action_cc_1016208246
                0xffffffff881eb21c                CSN1Action_cc_3628462980
                0xffffffff881eb220                CSN1Action_cc_2209104785
                0xffffffff881eb224                CSN1Action_cc_1486988581
                0xffffffff881eb228                CSN1Action_cc_891770495
                0xffffffff881eb22c                CSN1Action_cc_290012986
                0xffffffff881eb230                CSN1Action_cc_902524428
                0xffffffff881eb234                CSN1Action_cc_296027977
                0xffffffff881eb238                CSN1Action_cc_3074499951
                0xffffffff881eb23c                CSN1Action_cc_3670529589
                0xffffffff881eb240                CSN1Action_cc_2276251829
                0xffffffff881eb244                CSN1Action_cc_30027905
                0xffffffff881eb248                CSN1Action_cc_3461621577
                0xffffffff881eb24c                CSN1Action_cc_3939923583
                0xffffffff881eb250                CSN1Action_cc_2738809952
                0xffffffff881eb254                CSN1Action_cc_2270201125
                0xffffffff881eb258                CSN1Action_cc_2277293398
                0xffffffff881eb25c                CSN1Action_cc_3616431496
                0xffffffff881eb260                CSN1Action_cc_2659909604
                0xffffffff881eb264                CSN1Action_cc_61091139
                0xffffffff881eb268                CSN1Action_cc_3904400317
                0xffffffff881eb26c                CSN1Action_cc_2235472103
                0xffffffff881eb270                CSN1Action_cc_2713504209
                0xffffffff881eb274                CSN1Action_cc_1580432979
                0xffffffff881eb278                CSN1Action_cc_2058432357
                0xffffffff881eb27c                CSN1Action_cc_389536831
                0xffffffff881eb280                CSN1Action_cc_867536137
                0xffffffff881eb284                CSN1Action_cc_2319916898
                0xffffffff881eb288                CSN1Action_cc_400286796
                0xffffffff881eb28c                CSN1Action_cc_3233347900
                0xffffffff881eb290                CSN1Action_cc_4031078661
                0xffffffff881eb294                CSN1Action_cc_1187935467
                0xffffffff881eb298                CSN1Action_cc_3108094825
                0xffffffff881eb29c                CSN1Action_cc_2646839903
                0xffffffff881eb2a0                CSN1Action_cc_3569823795
                0xffffffff881eb2a4                CSN1Action_cc_458827771
                0xffffffff881eb2a8                CSN1Action_cc_2303746851
                0xffffffff881eb2ac                CSN1Action_cc_1381860759
                0xffffffff881eb2b0                CSN1Action_cc_1071347405
                0xffffffff881eb2b4                CSN1Action_cc_2916233749
                0xffffffff881eb2b8                CSN1Action_cc_3226779983
                0xffffffff881eb2bc                CSN1Action_cc_1994380449
                0xffffffff881eb2c0                CSN1Action_cc_2316897944
                0xffffffff881eb2c4                CSN1Action_cc_3273501940
                0xffffffff881eb2c8                CSN1Action_cc_3883124145
                0xffffffff881eb2cc                CSN1Action_cc_3886022082
                0xffffffff881eb2d0                CSN1Action_cc_2929418158
                0xffffffff881eb2d4                CSN1Action_cc_3400928984
                0xffffffff881eb2d8                CSN1Action_cc_3910935046
                0xffffffff881eb2e0                CSN1Action_cc_1145480881
                0xffffffff881eb2f0                CSN1Action_cc_353270059
                0xffffffff881eb2f4                CSN1Action_cc_1158056526
                0xffffffff881eb304                CSN1Action_cc_3226288519
                0xffffffff881eb314                CSN1Action_cc_2442363333
                0xffffffff881eb324                CSN1Action_cc_902688955
                0xffffffff881eb334                CSN1Action_cc_621582356
                0xffffffff881eb344                CSN1Action_cc_1841477667
                0xffffffff881eb34c                CSN1Action_cc_3150253922
                0xffffffff881eb350                CSN1Action_cc_3603190230
                0xffffffff881eb358                CSN1Action_cc_1588188796
                0xffffffff881eb368                CSN1Action_cc_2000878133
                0xffffffff881eb370                CSN1Action_cc_2237429408
                0xffffffff881eb380                CSN1Action_cc_2872518491
                0xffffffff881eb384                CSN1Action_cc_1551163954
                0xffffffff881eb38c                CSN1Action_cc_4159826591
                0xffffffff881eb39c                CSN1Action_cc_2158205455
                0xffffffff881eb3a0                CSN1Action_cc_2988756088
                0xffffffff881eb3a8                CSN1Action_cc_1239295324
                0xffffffff881eb3b8                CSN1Action_cc_1299413427
                0xffffffff881eb3c0                CSN1Action_cc_886045474
                0xffffffff881eb3d0                CSN1Action_cc_930541888
                0xffffffff881eb3e0                CSN1Action_cc_1872252617
                0xffffffff881eb3f0                CSN1Action_cc_1370079816
                0xffffffff881eb3f8                CSN1Action_cc_4062270970
                0xffffffff881eb3fc                CSN1Action_cc_2668768181
                0xffffffff881eb404                CSN1Action_cc_1983885861
                0xffffffff881eb408                CSN1Action_cc_1021005843
                0xffffffff881eb40c                CSN1Action_cc_2129262679
                0xffffffff881eb410                CSN1Action_cc_275842905
                0xffffffff881eb418                CSN1Action_cc_2888958485
                0xffffffff881eb420                CSN1Action_cc_1752591521
                0xffffffff881eb424                CSN1Action_cc_532227770
                0xffffffff881eb42c                CSN1Action_cc_138710429
                0xffffffff881eb43c                CSN1Action_cc_221275285
                0xffffffff881eb440                CSN1Action_cc_1707433197
                0xffffffff881eb448                CSN1Action_cc_59777470
                0xffffffff881eb458                CSN1Action_cc_453656169
                0xffffffff881eb45c                CSN1Action_cc_813585101
                0xffffffff881eb464                CSN1Action_cc_2662488628
                0xffffffff881eb474                CSN1Action_cc_1689139655
                0xffffffff881eb478                CSN1Action_cc_2686291257
                0xffffffff881eb480                CSN1Action_cc_4117176081
                0xffffffff881eb490                CSN1Action_cc_3342536839
                0xffffffff881eb494                CSN1Action_cc_2986951842
                0xffffffff881eb49c                CSN1Action_cc_3845412285
                0xffffffff881eb4ac                CSN1Action_cc_1715158171
                0xffffffff881eb4b0                CSN1Action_cc_3974991088
                0xffffffff881eb4b8                CSN1Action_cc_2344643024
                0xffffffff881eb4c8                CSN1Action_cc_3306215593
                0xffffffff881eb4cc                CSN1Action_cc_2128213795
                0xffffffff881eb4d4                CSN1Action_cc_2032749385
                0xffffffff881eb4e4                CSN1Action_cc_2093895806
                0xffffffff881eb4e8                CSN1Action_cc_727906563
                0xffffffff881eb4f0                CSN1Action_cc_53901852
                0xffffffff881eb500                CSN1Action_cc_1220248098
                0xffffffff881eb504                CSN1Action_cc_1754470270
                0xffffffff881eb50c                CSN1Action_cc_2752432356
                0xffffffff881eb51c                CSN1Action_cc_193127317
                0xffffffff881eb524                CSN1Action_cc_4186688045
                0xffffffff881eb528                CSN1Action_cc_3375202559
                0xffffffff881eb530                CSN1Action_cc_1245712084
                0xffffffff881eb538                CSN1Action_cc_1927831968
                0xffffffff881eb53c                CSN1Action_cc_3266869057
                0xffffffff881eb544                CSN1Action_cc_1476502180
                0xffffffff881eb54c                CSN1Action_cc_3838236598
                0xffffffff881eb55c                CSN1Action_cc_2746917974
                0xffffffff881eb560                CSN1Action_cc_3353783689
                0xffffffff881eb568                CSN1Action_cc_4251177976
                0xffffffff881eb578                CSN1Action_cc_1653083693
                0xffffffff881eb580                CSN1Action_cc_681416798
                0xffffffff881eb588                CSN1Action_cc_3848175428
                0xffffffff881eb58c                CSN1Action_cc_796677307
                0xffffffff881eb594                CSN1Action_cc_3514194362
                0xffffffff881eb5a4                CSN1Action_cc_2766579062
                0xffffffff881eb5ac                CSN1Action_cc_1133422472
                0xffffffff881eb5bc                CSN1Action_cc_1420649506
                0xffffffff881eb5c4                CSN1Action_cc_2388995421
                0xffffffff881eb5d4                CSN1Action_cc_827491236
                0xffffffff881eb5dc                CSN1Action_cc_1074194284
                0xffffffff881eb5ec                CSN1Action_cc_262541364
                0xffffffff881eb5f4                CSN1Action_cc_2207852933
                0xffffffff881eb5fc                CSN1Action_cc_807986200
                0xffffffff881eb600                CSN1Action_cc_2833843784
                0xffffffff881eb604                CSN1Action_cc_3020789524
                0xffffffff881eb60c                CSN1Action_cc_1823305613
                0xffffffff881eb610                CSN1Action_cc_4197697887
                0xffffffff881eb618                CSN1Action_cc_514932597
                0xffffffff881eb61c                CSN1Action_cc_31439822
                0xffffffff881eb620                CSN1Action_cc_1303189246
                0xffffffff881eb628                CSN1Action_cc_1282322265
                0xffffffff881eb62c                CSN1Action_cc_3201809906
                0xffffffff881eb634                CSN1Action_cc_977988876
                0xffffffff881eb638                CSN1Action_cc_4051522621
                0xffffffff881eb640                CSN1Action_cc_1573567058
                0xffffffff881eb644                CSN1Action_cc_3409003004
                0xffffffff881eb64c                CSN1Action_cc_4035638784
                0xffffffff881eb650                CSN1Action_cc_4073983436
                0xffffffff881eb658                CSN1Action_cc_3980988668
                0xffffffff881eb668                CSN1Action_cc_3664392443
                0xffffffff881eb670                CSN1Action_cc_229196921
                0xffffffff881eb680                CSN1Action_cc_3703184713
                0xffffffff881eb688                CSN1Action_cc_3525396322
                0xffffffff881eb698                CSN1Action_cc_3445233437
                0xffffffff881eb6a0                CSN1Action_cc_3006754349
                0xffffffff881eb6b0                CSN1Action_cc_840315633
                0xffffffff881eb6b8                CSN1Action_cc_2024367848
                0xffffffff881eb6c0                CSN1Action_cc_2175835239
                0xffffffff881eb6c4                CSN1Action_cc_1380761786
                0xffffffff881eb6c8                CSN1Action_cc_1465459865
                0xffffffff881eb6d0                CSN1Action_cc_2079741542
                0xffffffff881eb6d4                CSN1Action_cc_3501688733
                0xffffffff881eb6dc                CSN1Action_cc_377527041
                0xffffffff881eb6e4                CSN1Action_cc_4027663242
                0xffffffff881eb6f4                CSN1Action_cc_2222786206
                0xffffffff881eb704                CSN1Action_cc_3331057133
                0xffffffff881eb70c                CSN1Action_cc_2226886432
                0xffffffff881eb714                CSN1Action_cc_3157102492
                0xffffffff881eb718                CSN1Action_cc_2934334830
                0xffffffff881eb720                CSN1Action_cc_3349973769
                0xffffffff881eb730                CSN1Action_cc_3861988065
                0xffffffff881eb734                CSN1Action_cc_3400590874
                0xffffffff881eb73c                CSN1Action_cc_3992153106
                0xffffffff881eb74c                CSN1Action_cc_1772875302
                0xffffffff881eb750                CSN1Action_cc_3382778295
                0xffffffff881eb758                CSN1Action_cc_3774644643
                0xffffffff881eb768                CSN1Action_cc_131146044
                0xffffffff881eb76c                CSN1Action_cc_67122536
                0xffffffff881eb774                CSN1Action_cc_4233307634
                0xffffffff881eb784                CSN1Action_cc_3901413999
                0xffffffff881eb788                CSN1Action_cc_2294833426
                0xffffffff881eb790                CSN1Action_cc_490859788
                0xffffffff881eb7a0                CSN1Action_cc_2419602553
                0xffffffff881eb7a4                CSN1Action_cc_4208198203
                0xffffffff881eb7ac                CSN1Action_cc_2335041139
                0xffffffff881eb7bc                CSN1Action_cc_4088121906
                0xffffffff881eb7c0                CSN1Action_cc_3555498293
                0xffffffff881eb7c8                CSN1Action_cc_2455652453
                0xffffffff881eb7d8                CSN1Action_cc_1671890077
                0xffffffff881eb7e0                CSN1Action_cc_4088925312
                0xffffffff881eb7e4                CSN1Action_cc_1146369898
                0xffffffff881eb7e8                CSN1Action_cc_1118317905
                0xffffffff881eb7ec                CSN1Action_cc_2762580295
                0xffffffff881eb7f4                CSN1Action_cc_1100304528
                0xffffffff881eb7f8                CSN1Action_cc_2473740054
                0xffffffff881eb800                CSN1Action_cc_941954885
                0xffffffff881eb810                CSN1Action_cc_2266540147
                0xffffffff881eb818                CSN1Action_cc_1030016365
                0xffffffff881eb828                CSN1Action_cc_3081063057
                0xffffffff881eb82c                CSN1Action_cc_3536840962
                0xffffffff881eb834                CSN1Action_cc_2359866880
                0xffffffff881eb844                CSN1Action_cc_2075517348
                0xffffffff881eb848                CSN1Action_cc_843726042
                0xffffffff881eb850                CSN1Action_cc_809313225
                0xffffffff881eb854                CSN1Action_cc_3710005275
                0xffffffff881eb85c                CSN1Action_cc_3722580566
                0xffffffff881eb86c                CSN1Action_cc_3749297656
                0xffffffff881eb874                CSN1Action_cc_2797395583
                0xffffffff881eb884                CSN1Action_cc_1897139565
                0xffffffff881eb88c                CSN1Action_cc_2250900012
                0xffffffff881eb89c                CSN1Action_cc_410193901
                0xffffffff881eb8a4                CSN1Action_cc_3455978900
                0xffffffff881eb8b4                CSN1Action_cc_2385887278
                0xffffffff881eb8bc                CSN1Action_cc_658164215
                0xffffffff881eb8cc                CSN1Action_cc_4224949542
                0xffffffff881eb8d4                CSN1Action_cc_3796135119
                0xffffffff881eb8e4                CSN1Action_cc_4221717494
                0xffffffff881eb8f4                CSN1Action_cc_979837026
                0xffffffff881eb904                CSN1Action_cc_3605156616
                0xffffffff881eb90c                CSN1Action_cc_1825751974
                0xffffffff881eb910                CSN1Action_cc_4182485271
                0xffffffff881eb918                CSN1Action_cc_1666300355
                0xffffffff881eb928                CSN1Action_cc_1040633023
                0xffffffff881eb930                CSN1Action_cc_2762766377
                0xffffffff881eb940                CSN1Action_cc_963504207
                0xffffffff881eb950                CSN1Action_cc_3017240667
                0xffffffff881eb960                CSN1Action_cc_1229674022
                0xffffffff881eb970                CSN1Action_cc_529167968
                0xffffffff881eb980                CSN1Action_cc_2914849624
                0xffffffff881eb990                CSN1Action_cc_210500043
                0xffffffff881eb998                CSN1Action_cc_964346841
                0xffffffff881eb99c                CSN1Action_cc_2213595614
                0xffffffff881eb9a4                CSN1Action_cc_2813987237
                0xffffffff881eb9b4                CSN1Action_cc_1683811483
                0xffffffff881eb9bc                CSN1Action_cc_1354706373
                0xffffffff881eb9c0                CSN1Action_cc_607771889
                0xffffffff881eb9c8                CSN1Action_cc_841036727
                0xffffffff881eb9d8                CSN1Action_cc_737192080
                0xffffffff881eb9e8                CSN1Action_cc_262739892
                0xffffffff881eb9ec                CSN1Action_cc_2853052809
                0xffffffff881eb9fc                CSN1Action_cc_91856451
                0xffffffff881eba0c                CSN1Action_cc_2731816533
                0xffffffff881eba10                CSN1Action_cc_4010734005
                0xffffffff881eba18                CSN1Action_cc_2533015138
                0xffffffff881eba1c                CSN1Action_cc_726173617
                0xffffffff881eba20                CSN1Action_cc_982304886
                0xffffffff881eba24                CSN1Action_cc_2281177646
                0xffffffff881eba28                CSN1Action_cc_3774523959
                0xffffffff881eba2c                CSN1Action_cc_1817136603
                0xffffffff881eba30                CSN1Action_cc_3833634472
                0xffffffff881eba34                CSN1Action_cc_732217282
                0xffffffff881eba38                CSN1Action_cc_4165700834
                0xffffffff881eba3c                CSN1Action_cc_254209780
                0xffffffff881eba40                CSN1Action_cc_3570087538
                0xffffffff881eba48                CSN1Action_cc_3766743187
                0xffffffff881eba50                CSN1Action_cc_1616868386
                0xffffffff881eba60                CSN1Action_cc_1595149866
                0xffffffff881eba64                CSN1Action_cc_2826991294
                0xffffffff881eba6c                CSN1Action_cc_1746019740
                0xffffffff881eba70                CSN1Action_cc_2073452316
                0xffffffff881eba74                CSN1Action_cc_2473106058
                0xffffffff881eba78                CSN1Action_cc_907963356
                0xffffffff881eba80                CSN1Action_cc_1440400685
                0xffffffff881eba84                CSN1Action_cc_370191430
                0xffffffff881eba88                CSN1Action_cc_2247516746
                0xffffffff881eba8c                CSN1Action_cc_809346664
                0xffffffff881eba94                CSN1Action_cc_4049487921
                0xffffffff881eba98                CSN1Action_cc_3441249010
                0xffffffff881eba9c                CSN1Action_cc_4172668897
                0xffffffff881ebaa4                CSN1Action_cc_1136845788
                0xffffffff881ebaa8                CSN1Action_cc_1713566261
                0xffffffff881ebab0                CSN1Action_cc_2597421497
                0xffffffff881ebab4                CSN1Action_cc_3170572631
                0xffffffff881ebabc                CSN1Action_cc_2295125808
                0xffffffff881ebac0                CSN1Action_cc_1897261891
                0xffffffff881ebac8                CSN1Action_cc_379913519
                0xffffffff881ebacc                CSN1Action_cc_988398749
                0xffffffff881ebad4                CSN1Action_cc_3651848284
                0xffffffff881ebad8                CSN1Action_cc_137022685
                0xffffffff881ebae0                CSN1Action_cc_3157119530
                0xffffffff881ebae4                CSN1Action_cc_2947784073
                0xffffffff881ebaec                CSN1Action_cc_3926522531
                0xffffffff881ebaf0                CSN1Action_cc_2079062065
                0xffffffff881ebaf8                CSN1Action_cc_323156570
                0xffffffff881ebafc                CSN1Action_cc_1681691394
                0xffffffff881ebb04                CSN1Action_cc_1659318371
                0xffffffff881ebb08                CSN1Action_cc_3919518660
                0xffffffff881ebb0c                CSN1Action_cc_2305931879
                0xffffffff881ebb10                CSN1Action_cc_2635619618
                0xffffffff881ebb18                CSN1Action_cc_2987918999
                0xffffffff881ebb1c                CSN1Action_cc_2216290462
                0xffffffff881ebb20                CSN1Action_cc_1456211332
                0xffffffff881ebb28                CSN1Action_cc_1148664851
                0xffffffff881ebb2c                CSN1Action_cc_3915597396
                0xffffffff881ebb30                CSN1Action_cc_639863330
                0xffffffff881ebb34                CSN1Action_cc_3020441812
                0xffffffff881ebb38                CSN1Action_cc_3752490235
                0xffffffff881ebb40                CSN1Action_cc_3644256291
                0xffffffff881ebb44                CSN1Action_cc_1352558557
                0xffffffff881ebb4c                CSN1Action_cc_3675174633
                0xffffffff881ebb54                CSN1Action_cc_2705093056
                0xffffffff881ebb5c                CSN1Action_cc_2079674404
                0xffffffff881ebb60                CSN1Action_cc_2692186587
                0xffffffff881ebb64                CSN1Action_cc_4059339386
                0xffffffff881ebb68                CSN1Action_cc_2694560168
                0xffffffff881ebb6c                CSN1Action_cc_215255762
                0xffffffff881ebb74                CSN1Action_cc_676031829
                0xffffffff881ebb78                CSN1Action_cc_637602828
                0xffffffff881ebb7c                CSN1Action_cc_310141753
                0xffffffff881ebb84                CSN1Action_cc_1128824597
                0xffffffff881ebb88                CSN1Action_cc_42163514
                0xffffffff881ebb8c                CSN1Action_cc_866215047
                0xffffffff881ebb94                CSN1Action_cc_3942000816
                0xffffffff881ebb9c                CSN1Action_cc_45900188
                0xffffffff881ebbac                CSN1Action_cc_4010655922
                0xffffffff881ebbb0                CSN1Action_cc_2547294548
                0xffffffff881ebbb8                CSN1Action_cc_2030010
                0xffffffff881ebbbc                CSN1Action_cc_2190160872
                0xffffffff881ebbc0                CSN1Action_cc_257741642
                0xffffffff881ebbc4                CSN1Action_cc_599709352
                0xffffffff881ebbcc                CSN1Action_cc_2677374129
                0xffffffff881ebbd0                CSN1Action_cc_2800048813
                0xffffffff881ebbd4                CSN1Action_cc_3446269274
                0xffffffff881ebbdc                CSN1Action_cc_3666336121
                0xffffffff881ebbe0                CSN1Action_cc_2291995947
                0xffffffff881ebbe4                CSN1Action_cc_2785632990
                0xffffffff881ebbe8                CSN1Action_cc_3685612832
                0xffffffff881ebbec                CSN1Action_cc_3414644666
                0xffffffff881ebbf4                CSN1Action_cc_3395391009
                0xffffffff881ebbf8                CSN1Action_cc_3686771038
                0xffffffff881ebc00                CSN1Action_cc_2506752940
                0xffffffff881ebc04                CSN1Action_cc_1267203926
                0xffffffff881ebc08                CSN1Action_cc_1301849335
                0xffffffff881ebc10                CSN1Action_cc_923475874
                0xffffffff881ebc14                CSN1Action_cc_1502008668
                0xffffffff881ebc18                CSN1Action_cc_1347901770
                0xffffffff881ebc1c                CSN1Action_cc_1877579283
                0xffffffff881ebc20                CSN1Action_cc_3462442878
                0xffffffff881ebc24                CSN1Action_cc_1862643296
                0xffffffff881ebc28                CSN1Action_cc_535937020
                0xffffffff881ebc2c                CSN1Action_cc_2097448042
                0xffffffff881ebc30                CSN1Action_cc_564128041
                0xffffffff881ebc34                CSN1Action_cc_276985648
                0xffffffff881ebc38                CSN1Action_cc_1935931641
                0xffffffff881ebc3c                CSN1Action_cc_1265354533
                0xffffffff881ed638                OperatorInfo
                0xffffffff881effcc                SpecialOperatorInfo
                0xffffffff881f10f0                IPCP_OPTION
                0xffffffff881f1104                pcoCtn
                0xffffffff881f2b10                TerminalResponse
                0xffffffff881f2b1c                ResponseText
                0xffffffff881f2b20                ResponseItem
                0xffffffff881f2b24                MenuSelection
                0xffffffff881f2b30                EventDownload
                0xffffffff881f2b3c                TimerExpirationDownload
                0xffffffff881f2b4c                ResponseLocalInfo
                0xffffffff881f2b58                ResponseMeasure
                0xffffffff881f2b6c                ResponseDateTime
                0xffffffff881f2b78                ResponseLanguage
                0xffffffff881f2b7c                ResponseTimingAdvance
                0xffffffff881f2b80                ResponseCardStatus
                0xffffffff881f36fc                CSW_RID_3G
                0xffffffff881f4f50                KnownL3IEs
                0xffffffff881f5dc0                ethbroadcast
                0xffffffff881f5dc8                ethzero
                0xffffffff881f646c                g_halOverlayDesc
                0xffffffff881f658c                ip_addr_any_type
                0xffffffff881f6b58                ip_addr_any
                0xffffffff881f6b70                ip_addr_broadcast
                0xffffffff881f73a8                ip6_addr_any
                0xffffffff881f74b8                lap_ControlField
                0xffffffff881f74c0                lap_SupervisoryFrame
                0xffffffff881f74c8                lap_TabN200
                0xffffffff881f74cc                llc_DummyFcs
                0xffffffff881f7540                SupervisoryFrmName
                0xffffffff881f7550                llc_UFrmName
                0xffffffff881f75e0                mac_PdchDist
                0xffffffff881f7800                memp_RAW_PCB
                0xffffffff881f7808                memp_UDP_PCB
                0xffffffff881f7810                memp_TCP_PCB
                0xffffffff881f7818                memp_TCP_PCB_LISTEN
                0xffffffff881f7820                memp_TCP_SEG
                0xffffffff881f7828                memp_ALTCP_PCB
                0xffffffff881f7830                memp_REASSDATA
                0xffffffff881f7838                memp_FRAG_PBUF
                0xffffffff881f7840                memp_NETBUF
                0xffffffff881f7848                memp_NETCONN
                0xffffffff881f7850                memp_TCPIP_MSG_API
                0xffffffff881f7858                memp_API_MSG
                0xffffffff881f7860                memp_DNS_API_MSG
                0xffffffff881f7868                memp_SOCKET_SETGETSOCKOPT_DATA
                0xffffffff881f7870                memp_TCPIP_MSG_INPKT
                0xffffffff881f7878                memp_NETDB
                0xffffffff881f7880                memp_ND6_QUEUE
                0xffffffff881f7888                memp_IP6_REASSDATA
                0xffffffff881f7890                memp_MLD6_GROUP
                0xffffffff881f7898                memp_PBUF
                0xffffffff881f78a0                memp_PBUF_POOL
                0xffffffff881f78a8                memp_pools
                0xffffffff881f7c04                codec_wav_tags
                0xffffffff881f7ff8                PCMSamplesRate
                0xffffffff881f80a4                M51BCCH
                0xffffffff881fa034                memp_PPP_PCB
                0xffffffff881fa048                memp_PPPAPI_MSG
                0xffffffff881fa2f8                memp_PPPOS_PCB
                0xffffffff881fa4b4                rr_TxInteger
                0xffffffff881fa4c4                rr_SComb
                0xffffffff881fa4d4                rr_SNComb
                0xffffffff881fa4e4                rr_MaxRetrans
                0xffffffff881fa4e8                rr_RrToApiFrqBand
                0xffffffff881ff1cd                netconn_aborted
                0xffffffff881ff1ce                netconn_reset
                0xffffffff881ff1cf                netconn_closed
                0xffffffff881ffecc                tcp_pcb_lists
                0xffffffff8820385c                IF1_475_table
                0xffffffff8820391c                IF1_515_table
                0xffffffff882039ec                IF1_59_table
                0xffffffff88203ad8                IF1_67_table
                0xffffffff88203be4                IF1_74_table
                0xffffffff88203d0c                IF1_795_table
                0xffffffff88203e4c                IF1_102_table
                0xffffffff88203fe4                IF1_122_table
                0xffffffff882041cc                AmrHead_table
                0xffffffff882041d4                SNDRECBUF_LEN_AMR
                0xffffffff882041f4                Voc_frame_bytes
                0xffffffff88204708                g_charsets
                0xffffffff88205fc0                aiuser_itf
                0xffffffff88206774                AMR_HEADER
                0xffffffff88209640                mbedtls_rsa_info
                0xffffffff88209670                mbedtls_eckey_info
                0xffffffff882096a0                mbedtls_eckeydh_info
                0xffffffff882096d0                mbedtls_ecdsa_info
                0xffffffff8820be3c                mbedtls_x509_crt_profile_default
                0xffffffff8820be4c                mbedtls_x509_crt_profile_suiteb
                0xffffffff8820bf30                altcp_tcp_functions
                0xffffffff8820c2a4                altcp_mbedtls_functions
                0xffffffff8820c3f8                mbedtls_cipher_definitions
                0xffffffff8820e7f4                mbedtls_md4_info
                0xffffffff8820e824                mbedtls_md5_info
                0xffffffff8820e854                mbedtls_ripemd160_info
                0xffffffff8820e884                mbedtls_sha1_info
                0xffffffff8820e8b4                mbedtls_sha224_info
                0xffffffff8820e8e4                mbedtls_sha256_info
                0xffffffff8820e914                mbedtls_sha384_info
                0xffffffff8820e944                mbedtls_sha512_info

.bootbss        0xffffffff82056e10       0x10
 hex/gps/SW_V2131_csdk.elf(.bootbss)
 .bootbss       0xffffffff82056e10       0x10 hex/gps/SW_V2131_csdk.elf
                0xffffffff82056e10                g_memdFlashBaseAddress

.sramucdata     0xffffffffa1c08ac0      0x260 load address 0xffffffff8801b580
 hex/gps/SW_V2131_csdk.elf(.sramucdata)
 .sramucdata    0xffffffffa1c08ac0      0x260 hex/gps/SW_V2131_csdk.elf
                0xffffffffa1c08ac0                _sys_sram_uncached_start
                0xffffffffa1c08ac0                g_halGdbEnabled
                0xffffffffa1c08c8c                sxr_active_Task
                0xffffffffa1c08c94                g_halMapAccess
                0xffffffffa1c08ce0                g_uart_busy
                0xffffffffa1c08ce4                g_uart_r_busy
                0xffffffffa1c08cec                g_halLpsCtx
LOAD hex/gps/gps.elf
LOAD hex/gps/SW_V2131_csdk.elf
OUTPUT(/home/johhn//sdk_test/GPRS_C_SDK/hex/gps/gps_BASE_csdk_debug.elf elf32-littlemips)

.comment        0x0000000000000000       0x31
 .comment       0x0000000000000000       0x31 hex/gps/SW_V2131_csdk.elf
 .comment       0x0000000000000000       0x31 hex/gps/gps.elf

.reginfo        0x0000000000000000       0x18
 .reginfo       0x0000000000000000       0x18 hex/gps/gps.elf

.gnu.attributes
                0x0000000000000000       0x10
 .gnu.attributes
                0x0000000000000000       0x10 hex/gps/gps.elf

.debug_aranges  0x0000000000000000    0x1a778
 .debug_aranges
                0x0000000000000000    0x1a320 hex/gps/SW_V2131_csdk.elf
 .debug_aranges
                0x000000000001a320      0x458 hex/gps/gps.elf

.debug_pubnames
                0x0000000000000000    0x60cf9
 .debug_pubnames
                0x0000000000000000    0x60533 hex/gps/SW_V2131_csdk.elf
 .debug_pubnames
                0x0000000000060533      0x7c6 hex/gps/gps.elf

.debug_info     0x0000000000000000   0x529c3d
 .debug_info    0x0000000000000000   0x50af1d hex/gps/SW_V2131_csdk.elf
 .debug_info    0x000000000050af1d    0x1ed20 hex/gps/gps.elf

.debug_abbrev   0x0000000000000000    0x6a5a1
 .debug_abbrev  0x0000000000000000    0x682fa hex/gps/SW_V2131_csdk.elf
 .debug_abbrev  0x00000000000682fa     0x22a7 hex/gps/gps.elf

.debug_line     0x0000000000000000    0xc74bf
 .debug_line    0x0000000000000000    0xc5384 hex/gps/SW_V2131_csdk.elf
 .debug_line    0x00000000000c5384     0x213b hex/gps/gps.elf

.debug_frame    0x0000000000000000    0x4c3b4
 .debug_frame   0x0000000000000000    0x4b9d8 hex/gps/SW_V2131_csdk.elf
 .debug_frame   0x000000000004b9d8      0x9dc hex/gps/gps.elf

.debug_str      0x0000000000000000    0xa8336
 .debug_str     0x0000000000000000    0xa726f hex/gps/SW_V2131_csdk.elf
                                      0xa7287 (size before relaxing)
 .debug_str     0x00000000000a726f     0x10c7 hex/gps/gps.elf
                                       0x5ec4 (size before relaxing)

.debug_loc      0x0000000000000000   0x16ce6a
 .debug_loc     0x0000000000000000   0x16a3d6 hex/gps/SW_V2131_csdk.elf
 .debug_loc     0x000000000016a3d6     0x2a94 hex/gps/gps.elf

.debug_ranges   0x0000000000000000      0x300
 .debug_ranges  0x0000000000000000      0x300 hex/gps/gps.elf
